(lp0
((lp1
(lp2
F-1.0000000000000002
aF-0.0
aF-2.220446049250314e-16
aF3.774758283725534e-17
aa(lp3
F0.0
aF1.0
aF0.0
aF0.0
aa(lp4
F2.220446049250314e-16
aF-0.0
aF-1.0000000000000002
aF0.17000000000000004
aa(lp5
F0.0
aF0.0
aF0.0
aF1.0
aa(lp6
F0.2900002142649155
a(S'<trajectory>\n<configuration>\n<group name="deltatime" offset="2" dof="1" interpolation=""/>\n<group name="joint_velocities pr2 22" offset="1" dof="1" interpolation="next"/>\n<group name="joint_values pr2 22" offset="0" dof="1" interpolation="linear"/>\n</configuration>\n<data count="2">\n0.54800022 0 0 0.2900002142649155 -0.5 0.5160000114701692 </data>\n</trajectory>\n'
p7
(lp8
I22
atp9
(I0
I0
I1
tp10
tp11
a.