(lp0
((lp1
(lp2
F3.749399456654644e-33
aF-4.591690043316935e-49
aF-1.0
aF0.13999999999999999
aa(lp3
F-1.2246467991473532e-16
aF-1.0
aF-0.0
aF5.5109105961630896e-18
aa(lp4
F-1.0
aF1.2246467991473532e-16
aF-0.0
aF0.045
aa(lp5
F0.0
aF0.0
aF0.0
aF1.0
aa(lp6
F0.290000214264916
a(S'<trajectory>\n<configuration>\n<group name="deltatime" offset="2" dof="1" interpolation=""/>\n<group name="joint_velocities pr2 22" offset="1" dof="1" interpolation="next"/>\n<group name="joint_values pr2 22" offset="0" dof="1" interpolation="linear"/>\n</configuration>\n<data count="2">\n0.5480002200000001 0 0 0.290000214264916 -0.5 0.5160000114701684 </data>\n</trajectory>\n'
p7
(lp8
I22
atp9
cnumpy.core.multiarray
_reconstruct
p10
(cnumpy
ndarray
p11
(I0
tp12
S'b'
p13
tp14
Rp15
(I1
(I3
tp16
cnumpy
dtype
p17
(S'f8'
p18
I0
I1
tp19
Rp20
(I3
S'<'
p21
NNNI-1
I-1
I0
tp22
bI00
S'\x00\x00\x00\x00\x00\x00\xf0?\x00\x00\x00\x00\x00\x00\x00\x00\x00\x00\x00\x00\x00\x00\xf0?'
p23
tp24
btp25
a((lp26
(lp27
F-1.4997597826618576e-32
aF-1.2246467991473532e-16
aF1.0
aF-0.13999999999999999
aa(lp28
F1.2246467991473532e-16
aF1.0
aF1.2246467991473532e-16
aF-2.2655965784226033e-17
aa(lp29
F-1.0
aF1.2246467991473532e-16
aF-0.0
aF0.045
aa(lp30
F0.0
aF0.0
aF0.0
aF1.0
aa(lp31
F0.290000214264916
a(S'<trajectory>\n<configuration>\n<group name="deltatime" offset="2" dof="1" interpolation=""/>\n<group name="joint_velocities pr2 22" offset="1" dof="1" interpolation="next"/>\n<group name="joint_values pr2 22" offset="0" dof="1" interpolation="linear"/>\n</configuration>\n<data count="2">\n0.5480002200000001 0 0 0.290000214264916 -0.5 0.5160000114701684 </data>\n</trajectory>\n'
p32
(lp33
I22
atp34
g10
(g11
(I0
tp35
g13
tp36
Rp37
(I1
(I3
tp38
g20
I00
S'\x00\x00\x00\x00\x00\x00\xf0?\x00\x00\x00\x00\x00\x00\x00\x00\x00\x00\x00\x00\x00\x00\xf0?'
p39
tp40
btp41
a((lp42
(lp43
F-0.0
aF-0.0
aF-1.0
aF0.13999999999999999
aa(lp44
F1.2246467991473532e-16
aF1.0
aF-4.591690043316935e-49
aF0.0
aa(lp45
F1.0
aF-1.2246467991473532e-16
aF-3.749399456654644e-33
aF0.045
aa(lp46
F0.0
aF0.0
aF0.0
aF1.0
aa(lp47
F0.290000214264916
a(S'<trajectory>\n<configuration>\n<group name="deltatime" offset="2" dof="1" interpolation=""/>\n<group name="joint_velocities pr2 22" offset="1" dof="1" interpolation="next"/>\n<group name="joint_values pr2 22" offset="0" dof="1" interpolation="linear"/>\n</configuration>\n<data count="2">\n0.5480002200000001 0 0 0.290000214264916 -0.5 0.5160000114701684 </data>\n</trajectory>\n'
p48
(lp49
I22
atp50
g10
(g11
(I0
tp51
g13
tp52
Rp53
(I1
(I3
tp54
g20
I00
S'\x00\x00\x00\x00\x00\x00\xf0\xbf\x07\\\x143&\xa6\xa1<\x00\x00\x00\x00\x00\x00\xf0?'
p55
tp56
btp57
a((lp58
(lp59
F1.4997597826618576e-32
aF1.2246467991473532e-16
aF1.0
aF-0.13999999999999999
aa(lp60
F-1.2246467991473532e-16
aF-1.0
aF1.2246467991473532e-16
aF-1.7145055188062944e-17
aa(lp61
F1.0
aF-1.2246467991473532e-16
aF1.4997597826618576e-32
aF0.045
aa(lp62
F0.0
aF0.0
aF0.0
aF1.0
aa(lp63
F0.290000214264916
a(S'<trajectory>\n<configuration>\n<group name="deltatime" offset="2" dof="1" interpolation=""/>\n<group name="joint_velocities pr2 22" offset="1" dof="1" interpolation="next"/>\n<group name="joint_values pr2 22" offset="0" dof="1" interpolation="linear"/>\n</configuration>\n<data count="2">\n0.5480002200000001 0 0 0.290000214264916 -0.5 0.5160000114701684 </data>\n</trajectory>\n'
p64
(lp65
I22
atp66
g10
(g11
(I0
tp67
g13
tp68
Rp69
(I1
(I3
tp70
g20
I00
S'\x00\x00\x00\x00\x00\x00\xf0\xbf\x07\\\x143&\xa6\xa1<\x00\x00\x00\x00\x00\x00\xf0?'
p71
tp72
btp73
a.