(lp0
((lp1
(lp2
F2.220446049250313e-16
aF-2.719262146893782e-32
aF-1.0
aF0.09000000074505805
aa(lp3
F-1.2246467991473532e-16
aF-1.0
aF-2.5407181807812022e-33
aF8.572527594031475e-18
aa(lp4
F-1.0
aF1.2246467991473532e-16
aF-2.220446049250313e-16
aF0.07000000000000003
aa(lp5
F0.0
aF0.0
aF0.0
aF1.0
aa(lp6
F0.0
a(S'<trajectory>\n<configuration>\n<group name="deltatime" offset="2" dof="1" interpolation=""/>\n<group name="joint_velocities pr2 22" offset="1" dof="1" interpolation="next"/>\n<group name="joint_values pr2 22" offset="0" dof="1" interpolation="linear"/>\n</configuration>\n<data count="2">\n0.5480002200000001 0 0 0 -0.5 1.09600044 </data>\n</trajectory>\n'
p7
(lp8
I22
atp9
cnumpy.core.multiarray
_reconstruct
p10
(cnumpy
ndarray
p11
(I0
tp12
S'b'
p13
tp14
Rp15
(I1
(I3
tp16
cnumpy
dtype
p17
(S'f8'
p18
I0
I1
tp19
Rp20
(I3
S'<'
p21
NNNI-1
I-1
I0
tp22
bI00
S'\x00\x00\x00\x00\x00\x00\xf0?\x00\x00\x00\x00\x00\x00\x00\x00\x00\x00\x00\x00\x00\x00\xf0?'
p23
tp24
btp25
a((lp26
(lp27
F2.2204460492503128e-16
aF-1.2246467991473535e-16
aF1.0
aF-0.09000000074505808
aa(lp28
F1.224646799147353e-16
aF1.0
aF1.2246467991473532e-16
aF-1.9594348877600952e-17
aa(lp29
F-1.0
aF1.2246467991473527e-16
aF2.220446049250313e-16
aF0.07
aa(lp30
F0.0
aF0.0
aF0.0
aF1.0
aa(lp31
F0.0
a(S'<trajectory>\n<configuration>\n<group name="deltatime" offset="2" dof="1" interpolation=""/>\n<group name="joint_velocities pr2 22" offset="1" dof="1" interpolation="next"/>\n<group name="joint_values pr2 22" offset="0" dof="1" interpolation="linear"/>\n</configuration>\n<data count="2">\n0.5480002200000001 0 0 0 -0.5 1.09600044 </data>\n</trajectory>\n'
p32
(lp33
I22
atp34
g10
(g11
(I0
tp35
g13
tp36
Rp37
(I1
(I3
tp38
g20
I00
S'\x00\x00\x00\x00\x00\x00\xf0?\x00\x00\x00\x00\x00\x00\x00\x00\x00\x00\x00\x00\x00\x00\xf0?'
p39
tp40
btp41
a((lp42
(lp43
F-4.930380657631324e-32
aF2.220446049250313e-16
aF-1.0
aF0.09000000074505805
aa(lp44
F1.0
aF2.220446049250313e-16
aF4.930380657631324e-32
aF-1.6252666901199765e-17
aa(lp45
F2.220446049250313e-16
aF-1.0
aF-2.220446049250313e-16
aF0.05125000000000004
aa(lp46
F0.0
aF0.0
aF0.0
aF1.0
aa(lp47
F0.0
a(S'<trajectory>\n<configuration>\n<group name="deltatime" offset="2" dof="1" interpolation=""/>\n<group name="joint_velocities pr2 22" offset="1" dof="1" interpolation="next"/>\n<group name="joint_values pr2 22" offset="0" dof="1" interpolation="linear"/>\n</configuration>\n<data count="2">\n0.5480002200000001 0 0 0 -0.5 1.09600044 </data>\n</trajectory>\n'
p48
(lp49
I22
atp50
g10
(g11
(I0
tp51
g13
tp52
Rp53
(I1
(I3
tp54
g20
I00
S'\x00\x00\x00\x00\x00\x00\xb0<\x00\x00\x00\x00\x00\x00\xf0?\x00\x00\x00\x00\x00\x00\xf0?'
p55
tp56
btp57
a((lp58
(lp59
F5.5511151231257765e-17
aF1.1102230246251562e-16
aF0.9999999999999998
aF-0.09000000074505805
aa(lp60
F-0.9999999999999998
aF-2.775557561562891e-16
aF-1.1102230246251553e-16
aF2.908962070614617e-17
aa(lp61
F4.440892098500624e-16
aF-0.9999999999999998
aF2.7755575615628914e-16
aF0.051249999999999976
aa(lp62
F0.0
aF0.0
aF0.0
aF1.0
aa(lp63
F0.0
a(S'<trajectory>\n<configuration>\n<group name="deltatime" offset="2" dof="1" interpolation=""/>\n<group name="joint_velocities pr2 22" offset="1" dof="1" interpolation="next"/>\n<group name="joint_values pr2 22" offset="0" dof="1" interpolation="linear"/>\n</configuration>\n<data count="2">\n0.5480002200000001 0 0 0 -0.5 1.09600044 </data>\n</trajectory>\n'
p64
(lp65
I22
atp66
g10
(g11
(I0
tp67
g13
tp68
Rp69
(I1
(I3
tp70
g20
I00
S'\x00\x00\x00\x00\x00\x00\xb0<\x00\x00\x00\x00\x00\x00\xf0?\x00\x00\x00\x00\x00\x00\xf0?'
p71
tp72
btp73
a((lp74
(lp75
F-2.220446049250313e-16
aF2.719262146893782e-32
aF-1.0
aF0.09000000074505805
aa(lp76
F1.2246467991473532e-16
aF1.0
aF-2.5407181807812022e-33
aF0.0
aa(lp77
F1.0
aF-1.2246467991473532e-16
aF-2.220446049250313e-16
aF0.07000000000000003
aa(lp78
F0.0
aF0.0
aF0.0
aF1.0
aa(lp79
F0.0
a(S'<trajectory>\n<configuration>\n<group name="deltatime" offset="2" dof="1" interpolation=""/>\n<group name="joint_velocities pr2 22" offset="1" dof="1" interpolation="next"/>\n<group name="joint_values pr2 22" offset="0" dof="1" interpolation="linear"/>\n</configuration>\n<data count="2">\n0.5480002200000001 0 0 0 -0.5 1.09600044 </data>\n</trajectory>\n'
p80
(lp81
I22
atp82
g10
(g11
(I0
tp83
g13
tp84
Rp85
(I1
(I3
tp86
g20
I00
S'\x00\x00\x00\x00\x00\x00\xf0\xbf\x07\\\x143&\xa6\xa1<\x00\x00\x00\x00\x00\x00\xf0?'
p87
tp88
btp89
a((lp90
(lp91
F-2.2204460492503128e-16
aF1.2246467991473535e-16
aF1.0
aF-0.09000000074505808
aa(lp92
F-1.224646799147353e-16
aF-1.0
aF1.2246467991473532e-16
aF-1.1021821283569475e-17
aa(lp93
F1.0
aF-1.2246467991473527e-16
aF2.220446049250313e-16
aF0.07
aa(lp94
F0.0
aF0.0
aF0.0
aF1.0
aa(lp95
F0.0
a(S'<trajectory>\n<configuration>\n<group name="deltatime" offset="2" dof="1" interpolation=""/>\n<group name="joint_velocities pr2 22" offset="1" dof="1" interpolation="next"/>\n<group name="joint_values pr2 22" offset="0" dof="1" interpolation="linear"/>\n</configuration>\n<data count="2">\n0.5480002200000001 0 0 0 -0.5 1.09600044 </data>\n</trajectory>\n'
p96
(lp97
I22
atp98
g10
(g11
(I0
tp99
g13
tp100
Rp101
(I1
(I3
tp102
g20
I00
S'\x00\x00\x00\x00\x00\x00\xf0\xbf\x07\\\x143&\xa6\xa1<\x00\x00\x00\x00\x00\x00\xf0?'
p103
tp104
btp105
a((lp106
(lp107
F1.110223024625156e-16
aF-2.2204460492503136e-16
aF-1.0
aF0.09000000074505805
aa(lp108
F-1.0
aF3.3306690738754696e-16
aF-3.697785493223493e-32
aF9.389930211143318e-18
aa(lp109
F2.220446049250313e-16
aF1.0
aF-1.1102230246251565e-16
aF0.051250000000000025
aa(lp110
F0.0
aF0.0
aF0.0
aF1.0
aa(lp111
F0.0
a(S'<trajectory>\n<configuration>\n<group name="deltatime" offset="2" dof="1" interpolation=""/>\n<group name="joint_velocities pr2 22" offset="1" dof="1" interpolation="next"/>\n<group name="joint_values pr2 22" offset="0" dof="1" interpolation="linear"/>\n</configuration>\n<data count="2">\n0.5480002200000001 0 0 0 -0.5 1.09600044 </data>\n</trajectory>\n'
p112
(lp113
I22
atp114
g10
(g11
(I0
tp115
g13
tp116
Rp117
(I1
(I3
tp118
g20
I00
S'\x00\x00\x00\x00\x00\x00\xb0\xbc\x00\x00\x00\x00\x00\x00\xf0\xbf\x00\x00\x00\x00\x00\x00\xf0?'
p119
tp120
btp121
a((lp122
(lp123
F4.930380657631324e-32
aF1.1102230246251565e-16
aF1.0
aF-0.09000000074505807
aa(lp124
F1.0
aF-3.3306690738754696e-16
aF1.1102230246251565e-16
aF-1.9381937515487786e-17
aa(lp125
F4.440892098500626e-16
aF1.0
aF4.930380657631324e-32
aF0.05125000000000002
aa(lp126
F0.0
aF0.0
aF0.0
aF1.0
aa(lp127
F0.0
a(S'<trajectory>\n<configuration>\n<group name="deltatime" offset="2" dof="1" interpolation=""/>\n<group name="joint_velocities pr2 22" offset="1" dof="1" interpolation="next"/>\n<group name="joint_values pr2 22" offset="0" dof="1" interpolation="linear"/>\n</configuration>\n<data count="2">\n0.5480002200000001 0 0 0 -0.5 1.09600044 </data>\n</trajectory>\n'
p128
(lp129
I22
atp130
g10
(g11
(I0
tp131
g13
tp132
Rp133
(I1
(I3
tp134
g20
I00
S'\x00\x00\x00\x00\x00\x00\xb0\xbc\x00\x00\x00\x00\x00\x00\xf0\xbf\x00\x00\x00\x00\x00\x00\xf0?'
p135
tp136
btp137
a.