(lp0
((lp1
(lp2
F3.749399456654644e-33
aF-4.591690043316935e-49
aF-1.0
aF0.09000000000000001
aa(lp3
F-1.2246467991473532e-16
aF-1.0
aF-0.0
aF8.572527594031473e-18
aa(lp4
F-1.0
aF1.2246467991473532e-16
aF-0.0
aF0.07
aa(lp5
F0.0
aF0.0
aF0.0
aF1.0
aa(lp6
F0.0
a(S'<trajectory>\n<configuration>\n<group name="deltatime" offset="2" dof="1" interpolation=""/>\n<group name="joint_velocities pr2 22" offset="1" dof="1" interpolation="next"/>\n<group name="joint_values pr2 22" offset="0" dof="1" interpolation="linear"/>\n</configuration>\n<data count="2">\n0.5480002200000001 0 0 0 -0.5 1.09600044 </data>\n</trajectory>\n'
p7
(lp8
I22
atp9
cnumpy.core.multiarray
_reconstruct
p10
(cnumpy
ndarray
p11
(I0
tp12
S'b'
p13
tp14
Rp15
(I1
(I3
tp16
cnumpy
dtype
p17
(S'f8'
p18
I0
I1
tp19
Rp20
(I3
S'<'
p21
NNNI-1
I-1
I0
tp22
bI00
S'\x00\x00\x00\x00\x00\x00\xf0?\x00\x00\x00\x00\x00\x00\x00\x00\x00\x00\x00\x00\x00\x00\xf0?'
p23
tp24
btp25
a((lp26
(lp27
F-1.4997597826618576e-32
aF-1.2246467991473532e-16
aF1.0
aF-0.09000000000000001
aa(lp28
F1.2246467991473532e-16
aF1.0
aF1.2246467991473532e-16
aF-1.9594348786357654e-17
aa(lp29
F-1.0
aF1.2246467991473532e-16
aF-0.0
aF0.07
aa(lp30
F0.0
aF0.0
aF0.0
aF1.0
aa(lp31
F0.0
a(S'<trajectory>\n<configuration>\n<group name="deltatime" offset="2" dof="1" interpolation=""/>\n<group name="joint_velocities pr2 22" offset="1" dof="1" interpolation="next"/>\n<group name="joint_values pr2 22" offset="0" dof="1" interpolation="linear"/>\n</configuration>\n<data count="2">\n0.5480002200000001 0 0 0 -0.5 1.09600044 </data>\n</trajectory>\n'
p32
(lp33
I22
atp34
g10
(g11
(I0
tp35
g13
tp36
Rp37
(I1
(I3
tp38
g20
I00
S'\x00\x00\x00\x00\x00\x00\xf0?\x00\x00\x00\x00\x00\x00\x00\x00\x00\x00\x00\x00\x00\x00\xf0?'
p39
tp40
btp41
a((lp42
(lp43
F-0.0
aF-0.0
aF-1.0
aF0.09000000000000001
aa(lp44
F1.0
aF2.2204460492503136e-16
aF0.0
aF-1.9829386141767932e-17
aa(lp45
F2.220446049250313e-16
aF-1.0
aF-0.0
aF0.07
aa(lp46
F0.0
aF0.0
aF0.0
aF1.0
aa(lp47
F0.0
a(S'<trajectory>\n<configuration>\n<group name="deltatime" offset="2" dof="1" interpolation=""/>\n<group name="joint_velocities pr2 22" offset="1" dof="1" interpolation="next"/>\n<group name="joint_values pr2 22" offset="0" dof="1" interpolation="linear"/>\n</configuration>\n<data count="2">\n0.5480002200000001 0 0 0 -0.5 1.09600044 </data>\n</trajectory>\n'
p48
(lp49
I22
atp50
g10
(g11
(I0
tp51
g13
tp52
Rp53
(I1
(I3
tp54
g20
I00
S'\x00\x00\x00\x00\x00\x00\xb0<\x00\x00\x00\x00\x00\x00\xf0?\x00\x00\x00\x00\x00\x00\xf0?'
p55
tp56
btp57
a((lp58
(lp59
F1.6653345369377353e-16
aF1.1102230246251568e-16
aF1.0
aF-0.09000000000000002
aa(lp60
F-1.0
aF-1.665334536937735e-16
aF2.7755575615628914e-16
aF-9.036412498486144e-18
aa(lp61
F5.551115123125784e-17
aF-1.0
aF5.551115123125782e-17
aF0.07
aa(lp62
F0.0
aF0.0
aF0.0
aF1.0
aa(lp63
F0.0
a(S'<trajectory>\n<configuration>\n<group name="deltatime" offset="2" dof="1" interpolation=""/>\n<group name="joint_velocities pr2 22" offset="1" dof="1" interpolation="next"/>\n<group name="joint_values pr2 22" offset="0" dof="1" interpolation="linear"/>\n</configuration>\n<data count="2">\n0.5480002200000001 0 0 0 -0.5 1.09600044 </data>\n</trajectory>\n'
p64
(lp65
I22
atp66
g10
(g11
(I0
tp67
g13
tp68
Rp69
(I1
(I3
tp70
g20
I00
S'\x00\x00\x00\x00\x00\x00\xb0<\x00\x00\x00\x00\x00\x00\xf0?\x00\x00\x00\x00\x00\x00\xf0?'
p71
tp72
btp73
a((lp74
(lp75
F-0.0
aF-0.0
aF-1.0
aF0.09000000000000001
aa(lp76
F1.2246467991473532e-16
aF1.0
aF-4.591690043316935e-49
aF0.0
aa(lp77
F1.0
aF-1.2246467991473532e-16
aF-3.749399456654644e-33
aF0.07
aa(lp78
F0.0
aF0.0
aF0.0
aF1.0
aa(lp79
F0.0
a(S'<trajectory>\n<configuration>\n<group name="deltatime" offset="2" dof="1" interpolation=""/>\n<group name="joint_velocities pr2 22" offset="1" dof="1" interpolation="next"/>\n<group name="joint_values pr2 22" offset="0" dof="1" interpolation="linear"/>\n</configuration>\n<data count="2">\n0.5480002200000001 0 0 0 -0.5 1.09600044 </data>\n</trajectory>\n'
p80
(lp81
I22
atp82
g10
(g11
(I0
tp83
g13
tp84
Rp85
(I1
(I3
tp86
g20
I00
S'\x00\x00\x00\x00\x00\x00\xf0\xbf\x07\\\x143&\xa6\xa1<\x00\x00\x00\x00\x00\x00\xf0?'
p87
tp88
btp89
a((lp90
(lp91
F1.4997597826618576e-32
aF1.2246467991473532e-16
aF1.0
aF-0.09000000000000001
aa(lp92
F-1.2246467991473532e-16
aF-1.0
aF1.2246467991473532e-16
aF-1.102182119232618e-17
aa(lp93
F1.0
aF-1.2246467991473532e-16
aF1.4997597826618576e-32
aF0.07
aa(lp94
F0.0
aF0.0
aF0.0
aF1.0
aa(lp95
F0.0
a(S'<trajectory>\n<configuration>\n<group name="deltatime" offset="2" dof="1" interpolation=""/>\n<group name="joint_velocities pr2 22" offset="1" dof="1" interpolation="next"/>\n<group name="joint_values pr2 22" offset="0" dof="1" interpolation="linear"/>\n</configuration>\n<data count="2">\n0.5480002200000001 0 0 0 -0.5 1.09600044 </data>\n</trajectory>\n'
p96
(lp97
I22
atp98
g10
(g11
(I0
tp99
g13
tp100
Rp101
(I1
(I3
tp102
g20
I00
S'\x00\x00\x00\x00\x00\x00\xf0\xbf\x07\\\x143&\xa6\xa1<\x00\x00\x00\x00\x00\x00\xf0?'
p103
tp104
btp105
a((lp106
(lp107
F-0.0
aF-0.0
aF-1.0
aF0.09000000000000001
aa(lp108
F-1.0
aF4.440892098500626e-16
aF-0.0
aF1.8227453298457175e-17
aa(lp109
F4.440892098500626e-16
aF1.0
aF0.0
aF0.07
aa(lp110
F0.0
aF0.0
aF0.0
aF1.0
aa(lp111
F0.0
a(S'<trajectory>\n<configuration>\n<group name="deltatime" offset="2" dof="1" interpolation=""/>\n<group name="joint_velocities pr2 22" offset="1" dof="1" interpolation="next"/>\n<group name="joint_values pr2 22" offset="0" dof="1" interpolation="linear"/>\n</configuration>\n<data count="2">\n0.5480002200000001 0 0 0 -0.5 1.09600044 </data>\n</trajectory>\n'
p112
(lp113
I22
atp114
g10
(g11
(I0
tp115
g13
tp116
Rp117
(I1
(I3
tp118
g20
I00
S'\x00\x00\x00\x00\x00\x00\xb0\xbc\x00\x00\x00\x00\x00\x00\xf0\xbf\x00\x00\x00\x00\x00\x00\xf0?'
p119
tp120
btp121
a((lp122
(lp123
F-5.551115123125778e-17
aF1.1102230246251568e-16
aF1.0
aF-0.09
aa(lp124
F1.0
aF-4.440892098500626e-16
aF1.1102230246251568e-16
aF-2.8219460520083587e-17
aa(lp125
F4.440892098500626e-16
aF1.0
aF-5.551115123125778e-17
aF0.07
aa(lp126
F0.0
aF0.0
aF0.0
aF1.0
aa(lp127
F0.0
a(S'<trajectory>\n<configuration>\n<group name="deltatime" offset="2" dof="1" interpolation=""/>\n<group name="joint_velocities pr2 22" offset="1" dof="1" interpolation="next"/>\n<group name="joint_values pr2 22" offset="0" dof="1" interpolation="linear"/>\n</configuration>\n<data count="2">\n0.5480002200000001 0 0 0 -0.5 1.09600044 </data>\n</trajectory>\n'
p128
(lp129
I22
atp130
g10
(g11
(I0
tp131
g13
tp132
Rp133
(I1
(I3
tp134
g20
I00
S'\x00\x00\x00\x00\x00\x00\xb0\xbc\x00\x00\x00\x00\x00\x00\xf0\xbf\x00\x00\x00\x00\x00\x00\xf0?'
p135
tp136
btp137
a.