(lp0
((lp1
(lp2
F-1.0
aF-0.0
aF-0.0
aF-0.0
aa(lp3
F0.0
aF1.0
aF0.0
aF0.0
aa(lp4
F-0.0
aF-0.0
aF-1.0
aF0.12000000074505808
aa(lp5
F0.0
aF0.0
aF0.0
aF1.0
aa(lp6
F0.0
a(S'<trajectory>\n<configuration>\n<group name="deltatime" offset="2" dof="1" interpolation=""/>\n<group name="joint_velocities pr2 22" offset="1" dof="1" interpolation="next"/>\n<group name="joint_values pr2 22" offset="0" dof="1" interpolation="linear"/>\n</configuration>\n<data count="2">\n0.54800022 0 0 0 -0.5 1.09600044 </data>\n</trajectory>\n'
p7
(lp8
I22
atp9
(I0
I0
I1
tp10
tp11
a((lp12
(lp13
F-1.0
aF-1.5700924586837752e-16
aF-1.570092458683775e-16
aF1.8841109621186305e-17
aa(lp14
F-1.5700924586837752e-16
aF2.2204460492503128e-16
aF1.0
aF-0.12000000074505808
aa(lp15
F-1.570092458683775e-16
aF1.0
aF-2.2204460492503136e-16
aF2.664535275643989e-17
aa(lp16
F0.0
aF0.0
aF0.0
aF1.0
aa(lp17
F0.0
a(S'<trajectory>\n<configuration>\n<group name="deltatime" offset="2" dof="1" interpolation=""/>\n<group name="joint_velocities pr2 22" offset="1" dof="1" interpolation="next"/>\n<group name="joint_values pr2 22" offset="0" dof="1" interpolation="linear"/>\n</configuration>\n<data count="2">\n0.54800022 0 0 0 -0.5 1.09600044 </data>\n</trajectory>\n'
p18
(lp19
I22
atp20
g10
tp21
a((lp22
(lp23
F-1.0
aF-2.719262146893782e-32
aF-4.440892098500626e-16
aF5.329070551287977e-17
aa(lp24
F-2.719262146893782e-32
aF-1.0
aF1.2246467991473532e-16
aF-1.4695761681011538e-17
aa(lp25
F-4.440892098500626e-16
aF1.2246467991473532e-16
aF1.0
aF-0.12000000074505808
aa(lp26
F0.0
aF0.0
aF0.0
aF1.0
aa(lp27
F0.0
a(S'<trajectory>\n<configuration>\n<group name="deltatime" offset="2" dof="1" interpolation=""/>\n<group name="joint_velocities pr2 22" offset="1" dof="1" interpolation="next"/>\n<group name="joint_values pr2 22" offset="0" dof="1" interpolation="linear"/>\n</configuration>\n<data count="2">\n0.54800022 0 0 0 -0.5 1.09600044 </data>\n</trajectory>\n'
p28
(lp29
I22
atp30
g10
tp31
a((lp32
(lp33
F-1.0
aF1.570092458683775e-16
aF-1.5700924586837752e-16
aF1.8841109621186308e-17
aa(lp34
F1.570092458683775e-16
aF-2.2204460492503136e-16
aF-1.0
aF0.12000000074505808
aa(lp35
F-1.5700924586837752e-16
aF-1.0
aF2.2204460492503128e-16
aF-2.664535275643988e-17
aa(lp36
F0.0
aF0.0
aF0.0
aF1.0
aa(lp37
F0.0
a(S'<trajectory>\n<configuration>\n<group name="deltatime" offset="2" dof="1" interpolation=""/>\n<group name="joint_velocities pr2 22" offset="1" dof="1" interpolation="next"/>\n<group name="joint_values pr2 22" offset="0" dof="1" interpolation="linear"/>\n</configuration>\n<data count="2">\n0.54800022 0 0 0 -0.5 1.09600044 </data>\n</trajectory>\n'
p38
(lp39
I22
atp40
g10
tp41
a.