(lp0
((lp1
(lp2
F-0.0
aF-0.0
aF-1.0
aF0.19
aa(lp3
F1.0
aF2.2204460492503136e-16
aF0.0
aF-5.665538897647981e-18
aa(lp4
F2.220446049250313e-16
aF-1.0
aF-0.0
aF0.020000000000000004
aa(lp5
F0.0
aF0.0
aF0.0
aF1.0
aa(lp6
F0.1760002121098355
a(S'<trajectory>\n<configuration>\n<group name="deltatime" offset="2" dof="1" interpolation=""/>\n<group name="joint_velocities pr2 22" offset="1" dof="1" interpolation="next"/>\n<group name="joint_values pr2 22" offset="0" dof="1" interpolation="linear"/>\n</configuration>\n<data count="2">\n0.5480002200000001 0 0 0.1760002121098355 -0.5 0.7440000157803294 </data>\n</trajectory>\n'
p7
(lp8
I22
atp9
cnumpy.core.multiarray
_reconstruct
p10
(cnumpy
ndarray
p11
(I0
tp12
S'b'
p13
tp14
Rp15
(I1
(I3
tp16
cnumpy
dtype
p17
(S'f8'
p18
I0
I1
tp19
Rp20
(I3
S'<'
p21
NNNI-1
I-1
I0
tp22
bI00
S'\x00\x00\x00\x00\x00\x00\xb0<\x00\x00\x00\x00\x00\x00\xf0?\x00\x00\x00\x00\x00\x00\xf0?'
p23
tp24
btp25
a((lp26
(lp27
F1.6653345369377353e-16
aF1.1102230246251568e-16
aF1.0
aF-0.19
aa(lp28
F-1.0
aF-1.665334536937735e-16
aF2.7755575615628914e-16
aF-4.8180277796672116e-17
aa(lp29
F5.551115123125784e-17
aF-1.0
aF5.551115123125782e-17
aF0.019999999999999993
aa(lp30
F0.0
aF0.0
aF0.0
aF1.0
aa(lp31
F0.1760002121098355
a(S'<trajectory>\n<configuration>\n<group name="deltatime" offset="2" dof="1" interpolation=""/>\n<group name="joint_velocities pr2 22" offset="1" dof="1" interpolation="next"/>\n<group name="joint_values pr2 22" offset="0" dof="1" interpolation="linear"/>\n</configuration>\n<data count="2">\n0.5480002200000001 0 0 0.1760002121098355 -0.5 0.7440000157803294 </data>\n</trajectory>\n'
p32
(lp33
I22
atp34
g10
(g11
(I0
tp35
g13
tp36
Rp37
(I1
(I3
tp38
g20
I00
S'\x00\x00\x00\x00\x00\x00\xb0<\x00\x00\x00\x00\x00\x00\xf0?\x00\x00\x00\x00\x00\x00\xf0?'
p39
tp40
btp41
a((lp42
(lp43
F-0.0
aF-0.0
aF-1.0
aF0.19
aa(lp44
F-1.0
aF4.440892098500626e-16
aF-0.0
aF5.207843799559194e-18
aa(lp45
F4.440892098500626e-16
aF1.0
aF0.0
aF0.020000000000000004
aa(lp46
F0.0
aF0.0
aF0.0
aF1.0
aa(lp47
F0.1760002121098355
a(S'<trajectory>\n<configuration>\n<group name="deltatime" offset="2" dof="1" interpolation=""/>\n<group name="joint_velocities pr2 22" offset="1" dof="1" interpolation="next"/>\n<group name="joint_values pr2 22" offset="0" dof="1" interpolation="linear"/>\n</configuration>\n<data count="2">\n0.5480002200000001 0 0 0.1760002121098355 -0.5 0.7440000157803294 </data>\n</trajectory>\n'
p48
(lp49
I22
atp50
g10
(g11
(I0
tp51
g13
tp52
Rp53
(I1
(I3
tp54
g20
I00
S'\x00\x00\x00\x00\x00\x00\xb0\xbc\x00\x00\x00\x00\x00\x00\xf0\xbf\x00\x00\x00\x00\x00\x00\xf0?'
p55
tp56
btp57
a((lp58
(lp59
F-5.551115123125778e-17
aF1.1102230246251568e-16
aF1.0
aF-0.19
aa(lp60
F1.0
aF-4.440892098500626e-16
aF1.1102230246251568e-16
aF-2.630208126743717e-17
aa(lp61
F4.440892098500626e-16
aF1.0
aF-5.551115123125778e-17
aF0.020000000000000014
aa(lp62
F0.0
aF0.0
aF0.0
aF1.0
aa(lp63
F0.1760002121098355
a(S'<trajectory>\n<configuration>\n<group name="deltatime" offset="2" dof="1" interpolation=""/>\n<group name="joint_velocities pr2 22" offset="1" dof="1" interpolation="next"/>\n<group name="joint_values pr2 22" offset="0" dof="1" interpolation="linear"/>\n</configuration>\n<data count="2">\n0.5480002200000001 0 0 0.1760002121098355 -0.5 0.7440000157803294 </data>\n</trajectory>\n'
p64
(lp65
I22
atp66
g10
(g11
(I0
tp67
g13
tp68
Rp69
(I1
(I3
tp70
g20
I00
S'\x00\x00\x00\x00\x00\x00\xb0\xbc\x00\x00\x00\x00\x00\x00\xf0\xbf\x00\x00\x00\x00\x00\x00\xf0?'
p71
tp72
btp73
a.