(lp0
((lp1
(lp2
F-1.0000000000000002
aF-0.0
aF-2.220446049250314e-16
aF8.881784197001257e-18
aa(lp3
F0.0
aF1.0
aF0.0
aF0.0
aa(lp4
F2.220446049250314e-16
aF-0.0
aF-1.0000000000000002
aF0.040000000000000015
aa(lp5
F0.0
aF0.0
aF0.0
aF1.0
aa(lp6
F0.4090002166574822
a(S'<trajectory>\n<configuration>\n<group name="deltatime" offset="2" dof="1" interpolation=""/>\n<group name="joint_velocities pr2 22" offset="1" dof="1" interpolation="next"/>\n<group name="joint_values pr2 22" offset="0" dof="1" interpolation="linear"/>\n</configuration>\n<data count="2">\n0.54800022 0 0 0.4090002166574822 -0.5 0.2780000066850357 </data>\n</trajectory>\n'
p7
(lp8
I22
atp9
(I0
I0
I1
tp10
tp11
a((lp12
(lp13
F-1.0
aF-0.0
aF-1.5700924586837752e-16
aF6.280369834735102e-18
aa(lp14
F-1.5700924586837752e-16
aF0.0
aF1.0
aF-0.04000000000000001
aa(lp15
F0.0
aF1.0
aF0.0
aF0.0
aa(lp16
F0.0
aF0.0
aF0.0
aF1.0
aa(lp17
F0.4710002163426952
a(S'<trajectory>\n<configuration>\n<group name="deltatime" offset="2" dof="1" interpolation=""/>\n<group name="joint_velocities pr2 22" offset="1" dof="1" interpolation="next"/>\n<group name="joint_values pr2 22" offset="0" dof="1" interpolation="linear"/>\n</configuration>\n<data count="2">\n0.54800022 0 0 0.4710002163426952 -0.5 0.1540000073146096 </data>\n</trajectory>\n'
p18
(lp19
I22
atp20
g10
tp21
a((lp22
(lp23
F-1.0000000000000002
aF-1.2703590903905932e-33
aF-2.2204460492503136e-16
aF8.881784197001256e-18
aa(lp24
F-2.592226237854723e-32
aF-1.0000000000000002
aF1.2246467991473532e-16
aF-4.8985871965894135e-18
aa(lp25
F-2.2204460492503136e-16
aF1.2246467991473532e-16
aF1.0
aF-0.04000000000000001
aa(lp26
F0.0
aF0.0
aF0.0
aF1.0
aa(lp27
F0.4090002166574822
a(S'<trajectory>\n<configuration>\n<group name="deltatime" offset="2" dof="1" interpolation=""/>\n<group name="joint_velocities pr2 22" offset="1" dof="1" interpolation="next"/>\n<group name="joint_values pr2 22" offset="0" dof="1" interpolation="linear"/>\n</configuration>\n<data count="2">\n0.54800022 0 0 0.4090002166574822 -0.5 0.2780000066850357 </data>\n</trajectory>\n'
p28
(lp29
I22
atp30
g10
tp31
a((lp32
(lp33
F-1.0
aF-0.0
aF-1.5700924586837752e-16
aF6.280369834735102e-18
aa(lp34
F1.5700924586837752e-16
aF-0.0
aF-1.0
aF0.04000000000000001
aa(lp35
F-0.0
aF-1.0
aF-0.0
aF-0.0
aa(lp36
F0.0
aF0.0
aF0.0
aF1.0
aa(lp37
F0.4710002163426952
a(S'<trajectory>\n<configuration>\n<group name="deltatime" offset="2" dof="1" interpolation=""/>\n<group name="joint_velocities pr2 22" offset="1" dof="1" interpolation="next"/>\n<group name="joint_values pr2 22" offset="0" dof="1" interpolation="linear"/>\n</configuration>\n<data count="2">\n0.54800022 0 0 0.4710002163426952 -0.5 0.1540000073146096 </data>\n</trajectory>\n'
p38
(lp39
I22
atp40
g10
tp41
a.