(dp0
S'successes'
p1
(lp2
I00
aI00
aI01
aI00
aI01
aI01
aI01
aI01
aI00
aI00
aI01
aI00
aI01
aI01
aI00
aI01
aI00
aI01
aI01
aI00
aI00
aI00
aI00
aI00
aI01
aI01
aI01
aI01
aI01
aI00
aI01
aI01
aI01
aI01
aI01
aI01
aI00
aI01
aI01
aI01
aI01
aI00
aI01
aI00
aI00
aI01
aI00
aI01
aI01
aI01
aI01
aI01
aI00
aI01
aI01
aI00
aI00
aI01
aI00
aI01
aI01
aI01
aI01
aI01
aI01
aI01
aI00
aI00
aI01
aI01
aI01
aI01
aI00
aI01
aI01
aI01
aI01
aI00
aI01
aI00
aI01
aI01
aI01
aI00
aI00
aI01
aI01
aI00
aI00
aI00
aI01
aI00
aI00
aI01
aI01
aI00
aI01
aI00
aI01
aI01
aI01
aI01
aI00
aI01
aI01
aI01
aI01
aI01
aI01
aI01
aI01
aI01
aI01
aI01
aI00
aI00
aI01
aI00
aI01
aI01
aI00
aI01
aI01
aI01
aI00
aI01
aI01
aI00
aI01
aI01
aI01
aI01
aI01
aI01
aI01
aI01
aI01
aI01
aI01
aI01
aI01
aI01
aI00
aI01
aI01
aI00
aI01
aI00
aI01
aI01
aI01
aI01
aI00
aI01
aI01
aI00
aI00
aI01
aI01
aI00
aI01
aI01
aI01
aI00
aI01
aI00
aI00
aI01
aI01
aI00
aI01
aI01
aI01
aI01
aI00
aI00
aI01
aI00
aI01
aI00
aI00
aI01
aI01
aI01
aI01
aI00
aI01
aI01
aI00
aI00
aI00
aI01
aI01
aI01
aI00
aI01
aI00
aI01
aI01
aI00
aI01
aI01
aI01
aI01
aI01
aI01
aI00
aI01
aI01
aI01
aI01
aI00
aI01
aI00
aI01
aI01
aI00
aI01
aI00
aI00
aI01
aI00
aI00
aI00
aI01
aI00
aI01
aI00
aI01
aI01
aI00
aI01
aI00
aI00
aI01
aI01
aI00
aI01
aI00
aI00
aI00
aI01
aI01
aI01
aI00
aI00
aI00
aI01
aI01
aI01
aI01
aI00
aI01
aI00
aI01
aI01
aI01
aI00
aI01
aI01
aI00
aI00
aI01
aI00
aI01
aI00
aI01
aI01
aI00
aI01
aI00
aI01
aI01
aI01
aI01
aI00
aI01
aI01
aI00
aI01
aI00
aI01
aI01
aI00
aI00
aI01
aI00
aI00
aI01
aI00
aI00
aI00
aI01
aI01
aI00
aI00
aI01
aI01
aI01
aI01
aI01
aI00
aI01
aI00
aI01
aI00
aI01
aI01
aI01
aI01
aI01
aI00
aI01
aI00
aI00
aI00
aI01
aI01
aI01
aI01
aI01
aI01
aI01
aI01
aI01
aI01
aI00
aI01
aI01
aI01
aI01
aI01
aI00
aI00
aI00
aI01
aI01
aI01
aI01
aI01
aI00
aI00
aI01
aI00
aI01
aI00
aI01
aI00
aI01
aI01
aI00
aI01
aI01
aI00
aI01
aI00
aI01
aI01
aI00
aI01
aI01
aI01
aI01
aI01
aI00
aI00
aI01
aI01
aI00
aI01
aI00
aI01
aI01
aI01
aI01
aI00
aI01
aI01
aI00
aI01
aI01
aI00
aI01
aI00
aI00
aI01
aI00
aI00
aI01
aI01
aI00
aI00
aI01
aI00
aI01
aI01
aI00
aI01
aI00
aI01
aI01
aI01
aI00
aI01
aI01
aI00
aI01
aI00
aI00
aI01
aI01
aI01
aI00
aI01
aI00
aI01
aI01
aI01
aI00
aI01
aI01
aI00
aI00
aI01
aI01
aI00
aI01
aI00
aI00
aI01
aI01
aI01
aI00
aI00
aI00
aI00
aI01
aI01
aI01
aI01
aI00
aI00
aI00
aI00
aI01
aI01
aI00
aI00
aI01
aI00
aI01
aI01
aI00
aI01
aI01
aI01
aI00
aI01
aI01
aI00
aI01
aI01
aI00
aI01
aI00
aI00
aI01
aI01
aI01
aI01
aI00
aI00
aI01
aI00
aI00
aI00
aI01
aI01
aI00
aI01
aI01
aI01
aI01
aI00
aI00
aI00
aI01
aI01
aI01
aI01
asS'pidxs'
p3
(lp4
I20069
aI20045
aI20096
aI20003
aI20038
aI20098
aI20080
aI20000
aI20053
aI20028
aI20040
aI20044
aI20039
aI20080
aI20036
aI20000
aI20073
aI20011
aI20067
aI20090
aI20069
aI20066
aI20070
aI20093
aI20013
aI20074
aI20079
aI20035
aI20055
aI20057
aI20073
aI20080
aI20049
aI20070
aI20090
aI20023
aI20017
aI20049
aI20078
aI20058
aI20004
aI20044
aI20046
aI20074
aI20077
aI20056
aI20012
aI20009
aI20025
aI20041
aI20070
aI20054
aI20006
aI20088
aI20071
aI20043
aI20058
aI20095
aI20086
aI20033
aI20065
aI20094
aI20001
aI20040
aI20016
aI20071
aI20013
aI20099
aI20044
aI20010
aI20016
aI20018
aI20092
aI20098
aI20067
aI20094
aI20014
aI20026
aI20046
aI20051
aI20089
aI20097
aI20010
aI20037
aI20043
aI20001
aI20066
aI20028
aI20033
aI20088
aI20068
aI20009
aI20039
aI20081
aI20044
aI20034
aI20047
aI20058
aI20008
aI20018
aI20082
aI20025
aI20009
aI20007
aI20079
aI20048
aI20055
aI20024
aI20017
aI20031
aI20091
aI20064
aI20017
aI20008
aI20001
aI20086
aI20097
aI20012
aI20059
aI20065
aI20052
aI20064
aI20079
aI20057
aI20055
aI20032
aI20004
aI20013
aI20048
aI20034
aI20085
aI20091
aI20059
aI20048
aI20011
aI20007
aI20099
aI20065
aI20073
aI20060
aI20064
aI20089
aI20030
aI20056
aI20060
aI20086
aI20034
aI20071
aI20019
aI20094
aI20006
aI20094
aI20095
aI20042
aI20091
aI20044
aI20036
aI20037
aI20018
aI20092
aI20091
aI20086
aI20059
aI20071
aI20075
aI20039
aI20028
aI20025
aI20061
aI20077
aI20064
aI20045
aI20089
aI20010
aI20052
aI20069
aI20083
aI20026
aI20003
aI20065
aI20052
aI20008
aI20070
aI20011
aI20054
aI20028
aI20085
aI20036
aI20072
aI20005
aI20031
aI20005
aI20078
aI20068
aI20079
aI20060
aI20075
aI20087
aI20057
aI20039
aI20055
aI20061
aI20087
aI20000
aI20048
aI20070
aI20029
aI20068
aI20078
aI20061
aI20050
aI20026
aI20002
aI20062
aI20010
aI20098
aI20006
aI20093
aI20076
aI20035
aI20012
aI20088
aI20050
aI20006
aI20021
aI20032
aI20000
aI20022
aI20051
aI20032
aI20083
aI20097
aI20081
aI20088
aI20038
aI20024
aI20076
aI20042
aI20053
aI20033
aI20029
aI20008
aI20025
aI20087
aI20074
aI20020
aI20078
aI20035
aI20081
aI20066
aI20099
aI20019
aI20006
aI20069
aI20045
aI20049
aI20016
aI20045
aI20040
aI20099
aI20071
aI20041
aI20031
aI20083
aI20055
aI20041
aI20084
aI20058
aI20034
aI20024
aI20043
aI20063
aI20086
aI20085
aI20025
aI20020
aI20027
aI20096
aI20017
aI20014
aI20083
aI20089
aI20050
aI20027
aI20050
aI20037
aI20029
aI20056
aI20051
aI20053
aI20092
aI20030
aI20011
aI20017
aI20020
aI20042
aI20095
aI20099
aI20059
aI20024
aI20049
aI20035
aI20047
aI20028
aI20030
aI20031
aI20014
aI20021
aI20036
aI20002
aI20098
aI20062
aI20047
aI20026
aI20079
aI20009
aI20009
aI20021
aI20085
aI20038
aI20060
aI20020
aI20013
aI20094
aI20031
aI20019
aI20053
aI20007
aI20066
aI20005
aI20068
aI20067
aI20022
aI20056
aI20072
aI20065
aI20023
aI20022
aI20093
aI20095
aI20075
aI20005
aI20002
aI20092
aI20082
aI20093
aI20038
aI20077
aI20096
aI20060
aI20022
aI20024
aI20023
aI20081
aI20042
aI20015
aI20007
aI20061
aI20051
aI20015
aI20027
aI20081
aI20069
aI20032
aI20053
aI20034
aI20018
aI20090
aI20002
aI20068
aI20073
aI20027
aI20043
aI20047
aI20016
aI20026
aI20073
aI20049
aI20077
aI20048
aI20083
aI20090
aI20082
aI20062
aI20095
aI20001
aI20033
aI20016
aI20004
aI20007
aI20075
aI20072
aI20061
aI20019
aI20012
aI20087
aI20051
aI20064
aI20021
aI20097
aI20043
aI20012
aI20058
aI20087
aI20005
aI20015
aI20054
aI20098
aI20004
aI20003
aI20085
aI20018
aI20032
aI20054
aI20033
aI20037
aI20015
aI20097
aI20002
aI20027
aI20029
aI20036
aI20092
aI20010
aI20003
aI20076
aI20088
aI20041
aI20046
aI20075
aI20038
aI20039
aI20050
aI20052
aI20052
aI20090
aI20063
aI20082
aI20042
aI20021
aI20059
aI20040
aI20067
aI20003
aI20084
aI20057
aI20030
aI20046
aI20020
aI20046
aI20023
aI20082
aI20030
aI20022
aI20014
aI20080
aI20072
aI20011
aI20008
aI20074
aI20096
aI20091
aI20056
aI20066
aI20004
aI20076
aI20054
aI20047
aI20078
aI20062
aI20062
aI20089
aI20076
aI20015
aI20035
aI20077
aI20067
aI20096
aI20029
aI20080
aI20019
aI20057
aI20001
aI20041
aI20000
aI20093
aI20045
aI20037
aI20014
aI20013
asS'plan_length'
p5
(lp6
I11
aI9
aI32
aI6
aI22
aI41
aI4
aI40
aI16
aI15
aI6
aI48
aI24
aI12
aI51
aI7
aI15
aI11
aI1
aI44
aI40
aI2
aI2
aI21
aI5
aI10
aI46
aI43
aI40
aI7
aI42
aI3
aI13
aI9
aI6
aI11
aI32
aI23
aI7
aI39
aI52
aI18
aI20
aI39
aI7
aI34
aI24
aI19
aI58
aI9
aI28
aI5
aI2
aI13
aI15
aI7
aI8
aI2
aI17
aI27
aI10
aI8
aI23
aI3
aI12
aI2
aI33
aI21
aI26
aI8
aI28
aI23
aI19
aI21
aI17
aI15
aI4
aI2
aI16
aI3
aI3
aI3
aI6
aI31
aI15
aI22
aI3
aI23
aI3
aI9
aI12
aI25
aI34
aI19
aI4
aI31
aI22
aI30
aI17
aI39
aI25
aI26
aI23
aI20
aI23
aI7
aI26
aI23
aI14
aI15
aI47
aI24
aI25
aI15
aI12
aI12
aI23
aI28
aI10
aI17
aI41
aI23
aI46
aI18
aI12
aI24
aI38
aI2
aI12
aI54
aI36
aI9
aI12
aI15
aI26
aI28
aI15
aI3
aI11
aI10
aI20
aI45
aI52
aI35
aI7
aI56
aI10
aI27
aI9
aI32
aI13
aI30
aI3
aI21
aI4
aI4
aI6
aI9
aI3
aI49
aI16
aI2
aI23
aI18
aI5
aI33
aI15
aI32
aI5
aI8
aI46
aI27
aI17
aI2
aI4
aI38
aI2
aI1
aI42
aI10
aI7
aI15
aI7
aI4
aI4
aI25
aI5
aI19
aI16
aI9
aI13
aI3
aI14
aI11
aI8
aI8
aI19
aI20
aI8
aI11
aI16
aI39
aI13
aI29
aI11
aI39
aI47
aI3
aI23
aI31
aI5
aI16
aI24
aI31
aI12
aI56
aI4
aI45
aI22
aI39
aI14
aI7
aI11
aI4
aI12
aI15
aI14
aI1
aI19
aI6
aI34
aI13
aI2
aI23
aI14
aI36
aI26
aI12
aI2
aI53
aI22
aI28
aI8
aI8
aI7
aI12
aI8
aI32
aI5
aI3
aI3
aI25
aI5
aI6
aI8
aI35
aI2
aI7
aI9
aI23
aI45
aI10
aI6
aI13
aI27
aI13
aI2
aI22
aI34
aI17
aI26
aI36
aI15
aI2
aI14
aI3
aI19
aI26
aI5
aI52
aI2
aI31
aI19
aI3
aI22
aI24
aI13
aI18
aI7
aI1
aI38
aI5
aI14
aI19
aI12
aI7
aI29
aI5
aI4
aI9
aI34
aI1
aI5
aI37
aI32
aI20
aI26
asS'num_nodes'
p7
(lp8
I73
aI80
aI33
aI113
aI16
aI60
aI11
aI31
aI88
aI76
aI58
aI88
aI10
aI52
aI80
aI64
aI76
aI31
aI18
aI78
aI85
aI77
aI118
aI83
aI68
aI35
aI19
aI89
aI14
aI73
aI23
aI13
aI2
aI78
aI54
aI5
aI65
aI3
aI29
aI15
aI12
aI106
aI88
aI70
aI88
aI74
aI108
aI98
aI15
aI58
aI17
aI15
aI86
aI20
aI10
aI74
aI83
aI30
aI101
aI83
aI36
aI8
aI73
aI71
aI27
aI25
aI83
aI105
aI54
aI9
aI56
aI42
aI91
aI54
aI70
aI16
aI44
aI75
aI10
aI76
aI4
aI24
aI18
aI91
aI99
aI14
aI35
aI77
aI248
aI80
aI11
aI97
aI89
aI38
aI36
aI100
aI28
aI106
aI18
aI35
aI5
aI63
aI100
aI3
aI98
aI26
aI46
aI25
aI72
aI38
aI42
aI86
aI26
aI36
aI112
aI73
aI8
aI76
aI11
aI20
aI78
aI8
aI16
aI5
aI72
aI11
aI51
aI129
aI25
aI30
aI7
aI56
aI7
aI44
aI19
aI63
aI40
aI37
aI11
aI57
aI32
aI49
aI56
aI28
aI82
aI97
aI43
aI88
aI37
aI36
aI31
aI34
aI58
aI10
aI55
aI105
aI68
aI40
aI25
aI97
aI26
aI76
aI49
aI87
aI36
aI83
aI73
aI30
aI23
aI42
aI27
aI33
aI74
aI12
aI67
aI68
aI51
aI104
aI71
aI97
aI87
aI27
aI61
aI27
aI20
aI70
aI47
aI54
aI69
aI82
aI84
aI3
aI33
aI77
aI94
aI60
aI103
aI38
aI17
aI85
aI20
aI59
aI37
aI18
aI24
aI71
aI86
aI15
aI35
aI79
aI75
aI83
aI63
aI73
aI20
aI76
aI70
aI27
aI86
aI74
aI79
aI96
aI74
aI94
aI25
aI95
aI41
aI83
aI27
aI47
aI89
aI7
aI100
aI106
aI27
aI6
aI78
aI7
aI101
aI222
aI88
aI14
aI20
aI6
aI81
aI85
aI71
aI58
aI33
aI10
aI58
aI80
aI30
aI95
aI13
aI45
aI27
aI85
aI94
aI6
aI86
aI76
aI18
aI88
aI84
aI100
aI40
aI24
aI72
aI3
aI89
aI9
aI63
aI4
aI6
aI73
aI58
aI18
aI88
aI11
aI92
aI20
aI11
aI71
aI72
aI5
aI86
aI76
aI8
aI95
aI85
aI90
aI40
aI6
aI83
aI108
aI30
aI21
aI18
aI31
aI4
aI72
aI27
aI73
aI33
aI90
aI22
aI15
aI48
aI42
aI10
aI79
aI15
aI70
aI70
aI124
aI37
aI84
aI24
aI45
aI26
aI50
aI92
aI5
aI32
aI45
aI92
aI19
aI26
aI31
aI72
aI14
aI80
aI90
aI83
aI68
aI11
aI88
aI31
aI54
aI81
aI101
aI26
aI72
aI11
aI84
aI16
aI104
aI13
aI57
aI75
aI21
aI20
aI77
aI4
aI76
aI47
aI8
aI71
aI58
aI20
aI4
aI33
aI32
aI70
aI70
aI67
aI66
aI94
aI26
aI70
aI4
aI74
aI26
aI44
aI91
aI12
aI16
aI69
aI20
aI43
aI102
aI21
aI73
aI82
aI49
aI82
aI96
aI9
aI10
aI118
aI63
aI6
aI69
aI38
aI15
aI78
aI82
aI75
aI15
aI59
aI6
aI84
aI27
aI17
aI74
aI58
aI94
aI97
aI64
aI12
aI17
aI78
aI34
aI274
aI38
aI32
aI3
aI87
aI28
aI74
aI100
aI95
aI52
aI28
aI140
aI91
aI97
aI82
aI26
aI3
aI17
aI76
aI72
aI79
aI59
aI5
aI30
aI52
aI11
aI94
aI87
aI97
aI91
aI61
aI3
aI83
aI92
aI42
aI65
aI32
aI4
aI112
aI31
aI42
aI23
aI75
aI33
aI24
aI76
aI2
aI62
aI80
aI6
aI110
aI63
aI18
aI48
aI20
aI17
aI95
aI70
aI63
aI92
aI99
aI83
aI14
aI7
aI72
aI21
aI72
aI3
aI12
aI81
aI74
aI81
aI88
aI100
aI26
aI51
asS'times'
p9
(lp10
F303.85476207733154
aF301.2596158981323
aF99.63793897628784
aF301.8527729511261
aF59.33550691604614
aF195.2109019756317
aF45.110915184020996
aF132.7359972000122
aF301.74630904197693
aF301.43116092681885
aF239.58815693855286
aF300.30764603614807
aF37.08687114715576
aF229.10745406150818
aF302.73011088371277
aF126.6945219039917
aF300.8440818786621
aF126.81551599502563
aF51.75826597213745
aF304.43343710899353
aF302.8686580657959
aF303.834037065506
aF301.8740029335022
aF302.6713659763336
aF251.28761506080627
aF141.39400506019592
aF73.2235701084137
aF287.6110849380493
aF54.821763038635254
aF301.08597683906555
aF93.53086400032043
aF62.5789361000061
aF16.590317010879517
aF271.7483551502228
aF224.22416615486145
aF23.296220064163208
aF300.2001540660858
aF22.279337167739868
aF122.4876217842102
aF55.426501989364624
aF56.866929054260254
aF303.81811594963074
aF282.2370390892029
aF303.5082919597626
aF303.96562600135803
aF267.200670003891
aF301.89103603363037
aF270.32301783561707
aF48.21267104148865
aF204.67042803764343
aF40.76728892326355
aF78.15821099281311
aF302.04497599601746
aF71.00142478942871
aF50.765738010406494
aF302.16803097724915
aF300.10638999938965
aF98.06999802589417
aF303.412957906723
aF211.7424280643463
aF142.42645287513733
aF45.02393817901611
aF230.7692608833313
aF286.5727298259735
aF103.20632696151733
aF120.71781301498413
aF300.62653279304504
aF302.848974943161
aF200.0729911327362
aF52.566076040267944
aF193.25388288497925
aF148.5242099761963
aF302.75424909591675
aF148.6898169517517
aF294.66489720344543
aF99.39253091812134
aF153.52815103530884
aF303.70469903945923
aF44.073357820510864
aF304.68693804740906
aF24.95994210243225
aF86.52395606040955
aF80.03921604156494
aF301.08396792411804
aF302.95114612579346
aF60.39026999473572
aF70.90605688095093
aF301.0560669898987
aF303.27151322364807
aF300.8733048439026
aF29.905620098114014
aF301.8502399921417
aF300.96395993232727
aF117.0256199836731
aF168.16343307495117
aF303.71678709983826
aF85.33307313919067
aF300.5598509311676
aF60.941933155059814
aF131.7940490245819
aF30.17800498008728
aF115.67036080360413
aF302.2033669948578
aF24.13362717628479
aF240.09615087509155
aF109.169997215271
aF155.11719799041748
aF71.48804593086243
aF185.75392293930054
aF134.4016261100769
aF130.06476402282715
aF177.2707018852234
aF119.26176619529724
aF113.01916790008545
aF300.4103100299835
aF303.4340240955353
aF52.67002606391907
aF300.4549050331116
aF29.56383204460144
aF96.51281881332397
aF301.9094099998474
aF30.221299171447754
aF42.21830701828003
aF27.89479684829712
aF300.12960600852966
aF60.83199405670166
aF185.61611199378967
aF300.55446600914
aF81.7997350692749
aF118.06114912033081
aF26.275727033615112
aF150.32608795166016
aF26.923006057739258
aF100.58009004592896
aF82.83700299263
aF174.84565210342407
aF176.25376105308533
aF132.18531584739685
aF40.21624803543091
aF171.52076506614685
aF132.61000514030457
aF184.23768401145935
aF305.8068130016327
aF110.17747497558594
aF216.75820803642273
aF303.2351031303406
aF167.41476488113403
aF300.1405038833618
aF163.3751208782196
aF131.98199009895325
aF132.71690392494202
aF131.553062915802
aF306.17730712890625
aF50.46703314781189
aF193.34092903137207
aF302.77364110946655
aF301.13309693336487
aF151.062726020813
aF95.27587103843689
aF305.2179470062256
aF95.33955502510071
aF266.9035499095917
aF155.7242250442505
aF301.20492696762085
aF140.12758994102478
aF300.117369890213
aF308.615051984787
aF88.58754587173462
aF80.57309412956238
aF303.85958099365234
aF92.95188307762146
aF114.92546916007996
aF231.80396485328674
aF59.794553995132446
aF304.8881709575653
aF303.4629158973694
aF146.72850799560547
aF300.4761588573456
aF230.28405284881592
aF300.15094208717346
aF306.98550295829773
aF118.73553419113159
aF237.70979499816895
aF141.4053189754486
aF85.061931848526
aF303.2025029659271
aF151.57913494110107
aF211.6906077861786
aF301.27211713790894
aF302.8337700366974
aF302.76511812210083
aF23.027534008026123
aF111.80895709991455
aF289.8176281452179
aF302.4210901260376
aF206.03251719474792
aF300.791218996048
aF87.10261106491089
aF61.844414949417114
aF301.758339881897
aF91.04371404647827
aF170.63940715789795
aF154.16650891304016
aF85.41094398498535
aF44.65759086608887
aF135.9522089958191
aF301.5872890949249
aF65.98631691932678
aF120.1191291809082
aF270.08736419677734
aF280.845764875412
aF303.39334893226624
aF197.08313083648682
aF301.23195600509644
aF70.43978500366211
aF297.53226590156555
aF302.22306990623474
aF76.60418701171875
aF302.32777881622314
aF300.97116589546204
aF185.43088603019714
aF301.34099793434143
aF304.0209608078003
aF300.6676769256592
aF103.48374509811401
aF300.04419803619385
aF176.41104698181152
aF301.08767795562744
aF89.29691100120544
aF164.42797207832336
aF302.7936670780182
aF40.41118407249451
aF300.1118071079254
aF300.89686012268066
aF110.89102482795715
aF27.62267780303955
aF302.8617901802063
aF35.47680592536926
aF302.6827600002289
aF304.1166079044342
aF303.5472249984741
aF45.41503596305847
aF58.111785888671875
aF26.319003105163574
aF305.26134991645813
aF303.09272599220276
aF302.73276686668396
aF261.31637597084045
aF123.30102682113647
aF28.129109144210815
aF153.78946113586426
aF303.4888172149658
aF115.99793791770935
aF302.31551599502563
aF53.123263120651245
aF173.36095190048218
aF95.88946104049683
aF304.0346190929413
aF229.47003388404846
aF33.390202045440674
aF304.3869071006775
aF300.20915818214417
aF55.96259593963623
aF302.0810959339142
aF298.54601883888245
aF301.4288430213928
aF153.1313579082489
aF168.4495189189911
aF301.16268491744995
aF24.01404309272766
aF301.3149080276489
aF33.73780584335327
aF207.4908230304718
aF25.820855140686035
aF44.11532115936279
aF300.3808090686798
aF201.97006702423096
aF61.84230899810791
aF301.8286199569702
aF42.28060793876648
aF302.8367919921875
aF81.39526414871216
aF47.03277111053467
aF300.58540081977844
aF301.5246841907501
aF29.561672925949097
aF302.06094694137573
aF301.2207510471344
aF37.911370038986206
aF304.042484998703
aF304.36338901519775
aF300.2097079753876
aF149.6619029045105
aF38.66054606437683
aF303.2949380874634
aF302.6063449382782
aF126.2930588722229
aF89.43253087997437
aF65.53778791427612
aF86.34508109092712
aF27.66273283958435
aF301.057580947876
aF112.71906208992004
aF303.52699089050293
aF100.30913400650024
aF301.3553218841553
aF61.80436110496521
aF62.57437992095947
aF148.31078910827637
aF135.99870109558105
aF60.21072316169739
aF303.44242310523987
aF65.73423314094543
aF301.95304799079895
aF300.83305191993713
aF300.53117203712463
aF127.66597294807434
aF263.83740401268005
aF92.30233502388
aF178.18008995056152
aF86.91926908493042
aF211.61409497261047
aF289.001718044281
aF27.433297872543335
aF120.28985810279846
aF169.82340812683105
aF303.47261810302734
aF59.39605379104614
aF96.03969120979309
aF124.92437100410461
aF233.64355182647705
aF66.59333896636963
aF301.9547960758209
aF303.41855692863464
aF301.34845495224
aF269.28886103630066
aF41.85170292854309
aF249.90277481079102
aF125.62742209434509
aF213.38286900520325
aF302.1972870826721
aF302.12698197364807
aF101.2653341293335
aF303.22635984420776
aF50.550256967544556
aF301.59999203681946
aF65.23304009437561
aF300.91104316711426
aF35.73329281806946
aF130.25313305854797
aF303.0770089626312
aF138.80494594573975
aF81.43621397018433
aF300.76963782310486
aF22.39281988143921
aF302.7398958206177
aF125.7613251209259
aF41.89371705055237
aF301.58010601997375
aF219.1333930492401
aF89.40769386291504
aF37.214335918426514
aF120.41342186927795
aF90.30613303184509
aF300.9241750240326
aF301.87410020828247
aF201.37692499160767
aF204.85924291610718
aF302.78305888175964
aF81.49632501602173
aF300.4693651199341
aF24.737353086471558
aF286.3064911365509
aF120.704430103302
aF155.86735701560974
aF300.7528519630432
aF51.38703918457031
aF72.52887010574341
aF302.68655490875244
aF68.937833070755
aF92.28731608390808
aF303.86483502388
aF60.40753889083862
aF304.30703997612
aF302.58180499076843
aF179.20158219337463
aF300.22197103500366
aF301.4712870121002
aF40.81102514266968
aF30.402752161026
aF300.54424500465393
aF300.47296714782715
aF29.40477991104126
aF301.2713739871979
aF150.2376470565796
aF39.890843868255615
aF307.2997841835022
aF126.47901797294617
aF301.6213028430939
aF63.419230222702026
aF208.27729105949402
aF26.20851993560791
aF301.9054260253906
aF64.33607196807861
aF63.36145997047424
aF303.63876509666443
aF181.3920328617096
aF301.23740911483765
aF301.29868602752686
aF238.3111481666565
aF56.122374057769775
aF53.565659046173096
aF304.1601309776306
aF110.66265511512756
aF300.48922300338745
aF158.24680495262146
aF99.5217559337616
aF24.21380305290222
aF301.6636040210724
aF122.89789414405823
aF237.34825992584229
aF302.4218189716339
aF300.4043688774109
aF120.1908049583435
aF128.42100882530212
aF302.13299798965454
aF245.57711100578308
aF301.02797389030457
aF301.67730617523193
aF92.54473185539246
aF25.98900008201599
aF76.2772331237793
aF301.9050271511078
aF303.25864601135254
aF301.94963693618774
aF301.4331970214844
aF29.01465392112732
aF118.69688701629639
aF149.98228001594543
aF61.962317943573
aF302.7778820991516
aF301.07205295562744
aF300.7682068347931
aF302.83127999305725
aF282.5929491519928
aF23.739773988723755
aF300.2808620929718
aF304.14518690109253
aF203.25621700286865
aF305.04279494285583
aF101.36664986610413
aF32.30140805244446
aF304.78753685951233
aF117.66845607757568
aF131.8625910282135
aF90.92033314704895
aF300.05707693099976
aF108.1061999797821
aF63.80292797088623
aF303.7846779823303
aF19.436690092086792
aF235.8795828819275
aF303.68496108055115
aF35.24707388877869
aF300.1466429233551
aF302.62668800354004
aF89.36799001693726
aF139.29766702651978
aF82.66780376434326
aF68.33559894561768
aF301.17709612846375
aF303.1348168849945
aF197.28041291236877
aF300.05042600631714
aF300.66690492630005
aF302.1627719402313
aF62.33269000053406
aF35.21549892425537
aF303.76711416244507
aF73.40766191482544
aF246.661602973938
aF38.20568895339966
aF41.611040115356445
aF303.8296089172363
aF303.48165011405945
aF302.2419991493225
aF255.0561969280243
aF250.44541597366333
aF113.85840702056885
aF151.3414990901947
as.