(dp0
S'successes'
p1
(lp2
I01
aI01
aI00
aI01
aI01
asS'pidxs'
p3
(lp4
I20004
aI20003
aI20000
aI20002
aI20001
asS'plan_length'
p5
(lp6
I9
aI1
aI7
aI8
asS'num_nodes'
p7
(lp8
I59
aI2
aI28
aI37
aI43
asS'times'
p9
(lp10
F276.89550709724426
aF43.07235908508301
aF300.72920393943787
aF194.54118609428406
aF270.2925000190735
as.