(dp0
S'successes'
p1
(lp2
I01
aI00
aI01
aI01
aI01
aI01
aI01
aI01
aI00
aI01
aI01
aI01
aI01
aI01
aI00
aI01
aI01
aI01
aI01
aI00
aI01
aI01
aI01
aI01
aI01
aI01
aI01
aI00
aI01
aI01
aI01
aI01
aI01
aI01
aI01
aI00
aI01
aI01
aI00
aI00
aI01
aI01
aI00
aI01
aI01
aI01
aI01
aI01
aI01
aI00
aI01
aI01
aI01
aI01
aI01
aI01
aI01
aI01
aI01
aI01
aI01
aI01
aI01
aI01
aI01
aI01
aI01
aI01
aI00
aI01
aI01
aI01
aI01
aI01
aI01
aI01
aI01
aI01
aI01
aI01
aI01
aI01
aI00
aI01
aI01
aI01
aI01
aI00
aI01
aI01
aI01
aI01
aI01
aI01
aI01
aI00
aI01
aI01
aI01
aI01
aI01
aI01
aI01
aI01
aI01
aI01
aI01
aI01
aI01
aI01
aI01
aI01
aI01
aI01
aI00
aI01
aI01
aI01
aI01
aI01
aI01
aI01
aI00
aI01
aI01
aI01
aI01
aI01
aI01
aI01
aI01
aI01
aI01
aI01
aI00
aI01
aI01
aI01
aI01
aI00
aI00
aI00
aI01
aI01
aI01
aI00
aI01
aI01
aI01
aI01
aI01
aI00
aI01
aI01
aI01
aI01
aI01
aI01
aI01
aI01
aI00
aI01
aI01
aI01
aI01
aI00
aI01
aI01
aI01
aI01
aI00
aI01
aI01
aI01
aI01
aI00
aI01
aI01
aI00
aI00
aI01
aI00
aI01
aI01
aI01
aI00
aI00
aI01
aI00
aI01
aI01
aI01
aI01
aI01
aI01
aI01
aI01
aI01
aI01
aI01
aI01
aI01
aI01
aI01
aI01
aI01
aI01
aI01
aI01
aI01
aI01
aI01
aI01
aI01
aI01
aI01
aI01
aI01
aI00
aI01
aI00
aI01
aI01
aI01
aI01
aI01
aI01
aI01
aI01
aI01
aI01
aI01
aI00
aI01
aI01
aI00
aI01
aI01
aI00
aI01
aI01
aI01
aI00
aI00
aI01
aI00
aI01
aI01
aI01
aI00
aI01
aI01
aI01
aI01
aI01
aI01
aI01
aI00
aI00
aI01
aI01
aI00
aI01
aI01
aI00
aI01
aI01
aI01
aI01
aI01
aI01
aI01
aI01
aI01
aI01
aI01
aI01
aI01
aI01
aI01
aI01
aI01
aI01
aI01
aI01
aI01
aI01
aI01
aI01
aI00
aI00
aI01
aI01
aI01
aI00
aI01
aI01
aI01
aI01
aI01
aI01
aI01
aI01
aI01
aI01
aI01
aI00
aI01
aI01
aI01
aI01
aI01
aI00
aI01
aI01
aI01
aI01
aI01
aI01
aI01
aI01
aI01
aI01
aI01
aI01
aI01
aI01
aI01
aI01
aI00
aI01
aI01
aI01
aI01
aI01
aI01
aI00
aI01
aI01
aI00
aI01
aI01
aI01
aI01
aI01
aI01
aI01
aI01
aI01
aI00
aI01
aI01
aI01
aI01
aI00
aI01
aI01
aI01
aI01
aI01
aI01
aI01
aI01
aI01
aI01
aI01
aI01
aI01
aI01
aI01
aI00
aI01
aI01
aI01
aI00
aI01
aI01
aI01
aI00
aI01
aI01
aI01
aI01
aI01
aI01
aI01
aI01
aI01
aI01
aI01
aI01
aI01
asS'pidxs'
p3
(lp4
I20069
aI20045
aI20074
aI20096
aI20003
aI20038
aI20080
aI20000
aI20053
aI20028
aI20040
aI20044
aI20039
aI20036
aI20000
aI20067
aI20090
aI20069
aI20066
aI20070
aI20013
aI20079
aI20035
aI20055
aI20057
aI20073
aI20070
aI20090
aI20017
aI20078
aI20058
aI20004
aI20044
aI20074
aI20077
aI20056
aI20012
aI20009
aI20025
aI20041
aI20070
aI20054
aI20006
aI20071
aI20043
aI20058
aI20095
aI20086
aI20033
aI20001
aI20040
aI20016
aI20071
aI20013
aI20044
aI20010
aI20016
aI20018
aI20092
aI20098
aI20067
aI20014
aI20026
aI20051
aI20089
aI20010
aI20037
aI20043
aI20001
aI20033
aI20088
aI20068
aI20009
aI20039
aI20081
aI20044
aI20034
aI20047
aI20058
aI20008
aI20018
aI20082
aI20025
aI20009
aI20079
aI20048
aI20055
aI20031
aI20091
aI20064
aI20008
aI20001
aI20086
aI20012
aI20065
aI20052
aI20064
aI20079
aI20055
aI20032
aI20004
aI20013
aI20048
aI20034
aI20091
aI20048
aI20007
aI20099
aI20065
aI20073
aI20060
aI20064
aI20089
aI20030
aI20056
aI20060
aI20086
aI20034
aI20071
aI20019
aI20006
aI20095
aI20091
aI20044
aI20036
aI20037
aI20018
aI20092
aI20091
aI20086
aI20071
aI20075
aI20039
aI20028
aI20025
aI20040
aI20077
aI20064
aI20045
aI20089
aI20010
aI20052
aI20069
aI20083
aI20026
aI20003
aI20065
aI20052
aI20008
aI20070
aI20054
aI20028
aI20085
aI20036
aI20072
aI20031
aI20005
aI20078
aI20068
aI20079
aI20060
aI20084
aI20075
aI20087
aI20039
aI20055
aI20061
aI20087
aI20000
aI20048
aI20070
aI20029
aI20068
aI20078
aI20061
aI20050
aI20002
aI20062
aI20010
aI20006
aI20093
aI20076
aI20035
aI20012
aI20088
aI20050
aI20006
aI20032
aI20000
aI20022
aI20032
aI20083
aI20081
aI20088
aI20038
aI20076
aI20053
aI20033
aI20029
aI20008
aI20025
aI20087
aI20074
aI20020
aI20035
aI20099
aI20019
aI20006
aI20069
aI20045
aI20016
aI20045
aI20040
aI20071
aI20041
aI20031
aI20083
aI20055
aI20041
aI20058
aI20034
aI20043
aI20063
aI20086
aI20020
aI20096
aI20017
aI20014
aI20083
aI20089
aI20050
aI20027
aI20050
aI20029
aI20056
aI20053
aI20092
aI20030
aI20020
aI20042
aI20095
aI20035
aI20047
aI20028
aI20031
aI20014
aI20036
aI20002
aI20062
aI20047
aI20026
aI20079
aI20009
aI20009
aI20021
aI20085
aI20038
aI20060
aI20020
aI20031
aI20019
aI20053
aI20005
aI20068
aI20067
aI20022
aI20056
aI20072
aI20065
aI20022
aI20093
aI20095
aI20075
aI20005
aI20002
aI20092
aI20082
aI20093
aI20038
aI20077
aI20096
aI20060
aI20022
aI20015
aI20007
aI20061
aI20015
aI20027
aI20069
aI20032
aI20053
aI20034
aI20018
aI20090
aI20002
aI20068
aI20073
aI20043
aI20047
aI20016
aI20026
aI20077
aI20048
aI20083
aI20090
aI20082
aI20062
aI20095
aI20001
aI20033
aI20016
aI20004
aI20075
aI20019
aI20012
aI20087
aI20051
aI20064
aI20021
aI20043
aI20012
aI20058
aI20087
aI20005
aI20054
aI20098
aI20004
aI20003
aI20018
aI20032
aI20054
aI20033
aI20037
aI20015
aI20002
aI20027
aI20029
aI20036
aI20092
aI20010
aI20003
aI20076
aI20041
aI20075
aI20038
aI20039
aI20050
aI20052
aI20052
aI20090
aI20063
aI20082
aI20021
aI20040
aI20067
aI20003
aI20030
aI20046
aI20020
aI20046
aI20082
aI20030
aI20014
aI20072
aI20008
aI20096
aI20091
aI20056
aI20004
aI20076
aI20054
aI20047
aI20078
aI20062
aI20062
aI20089
aI20076
aI20015
aI20035
aI20077
aI20067
aI20096
aI20029
aI20019
aI20001
aI20041
aI20000
aI20093
aI20045
aI20037
aI20014
aI20013
asS'plan_length'
p5
(lp6
I14
aI2
aI1
aI3
aI10
aI2
aI12
aI6
aI20
aI10
aI3
aI6
aI1
aI25
aI13
aI1
aI2
aI13
aI32
aI38
aI1
aI1
aI21
aI1
aI2
aI34
aI5
aI10
aI3
aI18
aI2
aI15
aI4
aI20
aI2
aI7
aI23
aI14
aI51
aI1
aI9
aI13
aI1
aI1
aI18
aI32
aI13
aI23
aI62
aI1
aI11
aI9
aI1
aI3
aI55
aI6
aI3
aI3
aI6
aI6
aI1
aI19
aI9
aI1
aI10
aI11
aI1
aI5
aI1
aI2
aI30
aI6
aI3
aI1
aI5
aI12
aI3
aI14
aI53
aI7
aI2
aI1
aI3
aI1
aI33
aI25
aI5
aI5
aI2
aI3
aI11
aI2
aI1
aI4
aI2
aI16
aI3
aI7
aI11
aI6
aI30
aI11
aI4
aI5
aI5
aI58
aI3
aI5
aI2
aI4
aI4
aI3
aI3
aI5
aI6
aI20
aI4
aI21
aI1
aI2
aI3
aI1
aI1
aI21
aI11
aI3
aI5
aI7
aI2
aI22
aI6
aI44
aI14
aI28
aI2
aI1
aI3
aI5
aI1
aI14
aI2
aI5
aI1
aI3
aI11
aI1
aI27
aI9
aI3
aI1
aI4
aI4
aI1
aI17
aI6
aI6
aI20
aI4
aI58
aI4
aI2
aI2
aI34
aI3
aI5
aI3
aI42
aI3
aI39
aI4
aI6
aI5
aI11
aI2
aI4
aI45
aI6
aI7
aI12
aI3
aI4
aI6
aI3
aI40
aI7
aI4
aI3
aI8
aI1
aI15
aI27
aI2
aI1
aI6
aI2
aI20
aI15
aI1
aI15
aI6
aI47
aI3
aI1
aI50
aI34
aI10
aI3
aI3
aI13
aI3
aI3
aI42
aI23
aI2
aI2
aI21
aI53
aI2
aI10
aI6
aI8
aI10
aI1
aI2
aI3
aI1
aI10
aI10
aI2
aI6
aI14
aI22
aI2
aI35
aI3
aI3
aI13
aI4
aI18
aI1
aI1
aI4
aI2
aI10
aI12
aI7
aI6
aI2
aI2
aI5
aI12
aI8
aI11
aI5
aI3
aI3
aI34
aI8
aI8
aI65
aI1
aI10
aI3
aI3
aI6
aI1
aI5
aI10
aI1
aI5
aI3
aI3
aI12
aI1
aI35
aI2
aI3
aI41
aI34
aI16
aI6
aI43
aI3
aI4
aI1
aI9
aI12
aI5
aI8
aI4
aI4
aI21
aI11
aI6
aI4
aI11
aI2
aI34
aI4
aI3
aI9
aI1
aI1
aI19
aI2
aI4
aI2
aI3
aI1
aI9
aI1
aI22
aI26
aI2
aI39
aI21
aI1
aI30
aI36
aI5
aI2
aI1
aI7
aI3
aI14
aI6
aI46
aI17
aI43
aI4
aI29
aI2
aI18
aI4
asS'num_nodes'
p7
(lp8
I29
aI121
aI7
aI2
aI9
aI33
aI4
aI40
aI67
aI33
aI97
aI43
aI20
aI19
aI116
aI6
aI118
aI50
aI2
aI126
aI4
aI47
aI98
aI48
aI2
aI3
aI110
aI113
aI2
aI3
aI75
aI47
aI67
aI4
aI86
aI88
aI10
aI32
aI126
aI168
aI12
aI73
aI119
aI11
aI28
aI113
aI26
aI95
aI198
aI118
aI64
aI58
aI14
aI2
aI55
aI45
aI77
aI44
aI89
aI2
aI56
aI20
aI6
aI4
aI95
aI11
aI16
aI15
aI151
aI183
aI10
aI4
aI46
aI60
aI2
aI36
aI26
aI4
aI12
aI5
aI5
aI70
aI116
aI15
aI7
aI5
aI20
aI138
aI38
aI56
aI65
aI102
aI42
aI5
aI3
aI47
aI26
aI25
aI108
aI45
aI36
aI9
aI9
aI31
aI28
aI10
aI2
aI16
aI3
aI51
aI29
aI36
aI60
aI21
aI85
aI126
aI19
aI19
aI15
aI26
aI81
aI6
aI148
aI30
aI5
aI16
aI23
aI10
aI13
aI15
aI24
aI60
aI16
aI73
aI93
aI37
aI37
aI36
aI7
aI117
aI86
aI47
aI2
aI109
aI32
aI89
aI19
aI34
aI19
aI11
aI62
aI117
aI15
aI141
aI67
aI67
aI3
aI2
aI12
aI20
aI119
aI4
aI37
aI11
aI14
aI97
aI2
aI17
aI38
aI4
aI164
aI56
aI64
aI4
aI2
aI51
aI13
aI24
aI88
aI123
aI2
aI88
aI34
aI9
aI8
aI100
aI107
aI64
aI116
aI7
aI92
aI18
aI3
aI3
aI77
aI8
aI38
aI183
aI80
aI6
aI71
aI19
aI28
aI23
aI27
aI4
aI11
aI80
aI11
aI39
aI69
aI9
aI45
aI35
aI15
aI114
aI74
aI20
aI92
aI15
aI141
aI50
aI2
aI21
aI77
aI3
aI2
aI14
aI7
aI61
aI60
aI2
aI45
aI25
aI25
aI125
aI59
aI4
aI135
aI2
aI66
aI45
aI91
aI90
aI29
aI125
aI30
aI12
aI67
aI99
aI4
aI9
aI122
aI76
aI3
aI3
aI60
aI128
aI114
aI111
aI16
aI90
aI12
aI24
aI56
aI23
aI51
aI18
aI5
aI6
aI3
aI19
aI42
aI3
aI29
aI49
aI27
aI8
aI129
aI21
aI4
aI42
aI7
aI52
aI2
aI2
aI10
aI3
aI20
aI98
aI50
aI46
aI25
aI25
aI182
aI12
aI4
aI13
aI38
aI42
aI30
aI42
aI8
aI30
aI128
aI44
aI149
aI12
aI114
aI118
aI37
aI10
aI114
aI14
aI37
aI6
aI17
aI88
aI2
aI22
aI6
aI10
aI55
aI2
aI78
aI3
aI13
aI77
aI89
aI106
aI36
aI267
aI59
aI13
aI12
aI2
aI95
aI57
aI29
aI111
aI23
aI25
aI16
aI15
aI71
aI34
aI16
aI7
aI37
aI89
aI3
aI47
aI5
aI22
aI54
aI18
aI3
aI2
aI49
aI4
aI18
aI3
aI10
aI6
aI36
aI2
aI53
aI87
aI15
aI66
aI80
aI45
aI2
aI47
aI149
aI58
aI17
aI6
aI91
aI11
aI31
aI4
aI31
aI20
aI88
aI68
aI86
aI19
aI163
aI7
aI45
aI6
asS'times'
p9
(lp10
F82.68195295333862
aF306.47007608413696
aF27.143024921417236
aF17.437488079071045
aF32.000946044921875
aF80.81814098358154
aF21.105288982391357
aF101.01835799217224
aF303.80421805381775
aF111.56462597846985
aF180.34261417388916
aF86.78354406356812
aF44.49819803237915
aF52.07394790649414
aF300.17380595207214
aF43.44322896003723
aF252.83588290214539
aF101.2943480014801
aF17.095746994018555
aF303.23442101478577
aF26.075414896011353
aF102.81857299804688
aF216.81994915008545
aF168.74851894378662
aF40.414121866226196
aF15.562216997146606
aF205.8340039253235
aF303.1319329738617
aF20.03643822669983
aF25.651562929153442
aF196.80069613456726
aF73.79313802719116
aF108.60872912406921
aF25.891642093658447
aF219.74487209320068
aF300.3432469367981
aF25.49039101600647
aF84.25942802429199
aF301.1753098964691
aF303.83551597595215
aF40.08992385864258
aF159.95444893836975
aF303.4452209472656
aF37.02419090270996
aF64.60833096504211
aF207.92412185668945
aF83.80288791656494
aF257.0277199745178
aF167.9450969696045
aF302.18179297447205
aF117.2335729598999
aF146.76760697364807
aF38.78594183921814
aF19.034857988357544
aF144.65734100341797
aF150.62127304077148
aF238.26120018959045
aF132.92262482643127
aF284.10383892059326
aF19.481372833251953
aF234.52411913871765
aF62.12745714187622
aF22.605217933654785
aF31.595650911331177
aF297.70930314064026
aF52.197917222976685
aF35.69995188713074
aF34.472280979156494
aF303.1865601539612
aF181.9799461364746
aF41.296875
aF18.76834487915039
aF108.19512915611267
aF100.52330422401428
aF20.434053897857666
aF79.11582207679749
aF74.44609904289246
aF20.727205991744995
aF40.17930603027344
aF20.142651796340942
aF23.407282829284668
aF183.20189785957336
aF300.3026361465454
aF42.97584295272827
aF32.66826009750366
aF22.609205961227417
aF51.86704206466675
aF304.07948303222656
aF90.4513738155365
aF79.59694385528564
aF126.88116908073425
aF260.9669539928436
aF72.44026613235474
aF24.25253200531006
aF17.575402975082397
aF308.33716797828674
aF53.32416605949402
aF37.00326895713806
aF290.5660328865051
aF180.58904695510864
aF73.84770178794861
aF39.66607189178467
aF28.851346969604492
aF75.93798112869263
aF68.39227795600891
aF29.79148006439209
aF17.648674964904785
aF48.14683198928833
aF20.939504146575928
aF114.99515509605408
aF60.267313957214355
aF79.29544687271118
aF136.59643602371216
aF76.99610900878906
aF301.051353931427
aF263.26620411872864
aF60.764583110809326
aF38.98048520088196
aF41.02239799499512
aF61.26426410675049
aF258.91648507118225
aF30.8320209980011
aF300.51817893981934
aF73.58815503120422
aF24.916236877441406
aF44.88799691200256
aF64.78215408325195
aF35.389477014541626
aF32.57780694961548
aF40.51289200782776
aF53.689960956573486
aF123.85528993606567
aF48.49405598640442
aF225.88803911209106
aF303.360121011734
aF56.29587912559509
aF82.26000595092773
aF55.801565170288086
aF22.27022099494934
aF301.99111795425415
aF302.2714629173279
aF305.59011697769165
aF16.813763856887817
aF229.50084495544434
aF78.6893630027771
aF301.18147587776184
aF51.911880016326904
aF90.2177460193634
aF70.78939199447632
aF35.160380840301514
aF154.44232487678528
aF302.29009795188904
aF49.32981014251709
aF293.7037789821625
aF164.3454451560974
aF180.89071702957153
aF26.824823141098022
aF25.055749893188477
aF30.613898992538452
aF45.874595165252686
aF300.2423851490021
aF19.52689003944397
aF90.08543300628662
aF28.926710844039917
aF41.12263107299805
aF301.24940514564514
aF20.158210039138794
aF34.4955780506134
aF78.69032192230225
aF20.241312980651855
aF300.53509283065796
aF154.0902440547943
aF101.94116497039795
aF27.664623022079468
aF19.599015951156616
aF300.83047890663147
aF42.49821996688843
aF45.51753902435303
aF302.22357201576233
aF300.5026948451996
aF19.929777145385742
aF302.3689270019531
aF132.1562168598175
aF37.94019889831543
aF43.437594175338745
aF302.40563797950745
aF303.6934771537781
aF137.63017392158508
aF303.2517189979553
aF32.379624128341675
aF281.21357679367065
aF40.10916805267334
aF24.762150049209595
aF21.36868190765381
aF200.98073506355286
aF29.99425506591797
aF123.71181797981262
aF184.60502791404724
aF217.23667907714844
aF30.423460006713867
aF231.53133988380432
aF39.83996295928955
aF70.7841260433197
aF70.80259299278259
aF78.86211514472961
aF21.236963987350464
aF35.03503894805908
aF214.43072605133057
aF41.08871102333069
aF127.79307413101196
aF219.9390709400177
aF28.649187088012695
aF75.95201992988586
aF85.04491901397705
aF40.84921097755432
aF267.60163593292236
aF172.94113898277283
aF62.115018129348755
aF303.26852917671204
aF59.583701848983765
aF304.90983390808105
aF82.10977101325989
aF20.23738193511963
aF82.5832929611206
aF190.5117518901825
aF23.133682012557983
aF18.212918043136597
aF40.9961838722229
aF25.87906813621521
aF167.23795700073242
aF261.43712306022644
aF16.973095893859863
aF301.5722219944
aF79.03077912330627
aF91.28400802612305
aF311.41249799728394
aF231.76750779151917
aF29.576272010803223
aF301.0469241142273
aF17.110168933868408
aF230.00939202308655
aF151.47539520263672
aF301.3731439113617
aF302.71354508399963
aF68.76516890525818
aF303.28250002861023
aF60.46534204483032
aF47.28200006484985
aF129.49153685569763
aF301.5047948360443
aF27.774828910827637
aF34.83526802062988
aF250.02667593955994
aF158.81999683380127
aF23.974151134490967
aF20.716933012008667
aF141.4229860305786
aF304.34458899497986
aF300.0140118598938
aF272.7255218029022
aF30.671803951263428
aF303.79280495643616
aF54.26101517677307
aF47.09216904640198
aF300.30435013771057
aF58.04808497428894
aF145.24657821655273
aF38.091256856918335
aF22.4178409576416
aF29.691251039505005
aF21.962905883789062
aF68.98908996582031
aF105.63474893569946
aF23.40319013595581
aF69.53781795501709
aF130.50027298927307
aF102.38413190841675
aF32.5286340713501
aF273.432578086853
aF47.73026514053345
aF24.13518714904785
aF92.40908122062683
aF31.68662405014038
aF116.27708792686462
aF18.7727210521698
aF17.85094904899597
aF33.84541988372803
aF24.23012614250183
aF70.43119406700134
aF300.19637799263
aF305.0029640197754
aF95.25701403617859
aF66.04880404472351
aF78.7997658252716
aF300.0162789821625
aF27.346703052520752
aF22.2711980342865
aF41.64734601974487
aF95.7572729587555
aF95.35633301734924
aF75.32456684112549
aF109.00694513320923
aF31.34518599510193
aF55.9731650352478
aF272.39197301864624
aF76.98360013961792
aF303.82758116722107
aF49.153950929641724
aF283.26727509498596
aF101.1491379737854
aF135.94925999641418
aF31.604991912841797
aF303.67658281326294
aF37.55967712402344
aF68.10168099403381
aF25.331026792526245
aF45.77094602584839
aF157.1414520740509
aF18.52460813522339
aF46.097991943359375
aF24.4136221408844
aF29.997084856033325
aF92.85254001617432
aF20.331542015075684
aF216.5539538860321
aF21.280375957489014
aF35.030667781829834
aF217.79625916481018
aF179.72937107086182
aF301.45800495147705
aF97.55046010017395
aF245.86515498161316
aF201.31350898742676
aF47.67079210281372
aF39.99703502655029
aF19.01515793800354
aF300.61484599113464
aF136.08625411987305
aF79.93418312072754
aF303.89105796813965
aF58.839343786239624
aF60.015093088150024
aF41.48233699798584
aF36.77952790260315
aF149.5887520313263
aF79.51339793205261
aF70.7323808670044
aF47.43693399429321
aF160.63955402374268
aF300.49193501472473
aF21.758828163146973
aF159.37871098518372
aF28.265522003173828
aF53.19517493247986
aF306.1155300140381
aF60.37828207015991
aF18.38304305076599
aF20.76620602607727
aF138.1901671886444
aF24.845813035964966
aF47.87378787994385
aF20.82049012184143
aF30.783739805221558
aF20.101781129837036
aF86.26768589019775
aF19.192267894744873
aF120.91155409812927
aF233.34376883506775
aF39.637017011642456
aF216.39982509613037
aF300.5982940196991
aF128.75069093704224
aF19.10741400718689
aF164.76433110237122
aF303.50532507896423
aF196.58649921417236
aF48.54808688163757
aF33.45062589645386
aF300.7109899520874
aF35.47223782539368
aF134.2849841117859
aF30.101962089538574
aF108.050302028656
aF51.254202127456665
aF229.68184304237366
aF141.02293801307678
aF235.27372097969055
aF43.11917591094971
aF257.74387788772583
aF24.26121711730957
aF112.5497407913208
aF29.96842885017395
as.