(dp0
S'successes'
p1
(lp2
I00
aI01
aI00
aI01
aI00
asS'pidxs'
p3
(lp4
I20004
aI20003
aI20000
aI20002
aI20001
asS'plan_length'
p5
(lp6
I1
aI7
asS'num_nodes'
p7
(lp8
I52
aI2
aI22
aI37
aI41
asS'times'
p9
(lp10
F307.6493890285492
aF43.60146403312683
aF301.397527217865
aF233.9774191379547
aF303.29192304611206
as.