(dp0
S'successes'
p1
(lp2
I01
aI01
aI01
aI00
aI01
aI01
aI01
aI00
aI00
aI01
aI00
aI01
aI00
aI01
aI01
aI01
aI01
aI01
aI01
aI00
aI00
aI01
aI01
aI00
aI01
aI01
aI01
aI01
aI00
aI01
aI01
aI00
aI00
aI01
aI01
aI00
aI01
aI00
aI00
aI01
aI00
aI01
aI01
aI01
aI00
aI00
aI01
aI01
aI01
aI01
aI01
aI01
aI01
aI01
aI01
aI01
aI01
aI01
aI01
aI01
aI01
aI01
aI01
aI01
aI01
aI00
aI01
aI01
aI00
aI01
aI01
aI00
aI00
aI01
aI00
aI01
aI01
aI01
aI00
aI00
aI01
aI00
aI01
aI00
aI01
aI01
aI01
aI01
aI01
aI00
aI01
aI00
aI01
aI01
aI00
aI00
aI00
aI00
aI01
aI01
asS'pidxs'
p3
(lp4
I20002
aI20004
aI20003
aI20004
aI20011
aI20008
aI20016
aI20005
aI20004
aI20012
aI20015
aI20001
aI20000
aI20007
aI20014
aI20016
aI20010
aI20014
aI20018
aI20002
aI20005
aI20010
aI20017
aI20009
aI20014
aI20014
aI20013
aI20003
aI20019
aI20018
aI20009
aI20015
aI20006
aI20010
aI20002
aI20006
aI20011
aI20019
aI20009
aI20007
aI20019
aI20012
aI20008
aI20010
aI20011
aI20005
aI20008
aI20003
aI20017
aI20007
aI20019
aI20012
aI20005
aI20010
aI20013
aI20012
aI20008
aI20013
aI20018
aI20002
aI20007
aI20013
aI20016
aI20004
aI20001
aI20006
aI20018
aI20000
aI20009
aI20000
aI20008
aI20002
aI20015
aI20017
aI20004
aI20016
aI20003
aI20016
aI20001
aI20019
aI20012
aI20005
aI20018
aI20006
aI20014
aI20009
aI20017
aI20001
aI20000
aI20015
aI20003
aI20015
aI20013
aI20017
aI20006
aI20011
aI20001
aI20011
aI20000
aI20007
asS'plan_length'
p5
(lp6
I3
aI9
aI1
aI11
aI3
aI1
aI1
aI2
aI1
aI1
aI1
aI1
aI2
aI1
aI1
aI2
aI1
aI2
aI1
aI1
aI1
aI4
aI1
aI7
aI2
aI2
aI1
aI1
aI1
aI1
aI1
aI10
aI1
aI3
aI1
aI4
aI1
aI1
aI1
aI1
aI1
aI1
aI7
aI1
aI1
aI1
aI2
aI8
aI1
aI1
aI1
aI2
aI1
aI1
aI1
aI1
aI1
aI1
aI1
aI2
aI8
aI2
aI1
aI1
aI1
aI1
aI1
aI1
asS'num_nodes'
p7
(lp8
I14
aI59
aI2
aI78
aI67
aI13
aI2
aI32
aI34
aI2
aI77
aI8
aI7
aI2
aI2
aI2
aI2
aI3
aI2
aI63
aI59
aI2
aI3
aI43
aI2
aI3
aI2
aI2
aI0
aI2
aI20
aI73
aI68
aI2
aI31
aI71
aI7
aI5
aI10
aI3
aI4
aI2
aI2
aI2
aI63
aI31
aI2
aI2
aI47
aI2
aI8
aI2
aI17
aI2
aI2
aI2
aI2
aI2
aI2
aI37
aI2
aI2
aI2
aI8
aI43
aI80
aI2
aI2
aI39
aI2
aI6
aI45
aI34
aI2
aI39
aI2
aI2
aI2
aI12
aI0
aI2
aI70
aI2
aI49
aI2
aI7
aI51
aI6
aI2
aI87
aI2
aI34
aI2
aI2
aI86
aI89
aI20
aI46
aI2
aI2
asS'times'
p9
(lp10
F74.61068391799927
aF207.0691418647766
aF56.09986901283264
aF304.3194408416748
aF295.9920389652252
aF73.80663514137268
aF10.991600036621094
aF307.36896085739136
aF350.1401889324188
aF9.932929992675781
aF367.9205358028412
aF33.50843596458435
aF330.0475699901581
aF10.301657915115356
aF10.222003936767578
aF10.620633840560913
aF10.209421873092651
aF18.313595056533813
aF13.565011978149414
aF318.18296813964844
aF337.63101601600647
aF11.469061851501465
aF70.21636414527893
aF367.0254068374634
aF10.445328950881958
aF17.966928958892822
aF15.965713024139404
aF34.23684906959534
aF1341.3648030757904
aF11.638254880905151
aF222.11083984375
aF319.14463090896606
aF300.4295380115509
aF10.223556995391846
aF264.9262430667877
aF301.1053240299225
aF43.67632818222046
aF884.008542060852
aF318.6199369430542
aF19.34276008605957
aF442.6467020511627
aF10.147737979888916
aF30.829778909683228
aF10.42839503288269
aF319.0841271877289
aF446.05629992485046
aF34.18289303779602
aF219.57501101493835
aF245.48844289779663
aF10.943125009536743
aF182.96950101852417
aF10.124485969543457
aF58.31212306022644
aF10.43001103401184
aF12.064957857131958
aF10.339385986328125
aF55.8736469745636
aF34.303735971450806
aF12.322143793106079
aF161.1906578540802
aF10.339466094970703
aF13.919414043426514
aF10.827892065048218
aF29.4946129322052
aF252.23566794395447
aF301.0967209339142
aF19.07850408554077
aF82.04271602630615
aF631.213299036026
aF13.650393962860107
aF53.059906005859375
aF320.93734192848206
aF441.6760458946228
aF15.20839786529541
aF311.9184310436249
aF10.410869836807251
aF60.93251609802246
aF10.240707874298096
aF313.4207410812378
aF503.83218812942505
aF10.975189924240112
aF314.0124480724335
aF13.105252027511597
aF302.0021650791168
aF10.72904896736145
aF67.59748601913452
aF137.1968789100647
aF143.47731804847717
aF61.19106912612915
aF306.3972978591919
aF10.339510917663574
aF333.7989590167999
aF10.13082218170166
aF47.842324018478394
aF318.7873921394348
aF477.56363010406494
aF322.9371237754822
aF318.14025712013245
aF115.39782094955444
aF10.111250162124634
as.