(dp0
S'successes'
p1
(lp2
I01
aI01
aI01
aI01
aI01
aI01
aI01
aI01
aI01
aI00
aI01
aI01
aI01
aI01
aI01
aI01
aI01
aI01
aI01
aI01
aI01
aI01
aI01
aI01
aI01
aI01
aI01
aI01
aI01
aI01
aI01
aI01
aI01
aI01
aI01
aI01
aI01
aI01
aI01
aI01
aI01
aI01
aI01
aI01
aI01
aI01
aI00
aI00
aI01
aI01
aI01
aI01
aI01
aI01
aI01
aI01
aI01
aI00
aI01
aI01
aI01
aI01
aI01
aI00
aI01
aI01
aI01
aI00
aI01
aI01
aI00
aI01
aI01
aI01
aI00
aI00
aI01
aI01
aI01
aI00
aI01
aI01
aI01
aI01
aI01
aI01
aI01
aI01
aI01
aI01
aI01
aI01
aI01
aI00
aI01
aI01
aI01
aI01
aI01
aI01
aI01
aI01
aI01
aI01
aI01
aI01
aI01
aI01
aI01
aI01
aI01
aI01
aI01
aI01
aI01
aI01
aI01
aI01
aI01
aI01
aI01
aI01
aI01
aI01
aI01
aI01
aI01
aI01
aI00
aI01
aI01
aI00
aI01
aI01
aI01
aI01
aI01
aI01
aI01
aI01
aI01
aI01
aI01
aI01
aI01
aI01
aI00
aI01
aI01
aI01
aI01
aI01
aI01
aI01
aI01
aI01
aI01
aI00
aI01
aI01
aI01
aI01
aI01
aI00
aI01
aI01
aI01
aI01
aI01
aI01
aI01
aI01
aI01
aI01
aI01
aI01
aI01
aI01
aI01
aI01
aI01
aI01
aI01
aI01
aI01
aI01
aI01
aI01
aI01
aI00
aI01
aI01
aI01
aI01
aI01
aI01
aI01
aI01
aI01
aI01
aI01
aI01
aI01
aI01
aI01
aI01
aI01
aI01
aI01
aI01
aI01
aI01
aI01
aI01
aI00
aI00
aI01
aI01
aI01
aI01
aI01
aI01
aI01
aI01
aI01
aI01
aI01
aI01
aI01
aI01
aI00
aI01
aI01
aI00
aI01
aI01
aI01
aI01
aI01
aI01
aI01
aI01
aI01
aI01
aI01
aI01
aI01
aI01
aI01
aI00
aI01
aI01
aI01
aI00
aI01
aI01
aI01
aI01
aI01
aI00
aI01
aI01
aI01
aI01
aI01
aI01
aI01
aI01
aI01
aI01
aI01
aI01
aI01
aI01
aI01
aI01
aI01
aI01
aI01
aI00
aI01
aI01
aI01
aI01
aI01
aI01
aI01
aI01
aI01
aI01
aI01
aI01
aI01
aI00
aI01
aI01
aI01
aI00
aI01
aI01
aI01
aI01
aI01
aI01
aI01
aI01
aI01
aI01
aI01
aI00
aI01
aI01
aI01
aI01
aI01
aI01
aI01
aI01
aI01
aI01
aI01
aI01
aI01
aI01
aI01
aI01
aI01
aI01
aI01
aI01
aI01
aI01
aI01
aI01
aI01
aI01
aI01
aI01
aI01
aI01
aI01
aI01
aI01
aI01
aI01
aI01
aI01
aI01
aI01
aI01
aI01
aI01
aI01
aI01
aI01
aI01
aI01
aI01
aI01
aI00
aI01
aI01
aI01
aI01
aI01
aI01
aI01
aI01
aI01
aI01
aI01
aI01
aI01
aI01
aI01
aI01
aI01
aI01
aI01
aI01
aI01
aI01
aI01
aI01
aI01
aI01
aI01
aI01
aI01
aI01
aI01
aI01
aI01
aI01
aI01
aI01
aI01
aI01
aI01
aI01
aI01
aI00
aI01
aI01
aI01
aI01
aI01
aI01
aI01
aI00
aI01
aI01
aI01
aI01
asS'pidxs'
p3
(lp4
I20069
aI20045
aI20074
aI20096
aI20003
aI20038
aI20098
aI20080
aI20000
aI20053
aI20028
aI20040
aI20044
aI20039
aI20036
aI20000
aI20067
aI20090
aI20069
aI20066
aI20070
aI20093
aI20013
aI20074
aI20079
aI20035
aI20055
aI20057
aI20073
aI20070
aI20090
aI20017
aI20078
aI20058
aI20004
aI20044
aI20074
aI20077
aI20056
aI20012
aI20009
aI20025
aI20041
aI20070
aI20054
aI20006
aI20071
aI20043
aI20058
aI20095
aI20086
aI20033
aI20065
aI20001
aI20040
aI20016
aI20071
aI20013
aI20099
aI20044
aI20010
aI20016
aI20018
aI20092
aI20098
aI20067
aI20014
aI20026
aI20051
aI20089
aI20010
aI20037
aI20043
aI20001
aI20028
aI20033
aI20088
aI20068
aI20009
aI20039
aI20081
aI20044
aI20034
aI20047
aI20058
aI20008
aI20018
aI20082
aI20025
aI20009
aI20079
aI20048
aI20055
aI20031
aI20091
aI20064
aI20008
aI20001
aI20086
aI20012
aI20065
aI20052
aI20064
aI20079
aI20055
aI20032
aI20004
aI20013
aI20048
aI20034
aI20091
aI20048
aI20007
aI20099
aI20065
aI20073
aI20060
aI20064
aI20089
aI20030
aI20056
aI20060
aI20086
aI20034
aI20071
aI20019
aI20006
aI20095
aI20042
aI20091
aI20044
aI20036
aI20037
aI20018
aI20092
aI20091
aI20086
aI20071
aI20075
aI20039
aI20028
aI20025
aI20040
aI20077
aI20064
aI20045
aI20089
aI20010
aI20052
aI20069
aI20083
aI20026
aI20003
aI20065
aI20052
aI20008
aI20070
aI20054
aI20028
aI20085
aI20036
aI20072
aI20005
aI20031
aI20005
aI20078
aI20068
aI20079
aI20060
aI20084
aI20075
aI20087
aI20039
aI20055
aI20061
aI20087
aI20000
aI20048
aI20070
aI20029
aI20068
aI20078
aI20061
aI20050
aI20026
aI20002
aI20062
aI20010
aI20006
aI20093
aI20076
aI20035
aI20012
aI20088
aI20050
aI20006
aI20021
aI20032
aI20000
aI20022
aI20051
aI20032
aI20083
aI20081
aI20088
aI20038
aI20076
aI20053
aI20033
aI20029
aI20008
aI20025
aI20087
aI20074
aI20020
aI20078
aI20035
aI20099
aI20019
aI20006
aI20069
aI20045
aI20016
aI20045
aI20040
aI20071
aI20041
aI20031
aI20083
aI20055
aI20041
aI20084
aI20058
aI20034
aI20043
aI20063
aI20086
aI20025
aI20020
aI20096
aI20017
aI20014
aI20083
aI20089
aI20050
aI20027
aI20050
aI20029
aI20056
aI20053
aI20092
aI20030
aI20020
aI20042
aI20095
aI20035
aI20047
aI20028
aI20030
aI20031
aI20014
aI20021
aI20036
aI20002
aI20098
aI20062
aI20047
aI20026
aI20079
aI20009
aI20009
aI20021
aI20085
aI20038
aI20060
aI20020
aI20013
aI20031
aI20019
aI20053
aI20005
aI20068
aI20067
aI20022
aI20056
aI20072
aI20065
aI20022
aI20093
aI20095
aI20075
aI20005
aI20002
aI20092
aI20082
aI20093
aI20038
aI20077
aI20096
aI20060
aI20022
aI20081
aI20015
aI20007
aI20061
aI20051
aI20015
aI20027
aI20069
aI20032
aI20053
aI20034
aI20018
aI20090
aI20002
aI20068
aI20073
aI20043
aI20047
aI20016
aI20026
aI20077
aI20048
aI20083
aI20090
aI20082
aI20062
aI20095
aI20001
aI20033
aI20016
aI20004
aI20075
aI20072
aI20019
aI20012
aI20087
aI20051
aI20064
aI20021
aI20043
aI20012
aI20058
aI20087
aI20005
aI20054
aI20098
aI20004
aI20003
aI20018
aI20032
aI20054
aI20033
aI20037
aI20015
aI20002
aI20027
aI20029
aI20036
aI20092
aI20010
aI20003
aI20076
aI20041
aI20075
aI20038
aI20039
aI20050
aI20052
aI20052
aI20090
aI20063
aI20082
aI20021
aI20040
aI20067
aI20003
aI20084
aI20030
aI20046
aI20020
aI20046
aI20082
aI20030
aI20014
aI20072
aI20008
aI20096
aI20091
aI20056
aI20004
aI20076
aI20054
aI20047
aI20078
aI20062
aI20062
aI20089
aI20076
aI20015
aI20035
aI20077
aI20067
aI20096
aI20029
aI20019
aI20001
aI20041
aI20000
aI20093
aI20045
aI20037
aI20014
aI20013
asS'plan_length'
p5
(lp6
I33
aI12
aI63
aI9
aI1
aI1
aI6
aI2
aI43
aI39
aI9
aI9
aI26
aI2
aI10
aI3
aI8
aI12
aI1
aI8
aI22
aI1
aI1
aI3
aI1
aI3
aI1
aI1
aI6
aI22
aI18
aI38
aI6
aI2
aI11
aI3
aI6
aI9
aI2
aI3
aI6
aI38
aI18
aI3
aI4
aI12
aI1
aI13
aI2
aI2
aI1
aI18
aI9
aI2
aI7
aI7
aI1
aI28
aI23
aI21
aI4
aI8
aI12
aI2
aI3
aI31
aI7
aI16
aI1
aI4
aI3
aI5
aI7
aI5
aI4
aI5
aI2
aI30
aI2
aI11
aI2
aI6
aI1
aI4
aI25
aI12
aI31
aI24
aI3
aI5
aI23
aI3
aI1
aI2
aI51
aI7
aI2
aI1
aI7
aI1
aI1
aI2
aI26
aI4
aI23
aI15
aI4
aI1
aI22
aI8
aI2
aI3
aI7
aI6
aI1
aI4
aI4
aI2
aI8
aI5
aI1
aI15
aI1
aI2
aI2
aI26
aI14
aI18
aI8
aI13
aI23
aI4
aI1
aI2
aI5
aI22
aI10
aI4
aI1
aI32
aI54
aI8
aI3
aI19
aI18
aI4
aI1
aI5
aI3
aI3
aI9
aI1
aI4
aI1
aI15
aI6
aI13
aI18
aI2
aI5
aI31
aI1
aI5
aI10
aI4
aI10
aI4
aI17
aI6
aI11
aI3
aI3
aI51
aI6
aI3
aI4
aI33
aI9
aI29
aI4
aI26
aI11
aI27
aI13
aI7
aI1
aI1
aI8
aI1
aI22
aI14
aI6
aI15
aI4
aI7
aI1
aI3
aI53
aI2
aI17
aI2
aI9
aI2
aI29
aI2
aI7
aI1
aI28
aI17
aI25
aI1
aI4
aI9
aI7
aI7
aI43
aI6
aI7
aI2
aI4
aI2
aI2
aI2
aI4
aI3
aI33
aI9
aI11
aI15
aI15
aI5
aI1
aI1
aI20
aI19
aI28
aI13
aI3
aI5
aI2
aI4
aI3
aI35
aI6
aI4
aI9
aI2
aI9
aI3
aI6
aI28
aI9
aI2
aI3
aI14
aI8
aI3
aI6
aI1
aI36
aI1
aI32
aI2
aI26
aI2
aI3
aI10
aI13
aI3
aI2
aI3
aI1
aI9
aI3
aI2
aI20
aI3
aI6
aI36
aI7
aI4
aI36
aI15
aI20
aI3
aI3
aI3
aI1
aI2
aI13
aI5
aI14
aI8
aI24
aI1
aI10
aI9
aI6
aI61
aI7
aI2
aI1
aI6
aI4
aI15
aI7
aI1
aI1
aI2
aI13
aI2
aI2
aI51
aI3
aI7
aI5
aI2
aI5
aI2
aI6
aI1
aI29
aI26
aI50
aI7
aI6
aI13
aI20
aI14
aI22
aI2
aI9
aI1
aI26
aI34
aI5
aI1
aI26
aI11
aI41
aI36
aI32
aI32
aI3
aI10
aI7
aI17
aI1
aI4
aI8
aI13
aI15
aI1
aI1
aI13
aI3
aI3
aI3
aI1
aI4
aI31
aI2
aI8
aI7
aI3
aI3
aI17
aI12
aI1
aI2
aI1
aI2
aI54
aI4
aI10
aI6
aI3
aI16
aI23
aI19
aI9
aI1
aI21
asS'num_nodes'
p7
(lp8
I119
aI34
aI80
aI15
aI2
aI2
aI8
aI7
aI60
aI70
aI56
aI63
aI22
aI45
aI5
aI17
aI6
aI12
aI16
aI2
aI14
aI50
aI45
aI2
aI5
aI2
aI6
aI2
aI3
aI9
aI41
aI29
aI44
aI8
aI3
aI18
aI4
aI13
aI27
aI3
aI13
aI9
aI56
aI22
aI5
aI18
aI92
aI71
aI18
aI2
aI26
aI258
aI12
aI3
aI56
aI21
aI4
aI112
aI16
aI13
aI2
aI66
aI32
aI84
aI74
aI9
aI12
aI90
aI16
aI3
aI103
aI7
aI63
aI18
aI89
aI392
aI17
aI4
aI24
aI99
aI4
aI10
aI24
aI19
aI7
aI10
aI8
aI33
aI4
aI26
aI5
aI7
aI2
aI79
aI11
aI45
aI39
aI52
aI25
aI5
aI7
aI28
aI11
aI2
aI4
aI95
aI9
aI11
aI3
aI8
aI3
aI3
aI3
aI57
aI7
aI59
aI40
aI7
aI2
aI36
aI14
aI39
aI8
aI13
aI13
aI2
aI9
aI8
aI86
aI5
aI52
aI80
aI8
aI3
aI21
aI3
aI16
aI14
aI69
aI25
aI32
aI15
aI64
aI44
aI20
aI3
aI85
aI5
aI6
aI30
aI11
aI6
aI2
aI62
aI72
aI35
aI5
aI105
aI26
aI43
aI6
aI2
aI6
aI95
aI4
aI5
aI69
aI2
aI35
aI3
aI32
aI10
aI25
aI28
aI3
aI7
aI42
aI3
aI7
aI30
aI11
aI13
aI5
aI22
aI18
aI17
aI5
aI15
aI77
aI72
aI19
aI17
aI5
aI67
aI15
aI63
aI8
aI63
aI15
aI42
aI31
aI57
aI4
aI2
aI12
aI2
aI33
aI38
aI251
aI23
aI6
aI21
aI4
aI4
aI76
aI78
aI76
aI5
aI30
aI4
aI11
aI4
aI67
aI15
aI11
aI5
aI75
aI35
aI41
aI2
aI98
aI28
aI32
aI92
aI10
aI8
aI106
aI11
aI8
aI8
aI5
aI5
aI14
aI4
aI16
aI4
aI77
aI17
aI20
aI135
aI17
aI26
aI6
aI91
aI2
aI2
aI46
aI34
aI49
aI105
aI29
aI5
aI12
aI3
aI7
aI6
aI60
aI37
aI6
aI17
aI5
aI11
aI5
aI8
aI61
aI18
aI12
aI8
aI31
aI144
aI9
aI9
aI11
aI4
aI40
aI2
aI84
aI4
aI47
aI4
aI9
aI12
aI19
aI71
aI7
aI10
aI6
aI88
aI2
aI43
aI7
aI3
aI42
aI12
aI10
aI82
aI13
aI5
aI48
aI141
aI49
aI29
aI5
aI7
aI4
aI5
aI4
aI17
aI7
aI32
aI20
aI34
aI4
aI31
aI30
aI32
aI82
aI20
aI5
aI21
aI13
aI8
aI25
aI15
aI2
aI3
aI6
aI15
aI6
aI8
aI66
aI6
aI10
aI25
aI4
aI21
aI3
aI24
aI2
aI46
aI53
aI55
aI180
aI9
aI32
aI60
aI25
aI27
aI3
aI91
aI13
aI2
aI34
aI50
aI13
aI2
aI52
aI14
aI70
aI50
aI53
aI58
aI7
aI28
aI26
aI37
aI2
aI7
aI18
aI33
aI43
aI2
aI2
aI17
aI5
aI5
aI7
aI2
aI10
aI34
aI4
aI9
aI10
aI24
aI5
aI43
aI19
aI2
aI4
aI4
aI4
aI87
aI71
aI7
aI17
aI12
aI9
aI29
aI29
aI74
aI43
aI25
aI2
aI63
asS'times'
p9
(lp10
F247.78429102897644
aF78.42898607254028
aF280.7979271411896
aF48.732604026794434
aF15.971190929412842
aF25.062329053878784
aF42.67882800102234
aF23.131195068359375
aF201.97440910339355
aF300.28448009490967
aF193.41391515731812
aF111.88267421722412
aF55.358596086502075
aF147.43358612060547
aF25.959635019302368
aF58.285012006759644
aF29.001687049865723
aF53.936254024505615
aF63.94542098045349
aF16.45284605026245
aF51.853533029556274
aF128.13016200065613
aF74.85030102729797
aF23.92788004875183
aF33.206552028656006
aF16.7502920627594
aF27.000128030776978
aF41.99063181877136
aF17.83161187171936
aF39.18478012084961
aF133.92300510406494
aF104.97938895225525
aF176.2882649898529
aF43.84366703033447
aF20.64259099960327
aF62.62704396247864
aF28.557061195373535
aF53.7771680355072
aF73.12628602981567
aF19.123288869857788
aF40.44195103645325
aF42.41726994514465
aF177.29589986801147
aF89.59660196304321
aF31.044553995132446
aF50.86520981788635
aF304.31754302978516
aF303.8460741043091
aF77.5961799621582
aF22.449342966079712
aF90.80896210670471
aF217.12286520004272
aF35.26821303367615
aF21.60103487968445
aF127.78507494926453
aF55.10819101333618
aF21.9186909198761
aF302.560791015625
aF63.20470190048218
aF46.632795095443726
aF18.431566953659058
aF169.1425120830536
aF120.3142020702362
aF300.8645100593567
aF159.55402302742004
aF31.060317993164062
aF54.95878314971924
aF303.0719470977783
aF67.32249402999878
aF23.10414481163025
aF304.1500861644745
aF26.67976689338684
aF169.01960015296936
aF58.712188959121704
aF300.64353704452515
aF300.61246705055237
aF80.721599817276
aF16.664008140563965
aF53.924885988235474
aF301.28773188591003
aF28.45924997329712
aF37.87581205368042
aF61.25748300552368
aF58.27304196357727
aF33.17231607437134
aF37.72837591171265
aF33.850484132766724
aF149.9683620929718
aF23.80943512916565
aF77.83336997032166
aF24.253381967544556
aF38.806061029434204
aF21.710875988006592
aF301.36249899864197
aF35.64980697631836
aF138.2033088207245
aF100.80314993858337
aF169.3818199634552
aF104.62913393974304
aF26.043878078460693
aF39.972458839416504
aF118.87190198898315
aF28.82979989051819
aF18.01643204689026
aF22.00447988510132
aF299.8344421386719
aF44.521141052246094
aF30.94501519203186
aF19.519680976867676
aF41.310222148895264
aF16.348220109939575
aF18.79591703414917
aF22.453763961791992
aF153.64706301689148
aF36.46373391151428
aF170.34356212615967
aF102.73030304908752
aF31.754971027374268
aF20.499079942703247
aF138.69274497032166
aF45.24668598175049
aF55.40810203552246
aF27.863999128341675
aF48.13314604759216
aF45.18354606628418
aF19.22051215171814
aF40.210001945495605
aF63.24703907966614
aF302.04287910461426
aF21.57042121887207
aF87.82165384292603
aF302.7594518661499
aF37.53168988227844
aF18.171849966049194
aF79.20419788360596
aF15.617753028869629
aF35.03264498710632
aF39.669925928115845
aF158.64702916145325
aF80.25608205795288
aF107.0798270702362
aF45.88969016075134
aF120.38635897636414
aF154.69373202323914
aF43.82280683517456
aF17.801866054534912
aF301.7201919555664
aF30.335397005081177
aF34.01894211769104
aF110.82927703857422
aF63.11957097053528
aF32.94940209388733
aF16.55546808242798
aF194.5393087863922
aF263.85140800476074
aF75.19834804534912
aF28.38871717453003
aF303.87977600097656
aF107.5921139717102
aF117.2042441368103
aF30.47039794921875
aF18.672758102416992
aF38.18616795539856
aF301.03885793685913
aF25.40841007232666
aF40.45319890975952
aF114.50420999526978
aF15.083209037780762
aF63.552743911743164
aF19.933146953582764
aF87.88409805297852
aF36.86710286140442
aF80.39146089553833
aF91.47531986236572
aF23.871888160705566
aF35.23205900192261
aF151.30523991584778
aF23.19715714454651
aF37.78985905647278
aF76.76606106758118
aF35.265470027923584
aF51.45824408531189
aF32.18354105949402
aF82.7725019454956
aF48.801724910736084
aF64.34230303764343
aF25.27668786048889
aF52.5547730922699
aF242.63864588737488
aF303.82560992240906
aF58.7207977771759
aF68.15556502342224
aF30.052048921585083
aF187.7497899532318
aF56.69368505477905
aF184.68778610229492
aF43.49498796463013
aF176.66164803504944
aF74.61662101745605
aF144.08903002738953
aF89.4880199432373
aF105.23757290840149
aF19.952744960784912
aF20.40697479248047
aF49.09047293663025
aF22.23279905319214
aF111.96525692939758
aF99.06481385231018
aF218.33351707458496
aF82.23264384269714
aF33.15136909484863
aF58.70283102989197
aF17.953382968902588
aF27.125259160995483
aF302.447557926178
aF300.14304995536804
aF259.692645072937
aF25.20809006690979
aF94.90133595466614
aF23.349443912506104
aF50.99438786506653
aF22.666756868362427
aF163.77023005485535
aF33.794013023376465
aF41.82131791114807
aF20.84903120994568
aF183.31939697265625
aF91.73457598686218
aF128.51912307739258
aF17.09382700920105
aF301.84653306007385
aF69.0768690109253
aF127.37530303001404
aF300.0991699695587
aF46.38306713104248
aF41.337034940719604
aF245.58372688293457
aF74.24003791809082
aF52.79521703720093
aF31.840094089508057
aF30.374615907669067
aF20.97991704940796
aF31.094374895095825
aF19.065986156463623
aF50.53075289726257
aF24.071879148483276
aF215.54346203804016
aF58.49384689331055
aF71.77661991119385
aF308.10275506973267
aF72.69197392463684
aF88.54417395591736
aF37.27228093147278
aF301.71421098709106
aF17.887298107147217
aF16.49403691291809
aF137.86712312698364
aF96.46964693069458
aF168.7741379737854
aF302.39991307258606
aF79.68298101425171
aF26.948814868927002
aF39.2467679977417
aF32.03282904624939
aF42.11803913116455
aF24.990926027297974
aF184.3080689907074
aF67.31426906585693
aF30.138123035430908
aF53.92314291000366
aF21.81023097038269
aF50.71787691116333
aF29.928464889526367
aF43.46430492401123
aF168.5827989578247
aF74.65251898765564
aF38.40499782562256
aF27.651373863220215
aF91.51017999649048
aF300.6800470352173
aF42.02390694618225
aF25.999738931655884
aF38.894891023635864
aF20.767059803009033
aF161.53847122192383
aF20.291545152664185
aF209.32793402671814
aF24.994119882583618
aF163.8864049911499
aF28.264626026153564
aF35.06119418144226
aF57.920257806777954
aF66.4977080821991
aF304.1581130027771
aF30.705991983413696
aF32.232073068618774
aF29.083972930908203
aF304.9285089969635
aF16.240146160125732
aF80.42660593986511
aF29.443986892700195
aF24.03896999359131
aF124.06117701530457
aF38.1395800113678
aF35.13253211975098
aF246.55757188796997
aF47.47653603553772
aF29.3875150680542
aF180.63592505455017
aF301.2928669452667
aF157.93200707435608
aF124.38787317276001
aF31.33273696899414
aF29.722575902938843
aF31.662895917892456
aF17.466197967529297
aF22.89724588394165
aF67.57886099815369
aF36.066421031951904
aF79.84311103820801
aF57.35898685455322
aF202.12557792663574
aF18.421660900115967
aF71.5983829498291
aF77.56861305236816
aF63.611392974853516
aF299.10215997695923
aF51.54813885688782
aF25.95526695251465
aF27.983942985534668
aF43.37900900840759
aF36.253671169281006
aF92.27334308624268
aF57.90114712715149
aF17.212451934814453
aF14.59338116645813
aF20.04719591140747
aF69.28071999549866
aF25.967557191848755
aF25.91295313835144
aF248.72752404212952
aF30.95290994644165
aF45.394469022750854
aF48.84841299057007
aF25.85309886932373
aF64.3015501499176
aF22.271769046783447
aF56.55327105522156
aF17.178969144821167
aF159.05058217048645
aF149.5910849571228
aF244.1017200946808
aF192.9220130443573
aF41.72292113304138
aF94.60987496376038
aF143.19912099838257
aF82.88137292861938
aF120.83790111541748
aF21.346518993377686
aF301.6386671066284
aF54.346861124038696
aF17.526402950286865
aF131.68162512779236
aF169.44017004966736
aF38.50857210159302
aF20.69344210624695
aF151.74840998649597
aF60.852638959884644
aF219.13336086273193
aF187.46175909042358
aF154.17807412147522
aF178.5998899936676
aF28.573033094406128
aF92.55733609199524
aF60.68522882461548
aF109.81596803665161
aF16.07887315750122
aF43.650989055633545
aF62.474807024002075
aF95.31828093528748
aF117.70447087287903
aF19.878804922103882
aF20.196153163909912
aF74.95946598052979
aF28.71754288673401
aF27.06150984764099
aF33.428000926971436
aF19.656391143798828
aF50.47010898590088
aF139.787446975708
aF24.39856791496277
aF52.63806986808777
aF61.568947076797485
aF64.29731011390686
aF33.66732096672058
aF115.63915491104126
aF64.30990505218506
aF17.11504602432251
aF22.490725994110107
aF20.64257001876831
aF22.205363988876343
aF300.15585708618164
aF261.40189003944397
aF33.37083101272583
aF60.42527794837952
aF40.178690910339355
aF31.59969401359558
aF89.78369092941284
aF118.47712111473083
aF300.5079538822174
aF119.28356599807739
aF87.41181182861328
aF17.0001060962677
aF154.4152009487152
as.