(dp0
S'successes'
p1
(lp2
I01
aI01
aI01
aI01
aI01
aI01
aI01
aI01
aI01
aI01
aI01
aI01
aI01
aI01
aI01
aI01
aI01
aI01
aI01
aI01
aI01
aI01
aI01
aI01
aI01
aI01
aI01
aI01
aI01
aI01
aI01
aI01
aI01
aI01
aI01
aI01
aI01
aI01
aI01
aI01
aI01
aI01
aI01
aI01
aI01
aI01
aI01
aI01
aI01
aI01
aI01
aI01
aI01
aI01
aI01
aI01
aI00
aI01
aI01
aI01
aI01
aI01
aI01
aI01
aI01
aI01
aI01
aI01
aI01
aI01
aI01
aI01
aI01
aI01
aI01
aI01
aI01
aI01
aI01
aI01
aI01
aI01
aI01
aI01
aI01
aI01
aI01
aI01
aI01
aI01
aI01
aI01
aI01
aI01
aI01
aI01
aI01
aI01
aI01
aI01
aI01
aI01
aI01
aI01
aI01
aI01
aI01
aI01
aI01
aI01
aI01
aI01
aI01
aI01
aI01
aI01
aI01
aI01
aI01
aI01
aI01
aI00
aI01
aI01
aI01
aI01
aI01
aI01
aI01
aI01
aI01
aI01
aI01
aI01
aI01
aI01
aI01
aI01
aI01
aI01
aI01
aI01
aI01
aI01
aI01
aI01
aI01
aI01
aI01
aI01
aI01
aI01
aI01
aI01
aI01
aI01
aI01
aI01
aI01
aI01
aI01
aI01
aI01
aI01
aI01
aI01
aI01
aI01
aI01
aI01
aI01
aI01
aI01
aI01
aI01
aI01
aI01
aI01
aI01
aI01
aI01
aI01
aI01
aI01
aI01
aI01
aI01
aI01
aI01
aI01
aI01
aI01
aI01
aI01
aI01
aI01
aI01
aI01
aI01
aI01
aI01
aI01
aI01
aI01
aI01
aI01
aI01
aI01
aI01
aI00
aI01
aI01
aI01
aI01
aI01
aI01
aI01
aI01
aI01
aI01
aI01
aI01
aI01
aI01
aI01
aI01
aI01
aI01
aI01
aI01
aI01
aI01
aI01
aI01
aI01
aI01
aI00
aI01
aI01
aI01
aI01
aI01
aI01
aI01
aI01
aI01
aI01
aI01
aI01
aI01
aI01
aI01
aI01
aI01
aI01
aI01
aI01
aI01
aI01
aI01
aI01
aI01
aI01
aI01
aI01
aI01
aI01
aI01
aI01
aI01
aI01
aI01
aI01
aI01
aI01
aI01
aI01
aI01
aI01
aI01
aI01
aI01
aI01
aI01
aI01
aI01
aI01
aI01
aI01
aI01
aI01
aI01
aI01
aI01
aI01
aI01
aI01
aI01
aI01
aI01
aI01
aI01
aI01
aI01
aI01
aI01
aI01
aI01
aI01
aI01
aI01
aI01
aI01
aI01
aI01
aI01
aI01
aI01
aI01
aI01
aI01
aI01
aI01
aI01
aI01
aI01
aI01
aI01
aI01
aI01
aI01
aI01
aI01
aI01
aI01
aI01
aI01
aI01
aI01
aI01
aI01
aI01
aI01
aI01
aI01
aI01
aI01
aI01
aI01
aI01
aI01
aI01
aI01
aI01
aI01
aI01
aI01
aI01
aI01
aI01
aI01
aI01
aI01
aI01
aI01
aI01
aI01
aI01
aI01
aI01
aI01
aI01
aI01
aI01
aI01
aI01
aI01
aI01
aI01
aI01
aI01
aI00
aI01
aI01
aI01
aI01
aI01
aI01
aI01
aI01
aI01
aI01
aI01
aI01
aI01
aI01
aI01
aI01
aI01
aI01
aI01
aI01
aI01
aI01
aI01
aI01
asS'plan_length'
p3
(lp4
I53
aI104
aI43
aI33
aI27
aI26
aI64
aI81
aI99
aI368
aI29
aI171
aI82
aI22
aI106
aI108
aI48
aI126
aI106
aI117
aI45
aI20
aI19
aI91
aI109
aI25
aI41
aI35
aI52
aI164
aI109
aI213
aI166
aI75
aI193
aI30
aI99
aI127
aI26
aI83
aI74
aI114
aI62
aI36
aI76
aI17
aI166
aI131
aI82
aI73
aI87
aI290
aI51
aI16
aI39
aI10
aI10
aI30
aI24
aI58
aI137
aI23
aI9
aI38
aI67
aI186
aI159
aI35
aI32
aI10
aI40
aI28
aI25
aI74
aI17
aI41
aI39
aI73
aI18
aI134
aI37
aI49
aI65
aI87
aI21
aI118
aI163
aI65
aI23
aI96
aI113
aI85
aI185
aI53
aI86
aI57
aI31
aI25
aI119
aI136
aI67
aI33
aI64
aI17
aI31
aI62
aI41
aI109
aI78
aI27
aI45
aI7
aI90
aI103
aI84
aI120
aI57
aI48
aI22
aI100
aI33
aI33
aI18
aI44
aI33
aI73
aI31
aI192
aI31
aI153
aI55
aI36
aI21
aI58
aI16
aI74
aI62
aI100
aI148
aI87
aI14
aI19
aI61
aI155
aI127
aI116
aI141
aI70
aI92
aI35
aI104
aI238
aI53
aI40
aI18
aI320
aI31
aI84
aI15
aI70
aI40
aI52
aI35
aI20
aI39
aI173
aI47
aI136
aI43
aI57
aI33
aI65
aI63
aI15
aI68
aI195
aI83
aI57
aI125
aI27
aI92
aI134
aI40
aI65
aI55
aI35
aI43
aI90
aI28
aI29
aI96
aI18
aI64
aI187
aI29
aI67
aI13
aI48
aI93
aI102
aI31
aI44
aI47
aI270
aI21
aI154
aI45
aI19
aI42
aI42
aI17
aI192
aI46
aI121
aI59
aI98
aI30
aI119
aI30
aI60
aI25
aI27
aI29
aI143
aI36
aI68
aI109
aI97
aI36
aI27
aI89
aI255
aI10
aI143
aI28
aI90
aI90
aI66
aI55
aI54
aI66
aI33
aI61
aI101
aI28
aI34
aI40
aI18
aI84
aI35
aI20
aI122
aI11
aI24
aI184
aI140
aI29
aI94
aI53
aI34
aI32
aI16
aI32
aI63
aI49
aI20
aI17
aI28
aI81
aI54
aI158
aI43
aI113
aI194
aI91
aI78
aI11
aI40
aI65
aI17
aI71
aI73
aI153
aI124
aI27
aI43
aI27
aI38
aI15
aI32
aI74
aI68
aI16
aI19
aI15
aI53
aI220
aI41
aI65
aI27
aI187
aI65
aI92
aI79
aI39
aI63
aI20
aI63
aI38
aI39
aI37
aI113
aI63
aI34
aI49
aI69
aI100
aI52
aI43
aI66
aI33
aI57
aI18
aI49
aI123
aI71
aI73
aI136
aI10
aI44
aI23
aI229
aI18
aI15
aI115
aI52
aI181
aI131
aI102
aI142
aI14
aI175
aI62
aI40
aI26
aI14
aI69
aI74
aI54
aI38
aI13
aI61
aI51
aI45
aI87
aI78
aI66
aI45
aI14
aI43
aI23
aI150
aI13
aI15
aI32
aI116
aI117
aI45
aI96
aI40
aI98
aI79
aI27
aI63
aI98
aI263
aI52
aI17
aI73
aI98
aI41
aI41
aI27
aI22
aI33
aI28
aI33
aI217
aI53
aI74
aI26
aI24
aI36
aI34
aI83
aI23
aI68
aI23
aI40
aI51
aI23
aI220
aI135
aI12
aI29
aI149
asS'num_nodes'
p5
(lp6
I169
aI357
aI203
aI72
aI169
aI133
aI302
aI295
aI349
aI737
aI199
aI341
aI144
aI69
aI310
aI234
aI224
aI381
aI480
aI206
aI245
aI40
aI78
aI365
aI318
aI313
aI274
aI83
aI196
aI447
aI274
aI1242
aI817
aI145
aI400
aI87
aI741
aI505
aI80
aI312
aI401
aI427
aI283
aI297
aI340
aI71
aI529
aI580
aI248
aI200
aI263
aI897
aI160
aI39
aI202
aI58
aI1163
aI131
aI87
aI235
aI302
aI106
aI18
aI227
aI309
aI789
aI648
aI115
aI221
aI46
aI274
aI59
aI106
aI260
aI79
aI125
aI175
aI180
aI41
aI483
aI192
aI144
aI284
aI148
aI132
aI321
aI291
aI118
aI66
aI304
aI469
aI477
aI444
aI148
aI365
aI159
aI107
aI120
aI257
aI717
aI325
aI157
aI235
aI86
aI190
aI207
aI102
aI362
aI302
aI144
aI216
aI18
aI352
aI232
aI433
aI409
aI118
aI80
aI105
aI422
aI244
aI1009
aI153
aI226
aI115
aI139
aI159
aI650
aI188
aI325
aI221
aI233
aI61
aI144
aI71
aI488
aI326
aI408
aI793
aI442
aI72
aI90
aI230
aI365
aI501
aI391
aI249
aI409
aI218
aI83
aI500
aI557
aI213
aI186
aI44
aI613
aI148
aI190
aI40
aI107
aI346
aI220
aI126
aI61
aI232
aI591
aI60
aI273
aI158
aI156
aI88
aI257
aI170
aI30
aI157
aI680
aI362
aI298
aI472
aI69
aI602
aI302
aI187
aI134
aI152
aI136
aI325
aI391
aI91
aI92
aI289
aI117
aI247
aI932
aI107
aI238
aI23
aI114
aI370
aI432
aI150
aI173
aI185
aI780
aI60
aI724
aI847
aI87
aI318
aI915
aI135
aI590
aI196
aI398
aI197
aI487
aI158
aI264
aI149
aI277
aI84
aI72
aI209
aI402
aI106
aI192
aI310
aI536
aI115
aI121
aI156
aI650
aI34
aI384
aI81
aI471
aI1013
aI311
aI175
aI265
aI234
aI192
aI224
aI366
aI169
aI111
aI186
aI24
aI367
aI114
aI77
aI321
aI20
aI106
aI649
aI430
aI106
aI205
aI193
aI91
aI167
aI127
aI193
aI351
aI239
aI120
aI76
aI141
aI193
aI324
aI605
aI220
aI491
aI314
aI301
aI384
aI30
aI146
aI401
aI38
aI206
aI119
aI570
aI496
aI52
aI75
aI62
aI160
aI86
aI115
aI458
aI349
aI79
aI113
aI58
aI325
aI488
aI308
aI223
aI60
aI654
aI303
aI145
aI313
aI113
aI342
aI115
aI195
aI138
aI188
aI164
aI360
aI303
aI137
aI92
aI345
aI301
aI222
aI299
aI262
aI118
aI239
aI51
aI212
aI617
aI246
aI259
aI367
aI57
aI196
aI67
aI457
aI87
aI56
aI298
aI96
aI580
aI268
aI262
aI552
aI41
aI504
aI244
aI135
aI152
aI47
aI237
aI446
aI224
aI424
aI41
aI237
aI116
aI145
aI211
aI337
aI242
aI193
aI83
aI129
aI81
aI715
aI30
aI29
aI122
aI183
aI255
aI170
aI170
aI100
aI273
aI192
aI142
aI188
aI591
aI492
aI185
aI79
aI498
aI339
aI243
aI819
aI108
aI115
aI107
aI98
aI93
aI389
aI233
aI354
aI69
aI107
aI131
aI192
aI389
aI79
aI348
aI150
aI140
aI107
aI109
aI568
aI487
aI29
aI167
aI512
asS'times'
p7
(lp8
F456.73966693878174
aF900.9262230396271
aF402.1580219268799
aF228.59048199653625
aF310.01697182655334
aF278.9557740688324
aF656.1313848495483
aF709.8062210083008
aF815.159924030304
aF2294.3010890483856
aF347.9453649520874
aF1032.0722019672394
aF516.5613009929657
aF170.87898516654968
aF842.7568430900574
aF680.0575611591339
aF448.11380791664124
aF969.4641919136047
aF1046.7781250476837
aF672.1423048973083
aF438.79360580444336
aF130.67632603645325
aF172.5736608505249
aF754.9575250148773
aF1074.4127259254456
aF398.624480009079
aF496.30262207984924
aF248.859717130661
aF460.7097840309143
aF1260.1021659374237
aF754.2398669719696
aF2322.0241260528564
aF1553.7196898460388
aF497.65864610671997
aF1252.1267139911652
aF203.41862797737122
aF1278.1055171489716
aF1126.1170358657837
aF186.67287611961365
aF703.1416571140289
aF795.5793170928955
aF926.6364300251007
aF576.4155399799347
aF433.53648614883423
aF622.563490152359
aF156.55351614952087
aF1239.0295758247375
aF1332.493714094162
aF650.8445119857788
aF593.6066479682922
aF659.5917301177979
aF2153.2673239707947
aF390.08833408355713
aF131.38573098182678
aF408.4153850078583
aF105.13984704017639
aF2408.731180906296
aF277.9296190738678
aF199.93040680885315
aF464.49716901779175
aF905.726804971695
aF194.48992705345154
aF78.52659201622009
aF396.96049904823303
aF659.300509929657
aF2063.1211121082306
aF1501.1549139022827
aF289.0159800052643
aF345.72528100013733
aF117.49637985229492
aF430.7943458557129
aF179.12320399284363
aF213.7712390422821
aF648.3972148895264
aF165.42734789848328
aF314.15213084220886
aF352.0694239139557
aF427.4843978881836
aF156.46365904808044
aF1017.7091550827026
aF337.53158593177795
aF401.8615880012512
aF626.4003539085388
aF539.2469959259033
aF250.859689950943
aF805.6500291824341
aF1164.3032059669495
aF419.9795091152191
aF170.38413500785828
aF774.2383902072906
aF930.5302400588989
aF836.8317248821259
aF1124.5241029262543
aF366.3385229110718
aF741.2265620231628
aF408.60694003105164
aF269.93340492248535
aF257.58420395851135
aF738.824649810791
aF1392.723354101181
aF601.8291771411896
aF302.6666760444641
aF606.2641479969025
aF175.47541117668152
aF339.11488699913025
aF479.7956781387329
aF286.0085859298706
aF964.1542799472809
aF677.8627359867096
aF287.6553580760956
aF490.59809589385986
aF58.35356116294861
aF797.9054939746857
aF642.2015559673309
aF833.1480739116669
aF1027.86172914505
aF391.3227639198303
aF281.457731962204
aF169.50323104858398
aF1054.1059589385986
aF505.08839988708496
aF2400.92981505394
aF219.29278302192688
aF361.43129205703735
aF266.8250370025635
aF496.2609679698944
aF258.29478001594543
aF1530.6407549381256
aF330.25555300712585
aF938.1077880859375
aF502.21132016181946
aF383.517884016037
aF182.53368496894836
aF402.6450312137604
aF149.21423506736755
aF851.5923068523407
aF553.0463049411774
aF818.5654890537262
aF1752.7538268566132
aF907.8731400966644
aF155.80463695526123
aF157.4056248664856
aF524.2070589065552
aF1135.5758318901062
aF986.4019598960876
aF975.2976429462433
aF965.6915459632874
aF700.6068918704987
aF771.5829429626465
aF243.00432705879211
aF978.8951301574707
aF1534.143637895584
aF474.5395300388336
aF410.2301518917084
aF164.30545496940613
aF2277.7607040405273
aF298.9298357963562
aF602.1198449134827
aF139.76459908485413
aF378.8982172012329
aF499.9725160598755
aF503.2274308204651
aF286.56404209136963
aF160.26912212371826
aF400.9167969226837
aF1348.50967502594
aF271.14714884757996
aF828.3117899894714
aF349.892391204834
aF474.5775899887085
aF223.5812909603119
aF531.5247030258179
aF471.5050609111786
aF97.24269986152649
aF460.33149099349976
aF1474.8747539520264
aF942.47727394104
aF593.4363780021667
aF1342.0690648555756
aF175.54295897483826
aF1178.4212839603424
aF912.04181599617
aF390.75949907302856
aF446.30073595046997
aF415.67849707603455
aF318.8333578109741
aF503.63488507270813
aF1234.6335501670837
aF208.4721281528473
aF239.7866370677948
aF705.9631130695343
aF171.83714413642883
aF560.2598559856415
aF1897.3970980644226
aF312.02625918388367
aF616.3004639148712
aF94.15872502326965
aF373.1439218521118
aF817.9144399166107
aF1164.5121428966522
aF270.3839409351349
aF406.3629550933838
aF467.7384397983551
aF1882.105465888977
aF211.0525619983673
aF1326.1476609706879
aF877.5034868717194
aF184.91002488136292
aF506.7309081554413
aF2402.1018900871277
aF253.69402408599854
aF1492.7777359485626
aF400.5508852005005
aF1080.6012091636658
aF425.87897396087646
aF959.6861081123352
aF280.44519090652466
aF924.1167809963226
aF308.4166991710663
aF585.0758299827576
aF188.13436579704285
aF167.25382781028748
aF380.91230511665344
aF1207.5394558906555
aF264.76614904403687
aF555.3245460987091
aF811.3079259395599
aF1102.4342889785767
aF266.98271799087524
aF265.1965169906616
aF581.1809060573578
aF1881.9835450649261
aF78.90238809585571
aF1526.6655139923096
aF225.24387097358704
aF875.6224689483643
aF2403.157168865204
aF585.2334549427032
aF480.5462510585785
aF512.6244549751282
aF497.7915999889374
aF392.4552249908447
aF571.1146280765533
aF778.4991338253021
aF313.8559010028839
aF265.3549530506134
aF348.0024390220642
aF102.2529239654541
aF735.8598749637604
aF294.39856481552124
aF170.2364640235901
aF1035.1818840503693
aF72.03536605834961
aF235.3423171043396
aF1491.302477836609
aF1005.9241471290588
aF253.8110008239746
aF669.3373861312866
aF467.03435707092285
aF233.19498896598816
aF334.39199113845825
aF195.85378789901733
aF344.57521510124207
aF670.894045829773
aF512.2584719657898
aF195.07872009277344
aF161.795902967453
aF285.4426820278168
aF688.4885020256042
aF652.379252910614
aF1375.8598191738129
aF420.12138199806213
aF993.1338558197021
aF1151.3668620586395
aF827.0918200016022
aF746.9743790626526
aF80.2422239780426
aF366.9646739959717
aF548.9140470027924
aF115.5035490989685
aF537.5128350257874
aF413.1672058105469
aF1168.0166001319885
aF1124.4921560287476
aF181.67073512077332
aF290.9790849685669
aF178.85489892959595
aF341.07412099838257
aF208.91009211540222
aF246.94693183898926
aF796.6750338077545
aF679.6176989078522
aF177.64457392692566
aF197.97100400924683
aF144.72659492492676
aF605.6306550502777
aF1942.8783869743347
aF512.774327993393
aF528.9406249523163
aF174.74174809455872
aF1595.4154551029205
aF646.2109429836273
aF551.7965159416199
aF672.7955958843231
aF294.08843994140625
aF673.8773548603058
aF203.65881299972534
aF473.0161428451538
aF338.8857660293579
aF415.8831169605255
aF343.86565589904785
aF899.8385531902313
aF611.8204710483551
aF278.93103218078613
aF303.1921229362488
aF848.6667442321777
aF970.7453110218048
aF443.1987040042877
aF482.81793212890625
aF588.4990899562836
aF294.8432939052582
aF497.2698130607605
aF131.38581585884094
aF480.0420000553131
aF1138.951551914215
aF567.6931669712067
aF622.9245250225067
aF912.0438008308411
aF94.04902982711792
aF412.7641489505768
aF204.4454689025879
aF1416.823574066162
aF187.29004406929016
aF123.57637810707092
aF797.3775689601898
aF349.19016003608704
aF1431.9733879566193
aF851.2163739204407
aF688.046502828598
aF1221.8671309947968
aF111.73422002792358
aF1285.6684229373932
aF502.76762294769287
aF348.10346388816833
aF256.7702088356018
aF125.17430710792542
aF581.5482699871063
aF761.8296010494232
aF451.76481914520264
aF570.5851130485535
aF129.68902587890625
aF511.8975749015808
aF351.7256770133972
aF387.64690113067627
aF633.4437530040741
aF727.8778669834137
aF648.4030420780182
aF407.1319830417633
aF145.94680905342102
aF382.9063169956207
aF212.4895658493042
aF1388.1880187988281
aF102.2151460647583
aF115.31493806838989
aF285.7499451637268
aF745.8672251701355
aF737.4722459316254
aF449.71118092536926
aF521.7835929393768
aF270.20848298072815
aF723.0032820701599
aF595.4517090320587
aF256.6602830886841
aF506.613911151886
aF1081.8643260002136
aF1679.5160710811615
aF447.7581560611725
aF183.90588998794556
aF979.7624399662018
aF827.6775159835815
aF537.2035670280457
aF2400.819555044174
aF250.920490026474
aF237.5897650718689
aF258.7039759159088
aF216.42747616767883
aF256.7150161266327
aF1475.3157329559326
aF485.7744982242584
aF758.424309015274
aF186.99097800254822
aF243.19765901565552
aF313.37804913520813
aF356.4718370437622
aF839.1152420043945
aF185.67288208007812
aF717.95072889328
aF312.8794460296631
aF293.73339104652405
aF351.6086709499359
aF247.28784918785095
aF1441.9522709846497
aF1242.7006402015686
aF96.5065929889679
aF414.1321110725403
aF1424.9609899520874
as.