(dp0
S'successes'
p1
(lp2
I01
aI01
aI01
aI01
aI01
aI01
aI01
aI01
aI01
aI01
aI01
aI01
aI01
aI01
aI01
aI01
aI01
aI01
aI00
aI01
aI01
aI01
aI01
aI01
aI01
aI01
aI01
aI01
aI01
aI01
aI01
aI01
aI01
aI01
aI01
aI01
aI01
aI01
aI01
aI01
aI01
aI01
aI01
aI00
aI01
aI00
aI01
aI01
aI01
aI01
aI01
aI01
aI01
aI00
aI01
aI01
aI01
aI01
aI01
aI01
aI01
aI01
aI01
aI01
aI01
aI01
aI00
aI01
aI01
aI01
aI01
aI01
aI01
aI01
aI01
aI01
aI01
aI01
aI01
aI01
aI01
aI00
aI01
aI01
aI01
aI01
aI00
aI01
aI00
aI01
aI01
aI01
aI01
aI01
aI01
aI01
aI01
aI01
aI00
aI01
aI01
aI01
aI01
aI01
aI01
aI01
aI01
aI01
aI01
aI01
aI01
aI01
aI01
aI01
aI00
aI01
aI01
aI00
aI01
aI01
aI01
aI01
aI00
aI01
aI01
aI01
aI00
aI01
aI00
aI01
aI00
aI01
aI01
aI01
aI01
aI01
aI01
aI00
aI01
aI01
aI01
aI01
aI01
aI01
aI01
aI01
aI00
aI01
aI01
aI00
aI01
aI01
aI01
aI01
aI01
aI00
aI01
aI01
aI01
aI01
aI01
aI01
aI01
aI01
aI01
aI01
aI01
aI01
aI00
aI01
aI01
aI01
aI01
aI01
aI01
aI01
aI00
aI01
aI01
aI01
aI00
aI01
aI01
aI01
aI01
aI01
aI01
aI01
aI01
aI01
aI01
aI01
aI01
aI01
aI00
aI01
aI01
aI01
aI01
aI01
aI01
aI00
aI01
aI01
aI00
aI01
aI01
aI01
aI01
aI01
aI01
aI01
aI01
aI00
aI01
aI01
aI00
aI00
aI01
aI00
aI00
aI01
aI01
aI01
aI01
aI01
aI01
aI00
aI01
aI01
aI01
aI01
aI00
aI01
aI01
aI01
aI01
aI01
aI01
aI01
aI01
aI00
aI00
aI01
aI01
aI01
aI01
aI00
aI01
aI01
aI00
aI01
aI01
aI01
aI00
aI01
aI01
aI01
aI01
aI01
aI01
aI01
aI01
aI01
aI01
aI01
aI01
aI01
aI01
aI01
aI01
aI01
aI01
aI01
aI01
aI01
aI01
aI01
aI01
aI01
aI01
aI01
aI01
aI01
aI01
aI01
aI01
aI01
aI01
aI01
aI01
aI01
aI01
aI01
aI01
aI01
aI00
aI00
aI01
aI01
aI01
aI00
aI01
aI01
aI01
aI01
aI01
aI01
aI01
aI01
aI01
aI01
aI01
aI01
aI01
aI01
aI01
aI01
aI01
aI01
aI00
aI01
aI01
aI00
aI00
aI01
aI01
aI01
aI01
aI01
aI01
aI00
aI01
aI01
aI01
aI01
aI01
aI01
aI01
aI01
aI01
aI01
aI00
aI01
aI00
aI00
aI01
aI00
aI00
aI01
aI01
aI01
aI01
aI01
aI01
aI01
aI00
aI01
aI01
aI01
aI01
aI01
aI01
aI01
aI01
aI01
aI01
aI01
aI01
aI01
aI01
aI01
aI00
aI01
aI00
aI01
aI01
aI00
aI01
aI01
aI01
aI01
aI01
aI00
aI00
aI00
aI01
aI01
aI01
aI01
aI01
aI00
aI01
aI01
aI01
aI01
aI01
aI01
aI01
aI01
aI01
aI01
aI00
aI01
aI01
aI01
aI00
aI01
aI01
aI01
aI01
aI01
aI01
aI01
aI01
aI01
aI01
aI01
aI01
aI01
aI01
aI01
aI01
aI01
aI01
aI01
aI01
aI01
aI01
aI01
aI01
aI01
aI01
aI01
aI01
aI01
aI01
aI01
aI00
aI01
aI00
aI01
aI01
aI01
aI01
aI01
aI01
aI01
aI00
aI01
aI01
aI01
aI01
aI01
aI01
aI01
aI01
aI01
aI01
aI01
aI01
aI01
aI00
aI01
aI00
aI01
aI01
aI01
aI01
aI01
aI01
aI00
aI01
aI01
aI01
aI01
aI01
aI00
aI01
aI01
aI01
aI01
aI01
aI01
aI01
aI01
aI01
aI00
aI01
aI01
aI00
aI01
aI01
aI01
aI01
aI01
aI01
aI01
aI00
aI01
aI01
aI01
aI01
aI01
aI01
aI01
aI01
aI01
aI01
aI01
aI01
aI01
aI00
aI00
aI01
aI01
aI00
aI01
aI01
aI01
aI01
aI01
aI01
aI01
aI01
aI01
aI01
aI01
aI01
aI01
aI01
aI01
aI01
aI00
aI01
aI01
aI01
aI00
aI01
aI01
aI01
aI01
aI01
aI01
aI01
aI01
aI01
aI01
aI01
aI01
aI01
aI01
aI01
aI00
aI01
aI01
aI00
aI01
aI01
aI01
aI01
aI01
aI01
aI01
aI01
aI01
aI01
aI01
aI01
aI01
aI01
aI01
aI01
aI01
aI01
aI01
aI01
aI01
aI01
aI01
aI01
aI01
aI01
aI01
aI01
aI01
aI00
aI01
aI01
aI01
aI01
aI01
aI01
aI01
aI01
aI01
aI00
aI01
aI01
aI01
aI01
aI01
aI01
aI01
aI01
aI00
aI00
aI01
aI01
aI01
aI01
aI01
aI01
aI01
aI00
aI01
aI01
aI01
aI01
aI01
aI01
aI01
aI01
aI01
aI01
aI01
aI01
aI00
aI01
aI01
aI00
aI01
aI01
aI01
aI01
aI01
aI01
aI01
aI01
aI01
aI01
aI01
aI01
aI01
aI01
aI01
aI01
aI00
aI01
aI01
aI01
aI01
aI01
aI00
aI01
aI00
aI00
aI00
aI01
aI00
aI01
aI01
aI01
aI01
aI01
aI00
aI01
aI01
aI01
aI01
aI01
aI01
aI00
aI01
aI01
aI01
aI01
aI01
aI01
aI01
aI01
aI01
aI01
aI01
aI01
aI01
aI00
aI01
aI00
aI01
aI01
aI00
aI01
aI01
aI00
aI01
aI01
aI01
aI01
aI01
aI00
aI01
aI00
aI01
aI01
aI01
aI01
aI01
aI00
aI01
aI01
aI01
aI01
aI01
aI01
aI01
aI01
aI01
aI01
aI01
aI01
aI00
aI01
aI01
aI01
aI01
aI01
aI00
aI01
aI01
aI01
aI01
aI01
aI01
aI01
aI00
aI01
aI00
aI00
aI01
aI01
aI01
aI01
aI01
aI01
aI01
aI00
aI01
aI01
aI01
aI01
aI01
aI01
aI01
aI01
aI01
aI01
aI01
aI01
aI01
aI01
aI01
aI01
aI01
aI01
aI01
aI01
aI01
aI01
aI01
aI01
aI01
aI01
aI01
aI00
aI01
aI01
aI01
aI01
aI01
aI01
aI01
aI01
aI01
aI00
aI01
aI01
aI01
aI01
aI01
aI01
aI01
aI01
aI01
aI01
aI01
aI01
aI01
aI01
aI01
aI01
aI01
aI01
aI01
aI01
aI01
aI01
aI01
aI00
aI01
aI00
aI01
aI01
aI01
aI01
aI01
aI01
aI01
aI01
aI01
aI00
aI01
aI01
aI01
aI01
aI01
aI01
aI01
aI01
aI01
aI01
aI01
aI01
aI01
aI00
aI01
aI01
aI01
aI00
aI01
aI01
aI01
aI01
aI00
aI01
aI01
aI01
aI01
aI01
aI01
aI01
aI01
aI01
aI01
aI01
aI01
aI01
aI01
aI01
aI01
aI01
aI01
aI01
aI01
aI01
aI01
aI01
aI01
aI01
aI00
aI01
aI01
aI01
aI01
aI01
aI01
aI01
aI00
aI01
aI01
aI01
aI01
aI01
aI00
aI01
aI01
aI01
aI00
aI01
aI01
aI01
aI01
aI01
aI01
aI00
aI01
aI01
aI01
aI01
aI01
aI01
aI01
aI01
aI01
aI01
aI01
aI01
aI01
aI01
aI01
aI00
aI01
aI00
aI01
aI01
aI01
aI01
aI01
aI01
aI01
aI01
aI01
aI01
aI01
aI01
aI01
aI01
aI01
aI01
aI00
aI01
aI01
aI01
aI00
aI01
aI01
aI01
aI00
aI01
aI01
aI01
aI01
aI01
aI01
aI01
aI01
aI00
aI00
aI01
aI00
aI01
aI01
aI01
aI00
aI01
aI01
aI01
aI00
aI01
aI01
aI01
aI00
aI01
aI01
aI01
aI01
aI01
aI01
aI01
aI00
aI01
aI01
aI01
aI01
aI01
aI01
aI01
aI01
aI01
aI01
aI01
aI01
aI01
aI01
aI01
aI01
aI01
aI01
aI01
aI01
aI01
aI01
aI01
aI01
aI01
aI01
aI01
aI01
aI01
aI01
aI01
aI01
aI01
aI01
aI01
aI01
aI01
aI01
aI01
aI01
aI01
aI01
aI01
aI01
aI00
aI01
aI01
aI01
aI01
aI00
aI01
aI01
aI01
aI01
aI01
aI01
aI01
aI01
aI01
aI01
aI01
aI01
aI01
aI01
aI01
aI01
aI01
aI01
aI01
aI01
aI01
aI01
aI01
aI01
aI00
aI01
aI01
aI01
aI01
aI01
aI01
aI01
aI01
aI01
aI01
aI01
aI01
aI00
aI01
aI01
aI01
aI00
aI01
aI01
aI01
aI01
aI01
aI01
aI01
aI01
aI01
aI01
aI01
aI01
aI01
aI01
aI01
aI01
aI01
aI01
aI00
aI00
aI01
aI00
aI01
aI01
aI01
aI01
aI01
aI01
aI01
aI01
aI01
aI01
aI01
aI01
aI00
aI01
aI01
aI01
aI00
aI01
aI01
aI01
aI01
aI01
aI01
aI01
aI01
aI00
aI01
aI01
aI01
aI01
aI01
aI01
aI01
aI01
aI01
aI01
aI01
aI01
aI01
aI01
aI01
aI00
aI01
aI00
aI01
aI00
aI01
aI01
aI01
aI01
aI01
aI01
aI01
aI01
aI01
aI00
aI00
aI01
aI01
aI01
aI01
aI01
aI01
aI01
aI01
aI01
aI01
aI01
aI01
aI01
aI01
aI01
aI01
aI01
aI01
aI01
aI01
aI01
aI01
aI01
aI01
aI01
aI01
aI01
aI00
aI01
aI01
aI01
aI01
aI01
aI01
aI01
aI01
aI01
aI01
aI01
aI01
aI01
aI01
aI01
aI01
aI01
aI01
aI01
aI01
aI01
aI01
aI01
aI00
aI00
aI01
aI01
aI00
aI01
aI00
aI01
aI01
aI01
aI01
aI01
aI01
aI00
aI01
aI00
aI01
aI01
aI01
aI01
aI01
aI01
aI01
aI00
aI01
aI01
aI01
aI01
aI00
aI01
aI01
aI01
aI01
aI00
aI01
aI01
aI01
aI01
aI01
aI01
aI01
aI01
aI01
aI01
aI01
aI01
aI01
aI01
aI01
aI01
aI01
aI01
aI00
aI01
aI01
aI01
aI01
aI01
aI00
aI00
aI01
aI00
aI01
aI01
aI01
aI01
aI01
aI01
aI01
aI00
aI01
aI01
aI01
aI01
aI01
aI00
aI01
aI01
aI00
aI01
aI01
aI01
aI01
aI01
aI01
aI01
aI01
aI01
aI01
aI01
aI01
aI01
aI01
aI01
aI01
aI01
aI01
aI01
aI01
aI01
aI01
aI00
aI01
aI01
aI01
aI01
aI01
aI01
aI01
aI01
aI01
aI01
aI01
aI01
aI01
aI01
aI00
aI01
aI01
aI01
aI01
aI01
aI01
aI01
aI01
aI01
aI01
aI01
aI01
aI01
aI01
aI01
aI01
aI01
aI01
aI01
aI01
aI01
aI01
aI01
aI01
aI01
aI01
aI01
aI01
aI01
aI01
aI01
aI01
aI01
aI01
aI01
aI01
aI01
aI01
aI01
aI01
aI01
aI01
aI01
aI00
aI01
aI01
aI00
aI01
aI01
aI01
aI01
aI01
aI01
aI01
aI01
aI01
aI01
aI01
aI01
aI01
aI01
aI01
aI01
aI01
aI01
aI01
aI01
aI01
aI01
aI01
aI01
aI00
aI01
aI01
aI01
aI01
aI01
aI00
aI01
aI01
aI01
aI01
aI01
aI01
aI01
aI01
aI01
aI01
aI01
aI01
aI01
aI01
aI01
aI01
aI01
aI01
aI01
aI01
aI01
aI01
aI01
aI01
aI01
aI01
aI01
aI01
aI01
aI01
aI01
aI01
aI01
aI01
aI01
aI01
aI01
aI01
aI01
aI00
aI00
aI00
aI01
aI01
aI01
aI01
aI00
aI01
aI01
aI01
aI01
aI01
aI01
aI01
aI01
aI01
aI01
aI01
aI01
aI01
aI01
aI01
aI01
aI01
aI01
aI00
aI01
aI01
aI01
aI01
aI01
aI01
aI01
aI00
aI01
aI01
aI01
aI01
aI01
aI01
aI01
aI01
aI01
aI01
aI01
aI01
aI01
aI01
aI01
aI01
aI01
aI01
aI01
aI01
aI01
aI01
aI01
aI00
aI01
aI01
aI01
aI01
aI01
aI01
aI00
aI01
asS'num_nodes'
p3
(lp4
I3
aI3
aI1
aI1
aI3
aI1
aI3
aI1
aI6
aI1
aI4
aI31
aI1
aI4
aI5
aI25
aI1
aI3
aI17
aI3
aI8
aI4
aI12
aI3
aI12
aI56
aI7
aI1
aI26
aI7
aI3
aI1
aI1
aI3
aI26
aI1
aI40
aI1
aI3
aI1
aI1
aI1
aI1
aI17
aI4
aI17
aI3
aI41
aI1
aI3
aI7
aI3
aI1
aI17
aI3
aI1
aI1
aI56
aI3
aI3
aI54
aI5
aI1
aI1
aI15
aI1
aI17
aI3
aI1
aI45
aI15
aI9
aI17
aI5
aI28
aI36
aI1
aI1
aI1
aI29
aI1
aI17
aI3
aI31
aI4
aI4
aI17
aI1
aI17
aI6
aI1
aI3
aI45
aI34
aI4
aI86
aI3
aI1
aI17
aI5
aI3
aI1
aI3
aI5
aI4
aI3
aI5
aI17
aI1
aI3
aI1
aI1
aI8
aI4
aI17
aI1
aI8
aI17
aI21
aI3
aI10
aI3
aI17
aI36
aI6
aI4
aI17
aI1
aI17
aI1
aI17
aI22
aI3
aI28
aI1
aI4
aI24
aI17
aI3
aI18
aI1
aI23
aI1
aI1
aI4
aI1
aI17
aI3
aI17
aI17
aI1
aI3
aI3
aI31
aI1
aI17
aI1
aI1
aI1
aI1
aI3
aI4
aI1
aI1
aI1
aI1
aI3
aI3
aI31
aI3
aI49
aI1
aI18
aI4
aI17
aI3
aI17
aI10
aI24
aI3
aI17
aI9
aI5
aI3
aI3
aI1
aI35
aI4
aI1
aI5
aI3
aI1
aI3
aI3
aI17
aI18
aI1
aI3
aI1
aI3
aI5
aI17
aI4
aI3
aI17
aI1
aI4
aI35
aI44
aI1
aI1
aI3
aI1
aI17
aI1
aI12
aI17
aI17
aI1
aI17
aI17
aI1
aI4
aI3
aI3
aI1
aI6
aI17
aI3
aI1
aI1
aI48
aI17
aI3
aI1
aI20
aI1
aI3
aI22
aI8
aI1
aI17
aI17
aI10
aI3
aI1
aI1
aI17
aI15
aI45
aI17
aI1
aI17
aI13
aI86
aI1
aI34
aI1
aI17
aI1
aI4
aI1
aI8
aI4
aI3
aI47
aI6
aI3
aI3
aI23
aI41
aI6
aI1
aI1
aI1
aI17
aI23
aI1
aI1
aI3
aI5
aI1
aI7
aI3
aI10
aI1
aI5
aI3
aI40
aI1
aI1
aI3
aI1
aI7
aI5
aI3
aI17
aI79
aI1
aI1
aI3
aI17
aI19
aI3
aI1
aI1
aI6
aI1
aI1
aI1
aI1
aI59
aI1
aI1
aI1
aI24
aI1
aI1
aI1
aI1
aI17
aI1
aI4
aI17
aI17
aI3
aI1
aI1
aI1
aI3
aI61
aI17
aI1
aI6
aI3
aI1
aI5
aI1
aI19
aI1
aI1
aI1
aI17
aI1
aI17
aI17
aI1
aI17
aI17
aI7
aI45
aI3
aI6
aI1
aI1
aI1
aI17
aI3
aI4
aI10
aI3
aI4
aI22
aI17
aI1
aI5
aI1
aI1
aI35
aI1
aI30
aI3
aI17
aI1
aI17
aI1
aI3
aI17
aI33
aI4
aI1
aI23
aI13
aI17
aI17
aI17
aI7
aI1
aI3
aI10
aI3
aI17
aI1
aI3
aI1
aI4
aI1
aI3
aI19
aI42
aI63
aI35
aI17
aI1
aI3
aI1
aI17
aI1
aI22
aI1
aI32
aI4
aI12
aI3
aI1
aI1
aI1
aI8
aI3
aI75
aI3
aI49
aI6
aI3
aI33
aI3
aI3
aI1
aI5
aI3
aI62
aI23
aI1
aI21
aI9
aI1
aI1
aI5
aI17
aI3
aI17
aI1
aI24
aI6
aI3
aI1
aI3
aI3
aI17
aI32
aI1
aI33
aI3
aI1
aI7
aI50
aI18
aI1
aI3
aI7
aI1
aI4
aI17
aI3
aI17
aI10
aI1
aI3
aI3
aI1
aI6
aI17
aI3
aI1
aI3
aI19
aI4
aI17
aI1
aI3
aI5
aI3
aI1
aI1
aI1
aI4
aI26
aI17
aI4
aI4
aI17
aI3
aI3
aI1
aI1
aI1
aI14
aI3
aI17
aI3
aI1
aI1
aI1
aI21
aI3
aI3
aI10
aI27
aI3
aI1
aI26
aI4
aI17
aI17
aI48
aI17
aI17
aI14
aI3
aI3
aI3
aI1
aI1
aI18
aI1
aI5
aI1
aI1
aI36
aI1
aI4
aI1
aI24
aI17
aI5
aI11
aI1
aI17
aI1
aI11
aI6
aI1
aI9
aI12
aI4
aI40
aI1
aI3
aI3
aI34
aI17
aI1
aI1
aI17
aI9
aI1
aI17
aI3
aI1
aI4
aI5
aI1
aI1
aI1
aI72
aI24
aI3
aI3
aI1
aI1
aI15
aI21
aI3
aI3
aI1
aI1
aI46
aI3
aI20
aI5
aI5
aI8
aI1
aI1
aI19
aI1
aI17
aI1
aI3
aI18
aI3
aI9
aI31
aI3
aI7
aI1
aI17
aI3
aI1
aI4
aI1
aI44
aI3
aI5
aI3
aI17
aI17
aI3
aI1
aI1
aI1
aI3
aI3
aI12
aI17
aI11
aI13
aI4
aI13
aI1
aI4
aI3
aI52
aI3
aI3
aI20
aI1
aI17
aI75
aI32
aI17
aI19
aI24
aI1
aI1
aI1
aI3
aI1
aI3
aI5
aI1
aI1
aI17
aI61
aI3
aI3
aI1
aI17
aI3
aI1
aI1
aI3
aI43
aI17
aI1
aI17
aI17
aI17
aI3
aI17
aI3
aI9
aI8
aI3
aI37
aI17
aI1
aI1
aI4
aI28
aI1
aI4
aI17
aI3
aI38
aI3
aI1
aI61
aI17
aI3
aI1
aI1
aI1
aI1
aI1
aI5
aI17
aI1
aI17
aI1
aI3
aI97
aI22
aI1
aI17
aI12
aI1
aI3
aI10
aI23
aI17
aI1
aI17
aI3
aI1
aI10
aI25
aI18
aI31
aI1
aI46
aI3
aI67
aI6
aI3
aI4
aI3
aI3
aI35
aI8
aI5
aI17
aI1
aI1
aI1
aI1
aI1
aI17
aI26
aI5
aI3
aI1
aI4
aI3
aI1
aI17
aI13
aI17
aI82
aI3
aI8
aI1
aI53
aI3
aI1
aI3
aI17
aI24
aI28
aI35
aI1
aI1
aI3
aI29
aI3
aI48
aI1
aI1
aI1
aI1
aI1
aI17
aI17
aI15
aI1
aI1
aI1
aI6
aI3
aI62
aI1
aI1
aI1
aI21
aI17
aI3
aI1
aI1
aI27
aI3
aI3
aI51
aI5
aI1
aI17
aI3
aI1
aI1
aI1
aI1
aI1
aI62
aI1
aI1
aI45
aI3
aI1
aI25
aI1
aI1
aI13
aI1
aI1
aI1
aI34
aI1
aI61
aI1
aI17
aI3
aI17
aI1
aI1
aI4
aI13
aI1
aI11
aI1
aI1
aI1
aI17
aI1
aI25
aI1
aI6
aI1
aI10
aI1
aI12
aI1
aI1
aI19
aI19
aI3
aI17
aI1
aI3
aI3
aI17
aI20
aI17
aI23
aI1
aI17
aI1
aI9
aI5
aI9
aI5
aI9
aI4
aI54
aI1
aI59
aI11
aI3
aI5
aI1
aI24
aI3
aI1
aI1
aI1
aI1
aI19
aI19
aI1
aI1
aI4
aI102
aI5
aI47
aI3
aI3
aI1
aI1
aI12
aI17
aI3
aI28
aI3
aI1
aI33
aI17
aI13
aI3
aI5
aI17
aI1
aI12
aI3
aI4
aI1
aI1
aI17
aI1
aI1
aI20
aI1
aI3
aI1
aI1
aI3
aI4
aI1
aI3
aI1
aI39
aI1
aI45
aI17
aI1
aI64
aI6
aI1
aI5
aI18
aI1
aI52
aI54
aI72
aI1
aI3
aI1
aI22
aI3
aI33
aI17
aI1
aI17
aI21
aI3
aI3
aI17
aI1
aI1
aI5
aI17
aI1
aI5
aI19
aI1
aI1
aI40
aI3
aI82
aI17
aI45
aI1
aI17
aI1
aI4
aI19
aI17
aI1
aI1
aI58
aI17
aI1
aI4
aI3
aI62
aI3
aI1
aI1
aI44
aI1
aI1
aI19
aI17
aI1
aI23
aI7
aI1
aI28
aI1
aI3
aI22
aI8
aI1
aI7
aI1
aI4
aI1
aI8
aI1
aI3
aI4
aI3
aI1
aI17
aI57
aI1
aI3
aI4
aI1
aI1
aI52
aI13
aI1
aI3
aI3
aI1
aI14
aI3
aI80
aI1
aI15
aI15
aI1
aI3
aI1
aI17
aI1
aI17
aI1
aI7
aI1
aI3
aI17
aI1
aI3
aI56
aI1
aI8
aI1
aI1
aI3
aI4
aI10
aI5
aI39
aI39
aI10
aI1
aI33
aI1
aI1
aI59
aI1
aI3
aI1
aI1
aI5
aI17
aI1
aI5
aI1
aI1
aI23
aI41
aI30
aI8
aI7
aI8
aI3
aI3
aI17
aI38
aI3
aI1
aI17
aI1
aI1
aI3
aI1
aI6
aI1
aI1
aI17
aI3
aI3
aI20
aI3
aI1
aI6
aI3
aI1
aI3
aI10
aI17
aI112
aI17
aI17
aI1
aI72
aI1
aI1
aI1
aI5
aI12
aI19
aI1
aI1
aI21
aI5
aI17
aI1
aI1
aI1
aI17
aI28
aI6
aI7
aI39
aI49
aI3
aI1
aI23
aI17
aI1
aI7
aI1
aI4
aI4
aI47
aI12
aI4
aI10
aI1
aI1
aI19
aI5
aI1
aI1
aI17
aI3
aI97
aI3
aI83
aI17
aI23
aI1
aI1
aI3
aI60
aI4
aI1
aI1
aI17
aI99
aI52
aI5
aI96
aI20
aI3
aI1
aI1
aI3
aI5
aI1
aI3
aI5
aI5
aI5
aI3
aI3
aI1
aI17
aI1
aI1
aI13
aI1
aI17
aI4
aI1
aI8
aI1
aI17
aI4
aI1
aI1
aI3
aI1
aI1
aI40
aI3
aI3
aI3
aI3
aI5
aI3
aI19
aI1
aI1
aI5
aI3
aI33
aI5
aI27
aI51
aI10
aI92
aI17
aI7
aI1
aI17
aI1
aI17
aI3
aI6
aI3
aI23
aI3
aI4
aI70
aI6
aI17
aI3
aI34
aI7
aI3
aI1
aI7
aI1
aI17
aI24
aI3
aI8
aI3
aI76
aI38
aI1
aI67
aI1
aI17
aI41
aI1
aI1
aI1
aI3
aI5
aI17
aI1
aI6
aI1
aI21
aI1
aI35
aI1
aI6
aI3
aI1
aI3
aI17
aI45
aI10
aI25
aI3
aI5
aI17
aI17
aI1
aI17
aI3
aI3
aI1
aI1
aI1
aI1
aI3
aI17
aI35
aI3
aI5
aI1
aI19
aI17
aI3
aI3
aI17
aI1
aI6
aI3
aI1
aI1
aI10
aI3
aI3
aI1
aI43
aI9
aI1
aI1
aI1
aI7
aI8
aI3
aI7
aI1
aI3
aI1
aI3
aI17
aI1
aI3
aI58
aI1
aI1
aI5
aI20
aI3
aI1
aI28
aI1
aI1
aI1
aI18
aI17
aI1
aI3
aI17
aI1
aI1
aI1
aI3
aI4
aI18
aI15
aI1
aI3
aI1
aI3
aI1
aI1
aI8
aI17
aI4
aI9
aI1
aI4
aI1
aI5
aI20
aI8
aI14
aI7
aI5
aI8
aI26
aI4
aI1
aI3
aI1
aI1
aI1
aI1
aI5
aI5
aI4
aI3
aI3
aI68
aI1
aI3
aI17
aI18
aI1
aI1
aI1
aI1
aI3
aI32
aI1
aI1
aI5
aI12
aI30
aI1
aI3
aI10
aI1
aI3
aI10
aI3
aI3
aI4
aI1
aI3
aI18
aI17
aI9
aI23
aI1
aI4
aI10
aI17
aI3
aI1
aI3
aI3
aI3
aI3
aI21
aI3
aI1
aI1
aI29
aI3
aI1
aI1
aI3
aI1
aI4
aI3
aI1
aI3
aI3
aI22
aI1
aI3
aI1
aI10
aI20
aI33
aI5
aI3
aI4
aI1
aI6
aI21
aI4
aI1
aI12
aI1
aI3
aI17
aI17
aI17
aI35
aI1
aI1
aI1
aI17
aI1
aI5
aI1
aI3
aI3
aI1
aI1
aI1
aI54
aI1
aI1
aI1
aI1
aI3
aI1
aI36
aI3
aI39
aI17
aI5
aI3
aI19
aI11
aI68
aI3
aI1
aI17
aI1
aI1
aI1
aI5
aI1
aI3
aI1
aI3
aI7
aI1
aI8
aI1
aI4
aI4
aI1
aI3
aI3
aI68
aI40
aI22
aI3
aI1
aI5
aI17
aI1
aI1
aI3
aI1
aI1
aI1
aI17
aI3
asS'times'
p5
(lp6
F22.778919219970703
aF23.248891830444336
aF15.878194808959961
aF17.027623176574707
aF25.86511492729187
aF23.88162899017334
aF24.793649911880493
aF16.723297119140625
aF50.05835008621216
aF14.5051748752594
aF24.05245304107666
aF87.91772508621216
aF17.115994930267334
aF24.93156409263611
aF25.34846520423889
aF72.83516597747803
aF15.070855140686035
aF24.56284213066101
aF34.80076193809509
aF23.797755002975464
aF49.056905031204224
aF44.057440996170044
aF50.17166304588318
aF27.03819489479065
aF52.88068699836731
aF181.7270691394806
aF36.13671803474426
aF20.11843991279602
aF112.1453320980072
aF31.07618498802185
aF25.391003131866455
aF47.15331411361694
aF16.695950984954834
aF26.669063806533813
aF64.24699282646179
aF20.394243001937866
aF118.14252591133118
aF16.62338089942932
aF27.33715009689331
aF15.711716175079346
aF17.877346992492676
aF15.587508916854858
aF14.891227006912231
aF34.6547908782959
aF25.7156240940094
aF37.254595041275024
aF40.697502851486206
aF106.948734998703
aF12.332855939865112
aF24.145561933517456
aF39.265758991241455
aF24.241579055786133
aF16.527347087860107
aF36.02779984474182
aF26.797883987426758
aF14.533077001571655
aF19.833295822143555
aF263.1056549549103
aF25.440399885177612
aF26.2294499874115
aF134.29501795768738
aF30.16044783592224
aF16.5150408744812
aF15.61008095741272
aF49.21777701377869
aF17.36884379386902
aF31.13872003555298
aF23.323575019836426
aF15.939246892929077
aF181.00094985961914
aF60.45168590545654
aF50.40572690963745
aF47.57255697250366
aF25.810545206069946
aF142.75870895385742
aF96.43531799316406
aF19.621514081954956
aF16.990999937057495
aF14.116527080535889
aF121.85368800163269
aF15.232040882110596
aF37.3348650932312
aF24.571050882339478
aF96.99466896057129
aF51.90179800987244
aF29.108640909194946
aF43.28174901008606
aF17.45110297203064
aF32.46103882789612
aF36.82689714431763
aF15.68063497543335
aF22.78084707260132
aF148.8093180656433
aF104.38059306144714
aF25.566032886505127
aF235.3084909915924
aF31.968826055526733
aF40.59466314315796
aF35.01726984977722
aF28.502655029296875
aF27.586153984069824
aF15.398181915283203
aF26.99741291999817
aF32.02351903915405
aF23.79844307899475
aF38.210827112197876
aF32.14883613586426
aF43.81101894378662
aF16.880133867263794
aF26.24155282974243
aF16.099164962768555
aF18.01971983909607
aF42.182438135147095
aF24.383543968200684
aF37.79111313819885
aF18.67566418647766
aF41.41036605834961
aF35.85913896560669
aF64.61061906814575
aF23.116945028305054
aF37.448765993118286
aF42.07575798034668
aF35.062726974487305
aF120.97105002403259
aF30.181988954544067
aF29.1849582195282
aF33.39375019073486
aF16.114524126052856
aF39.98422408103943
aF16.814306020736694
aF35.15035796165466
aF122.89331984519958
aF24.527631044387817
aF79.8611741065979
aF18.28400206565857
aF25.365973949432373
aF74.9073920249939
aF48.24705791473389
aF24.04400110244751
aF60.75182604789734
aF17.309502840042114
aF66.86819195747375
aF17.396203994750977
aF17.384855031967163
aF21.643350839614868
aF17.922204971313477
aF38.476086139678955
aF20.895035982131958
aF53.40739607810974
aF36.39714288711548
aF33.12924909591675
aF22.32385492324829
aF24.661895036697388
aF171.7942328453064
aF20.614488124847412
aF37.2758309841156
aF19.43223810195923
aF14.589019060134888
aF16.381579875946045
aF15.69377613067627
aF24.92244601249695
aF26.235060930252075
aF14.905792951583862
aF18.5219829082489
aF16.79522395133972
aF17.466936111450195
aF25.79952096939087
aF23.984004974365234
aF60.66865587234497
aF31.50544810295105
aF206.46232199668884
aF57.000962018966675
aF55.36540198326111
aF28.502557039260864
aF64.90458583831787
aF24.460893869400024
aF41.61598181724548
aF43.062867879867554
aF121.54658198356628
aF22.943082809448242
aF45.27000403404236
aF57.12868785858154
aF29.964646100997925
aF25.728373050689697
aF28.283872842788696
aF16.08002495765686
aF123.30980801582336
aF24.024351119995117
aF18.353904962539673
aF26.565033197402954
aF24.490389108657837
aF14.823782920837402
aF49.57574510574341
aF39.361989974975586
aF36.524001121520996
aF72.4036431312561
aF15.573324918746948
aF28.34268808364868
aF14.410291910171509
aF29.50529718399048
aF32.93070602416992
aF38.23848104476929
aF36.23954701423645
aF29.143250942230225
aF37.38738203048706
aF17.692795991897583
aF27.962836027145386
aF135.2964150905609
aF121.75081706047058
aF15.001203060150146
aF16.544227838516235
aF23.91706395149231
aF15.042865991592407
aF38.28359389305115
aF13.612627983093262
aF44.13367295265198
aF38.31910014152527
aF39.762808084487915
aF14.815995931625366
aF37.33020997047424
aF36.6347119808197
aF16.2928249835968
aF26.184239149093628
aF31.715789079666138
aF23.489129066467285
aF14.067217111587524
aF31.894360065460205
aF35.35837411880493
aF26.639925956726074
aF17.627907037734985
aF16.48397397994995
aF121.97107791900635
aF44.24576807022095
aF24.165385961532593
aF15.963901042938232
aF91.87784600257874
aF13.403143167495728
aF27.70007085800171
aF73.09482979774475
aF53.577635049819946
aF15.356539011001587
aF34.21619510650635
aF37.55601096153259
aF46.60199999809265
aF24.48125982284546
aF16.674149990081787
aF15.088869094848633
aF36.50028109550476
aF63.680907011032104
aF138.90081882476807
aF41.55711817741394
aF14.922790050506592
aF46.24720501899719
aF56.578290939331055
aF301.87940311431885
aF15.440011024475098
aF103.34830212593079
aF16.73865294456482
aF60.390942096710205
aF36.91243314743042
aF33.603806018829346
aF15.254924774169922
aF32.94853901863098
aF32.79749798774719
aF27.9379141330719
aF173.61173009872437
aF30.997432947158813
aF24.033601999282837
aF27.88857913017273
aF97.46182298660278
aF131.7373161315918
aF34.433011054992676
aF16.064843893051147
aF16.55263614654541
aF19.38235092163086
aF52.88056302070618
aF68.67056107521057
aF14.259186029434204
aF33.79945993423462
aF24.84540891647339
aF36.19735407829285
aF15.822547912597656
aF29.52271604537964
aF29.14018988609314
aF65.84976387023926
aF16.22810697555542
aF29.998557090759277
aF25.38381004333496
aF194.72512221336365
aF16.221369981765747
aF16.02320098876953
aF27.19905400276184
aF19.37596893310547
aF30.116400003433228
aF25.90131187438965
aF20.59079098701477
aF37.280665159225464
aF303.1934349536896
aF17.297102212905884
aF16.664570808410645
aF26.952027797698975
aF34.0973699092865
aF55.62968683242798
aF24.228972911834717
aF14.392318964004517
aF15.35572099685669
aF27.81411600112915
aF13.158504009246826
aF17.871039867401123
aF15.369744062423706
aF16.830228090286255
aF206.2621819972992
aF16.585379123687744
aF12.153957843780518
aF15.402038097381592
aF63.87937307357788
aF15.099518060684204
aF16.22487711906433
aF55.427748918533325
aF17.36642813682556
aF40.054336071014404
aF16.17142605781555
aF28.01132607460022
aF36.431177854537964
aF38.95718502998352
aF23.84291386604309
aF15.361247062683105
aF16.517856121063232
aF16.744360208511353
aF20.85866403579712
aF160.35017895698547
aF41.38198900222778
aF16.849200010299683
aF28.226088047027588
aF25.29044198989868
aF14.980813980102539
aF36.68430304527283
aF14.283864974975586
aF71.82132697105408
aF15.454952001571655
aF14.315994024276733
aF17.806455850601196
aF39.701205015182495
aF18.856980800628662
aF39.943968057632446
aF34.59293603897095
aF16.543920040130615
aF36.870535135269165
aF38.47569298744202
aF42.7360360622406
aF120.50303316116333
aF20.557473182678223
aF27.377564907073975
aF36.301389932632446
aF18.456606149673462
aF17.91979694366455
aF36.54412794113159
aF37.740046977996826
aF24.991610050201416
aF30.074193000793457
aF24.521744966506958
aF36.30947208404541
aF68.60740780830383
aF47.19805717468262
aF17.566762924194336
aF37.961238861083984
aF14.347597122192383
aF12.216641187667847
aF85.62727785110474
aF17.661422967910767
aF103.716463804245
aF29.363851070404053
aF37.44140815734863
aF17.44677996635437
aF45.66501188278198
aF15.465612888336182
aF25.51826500892639
aF39.590601205825806
aF97.65083599090576
aF26.852943181991577
aF16.168193101882935
aF74.62027502059937
aF46.646531105041504
aF35.398091077804565
aF31.65002202987671
aF36.38679504394531
aF41.08738088607788
aF14.534013032913208
aF30.898752212524414
aF48.416035890579224
aF26.21976089477539
aF34.63234901428223
aF15.881425857543945
aF29.024314880371094
aF15.43672776222229
aF29.784492015838623
aF17.35070514678955
aF26.665287971496582
aF60.82597208023071
aF120.80747294425964
aF184.52305388450623
aF99.32001614570618
aF40.73011302947998
aF16.351383209228516
aF25.030086994171143
aF17.272921085357666
aF37.56748104095459
aF16.758177995681763
aF114.18399906158447
aF13.274016857147217
aF97.11530590057373
aF42.7368860244751
aF50.88353991508484
aF24.355699062347412
aF14.904540061950684
aF16.882025003433228
aF17.050795078277588
aF43.08228611946106
aF26.279913902282715
aF214.2122938632965
aF34.458909034729004
aF195.7163050174713
aF35.67365598678589
aF26.412314891815186
aF95.50762295722961
aF28.906523942947388
aF25.660521030426025
aF17.281765937805176
aF51.61798882484436
aF24.52548885345459
aF185.8287889957428
aF91.03111004829407
aF14.184736967086792
aF82.29370999336243
aF41.73450803756714
aF14.530489921569824
aF15.434247016906738
aF27.373858213424683
aF34.52285885810852
aF23.33432412147522
aF37.61232280731201
aF16.65939497947693
aF119.23740100860596
aF34.84595489501953
aF31.901566982269287
aF17.680726051330566
aF25.256206035614014
aF23.747886896133423
aF36.64439582824707
aF89.4035210609436
aF26.062318086624146
aF103.20079207420349
aF23.587395906448364
aF16.850309133529663
aF39.776565074920654
aF126.87067008018494
aF54.09790110588074
aF18.57990002632141
aF32.336775064468384
aF40.272103786468506
aF13.957808017730713
aF25.983992099761963
aF35.97501301765442
aF25.783329010009766
aF36.408507108688354
aF47.64119601249695
aF17.12268900871277
aF27.430845022201538
aF29.98961591720581
aF13.70141887664795
aF36.87539982795715
aF35.6947500705719
aF22.813096046447754
aF18.933784008026123
aF31.59845781326294
aF53.21567702293396
aF27.400696992874146
aF37.639256954193115
aF16.87265920639038
aF25.800278902053833
aF31.425791025161743
aF25.131684064865112
aF15.892039060592651
aF15.242846965789795
aF18.82155680656433
aF27.900446891784668
aF72.01764607429504
aF37.897045850753784
aF35.795490980148315
aF24.40419316291809
aF35.02418303489685
aF24.563241004943848
aF24.77856993675232
aF16.089344024658203
aF16.22795295715332
aF15.5954008102417
aF83.15509295463562
aF27.506808042526245
aF40.24480319023132
aF25.437019109725952
aF12.978579998016357
aF16.547887086868286
aF16.87436294555664
aF79.96274781227112
aF20.601176023483276
aF25.638203859329224
aF57.46633195877075
aF85.54540610313416
aF25.464720964431763
aF18.12074613571167
aF77.7120680809021
aF35.825602769851685
aF43.340954065322876
aF32.36573600769043
aF136.35375094413757
aF61.014569997787476
aF43.258814096450806
aF53.899473905563354
aF23.594003915786743
aF23.2617027759552
aF26.601852893829346
aF19.297461986541748
aF14.995482921600342
aF104.22245001792908
aF15.485042095184326
aF34.16757583618164
aF56.822766065597534
aF17.98722815513611
aF108.36143803596497
aF12.775332927703857
aF26.826318979263306
aF17.54476499557495
aF73.73576307296753
aF35.99992299079895
aF30.15511393547058
aF66.04684495925903
aF16.946125984191895
aF38.901259899139404
aF14.70241403579712
aF41.86824893951416
aF35.63162398338318
aF15.818292140960693
aF40.192975997924805
aF46.99663281440735
aF27.577025890350342
aF155.73286819458008
aF36.01370096206665
aF22.929816961288452
aF23.5485360622406
aF89.65784788131714
aF89.37179207801819
aF16.169005870819092
aF17.351531982421875
aF34.53371500968933
aF37.08819103240967
aF54.58382511138916
aF34.619879961013794
aF29.60036015510559
aF16.61992311477661
aF27.776707887649536
aF30.752146005630493
aF13.744881868362427
aF35.523382902145386
aF15.795007944107056
aF199.5301628112793
aF98.93897795677185
aF26.232987880706787
aF25.83611798286438
aF16.600589990615845
aF15.828542947769165
aF50.06854701042175
aF77.2069079875946
aF26.81541085243225
aF34.276570081710815
aF18.032762050628662
aF14.403313875198364
aF115.80470108985901
aF32.95677995681763
aF69.3349859714508
aF27.532477855682373
aF31.70114302635193
aF33.50933384895325
aF17.606448888778687
aF15.166521072387695
aF66.574942111969
aF15.27320909500122
aF44.85173988342285
aF16.783392906188965
aF22.462965965270996
aF48.93632102012634
aF22.32508897781372
aF65.23869514465332
aF90.88816404342651
aF26.084352016448975
aF36.541621923446655
aF15.9792799949646
aF37.722280979156494
aF22.623389959335327
aF16.277513027191162
aF28.121625900268555
aF16.718882083892822
aF148.04399800300598
aF29.43457293510437
aF38.992908000946045
aF28.980834007263184
aF36.00156617164612
aF33.923115968704224
aF36.323716163635254
aF16.273555040359497
aF14.361495971679688
aF18.803903102874756
aF24.68305993080139
aF24.28664517402649
aF50.52503800392151
aF33.140408992767334
aF58.65211892127991
aF52.76518702507019
aF29.9305739402771
aF54.284708976745605
aF14.289997816085815
aF26.033545970916748
aF23.092423915863037
aF135.84169220924377
aF27.944751977920532
aF22.720844984054565
aF74.83644413948059
aF34.214524030685425
aF36.24510407447815
aF231.36259388923645
aF100.88372898101807
aF42.38527989387512
aF64.66625809669495
aF72.52335214614868
aF15.568436861038208
aF16.146826028823853
aF19.885143041610718
aF25.820461988449097
aF16.960741996765137
aF24.2885799407959
aF31.428317070007324
aF16.36678409576416
aF18.465646028518677
aF51.272616147994995
aF159.64838910102844
aF27.15625500679016
aF26.562057971954346
aF18.758055925369263
aF35.4550518989563
aF26.5728280544281
aF13.989167928695679
aF19.778669118881226
aF23.550503969192505
aF116.3007869720459
aF40.78987908363342
aF15.11030101776123
aF36.45604991912842
aF42.44806885719299
aF40.053122997283936
aF25.019179821014404
aF36.74791717529297
aF23.626447916030884
aF42.80476403236389
aF38.012341022491455
aF26.23164987564087
aF95.24458885192871
aF36.43647503852844
aF17.436415910720825
aF15.597474813461304
aF31.603618144989014
aF80.99663710594177
aF17.247298002243042
aF24.675369024276733
aF35.68689799308777
aF26.401033878326416
aF104.84185004234314
aF20.05568289756775
aF16.548723220825195
aF205.04733800888062
aF55.41242599487305
aF43.77537298202515
aF14.12381911277771
aF20.17686700820923
aF15.375138998031616
aF16.276387929916382
aF16.520458936691284
aF30.168418169021606
aF40.54731297492981
aF14.809186935424805
aF38.39486908912659
aF17.859216928482056
aF25.852626085281372
aF306.17519307136536
aF59.93474197387695
aF15.177434921264648
aF40.11331295967102
aF47.697564125061035
aF18.01810097694397
aF27.13230800628662
aF46.31090807914734
aF74.9716169834137
aF36.16040802001953
aF18.551928997039795
aF31.151961088180542
aF37.88598108291626
aF16.81020188331604
aF49.98479199409485
aF77.8513879776001
aF52.66803193092346
aF58.31158399581909
aF15.310550928115845
aF170.63899087905884
aF22.10871195793152
aF154.86903405189514
aF31.578691005706787
aF24.593058109283447
aF26.22295618057251
aF37.10469698905945
aF24.578834056854248
aF87.51217603683472
aF37.09523415565491
aF33.72453308105469
aF38.6706337928772
aF14.446046829223633
aF15.591928958892822
aF18.437893867492676
aF50.48203992843628
aF16.03392791748047
aF44.54421401023865
aF76.16321086883545
aF38.80478596687317
aF25.36081099510193
aF15.461112022399902
aF29.007028102874756
aF30.155560970306396
aF15.369385004043579
aF39.426356077194214
aF49.73855805397034
aF39.99512004852295
aF300.0516610145569
aF25.75449299812317
aF33.28300714492798
aF17.117846965789795
aF164.3430688381195
aF24.345836877822876
aF23.806413173675537
aF26.506131172180176
aF36.243135929107666
aF64.06165623664856
aF82.91474485397339
aF138.6207070350647
aF15.048413038253784
aF16.90633797645569
aF20.13875412940979
aF146.99144315719604
aF26.48856496810913
aF102.77018308639526
aF14.368083953857422
aF16.676879167556763
aF19.833991050720215
aF17.284263849258423
aF15.620677947998047
aF62.90191411972046
aF53.19501996040344
aF67.73176693916321
aF33.79751801490784
aF15.863569974899292
aF17.41810417175293
aF44.58910298347473
aF23.867712020874023
aF202.24448204040527
aF16.147264003753662
aF17.24643588066101
aF16.7262020111084
aF63.84890079498291
aF35.304157972335815
aF24.543479919433594
aF18.197046041488647
aF14.687461853027344
aF94.11295318603516
aF25.594788074493408
aF25.730665922164917
aF148.69806385040283
aF29.591466903686523
aF31.398866176605225
aF35.24849987030029
aF26.98066210746765
aF16.971971035003662
aF18.144018173217773
aF16.065685987472534
aF34.023930072784424
aF16.485908031463623
aF203.25954794883728
aF51.601053953170776
aF14.543086051940918
aF137.1063039302826
aF23.57717490196228
aF16.011475086212158
aF95.28096103668213
aF13.835466861724854
aF15.5350821018219
aF65.55740118026733
aF14.97048306465149
aF15.330625057220459
aF16.525413990020752
aF102.81576299667358
aF15.323216915130615
aF176.0233039855957
aF18.12571406364441
aF33.7449049949646
aF28.854506015777588
aF42.6937530040741
aF15.311208009719849
aF15.254517078399658
aF29.578752040863037
aF48.896591901779175
aF17.000055074691772
aF32.96481990814209
aF16.464699029922485
aF15.684798955917358
aF19.311573028564453
aF33.39292001724243
aF39.38471603393555
aF69.7594211101532
aF14.881917953491211
aF51.74986219406128
aF14.59259581565857
aF56.73848795890808
aF16.374561071395874
aF43.27387285232544
aF16.556761980056763
aF15.645485162734985
aF57.57135605812073
aF58.59715795516968
aF29.437495946884155
aF44.81479215621948
aF17.24024486541748
aF23.02851104736328
aF27.766486167907715
aF41.32405614852905
aF54.35391902923584
aF69.40667700767517
aF66.64438700675964
aF15.730396032333374
aF33.02078986167908
aF14.397495985031128
aF41.16097712516785
aF33.637449979782104
aF36.261646032333374
aF47.74158811569214
aF40.06925702095032
aF28.756903886795044
aF153.9903199672699
aF17.667139053344727
aF161.55382680892944
aF37.61682391166687
aF25.497057914733887
aF40.90719413757324
aF14.905606985092163
aF67.93827295303345
aF47.01992988586426
aF14.245738983154297
aF18.810698986053467
aF16.195972204208374
aF17.5363609790802
aF64.17714619636536
aF100.71066284179688
aF16.650004863739014
aF17.122798919677734
aF28.23670196533203
aF300.69397497177124
aF39.254956007003784
aF160.6934950351715
aF26.250405073165894
aF23.64449691772461
aF15.19394302368164
aF17.224867820739746
aF46.69522404670715
aF39.109720945358276
aF29.600377082824707
aF123.3441948890686
aF22.833916902542114
aF16.247234106063843
aF102.64177298545837
aF36.909696102142334
aF65.82967209815979
aF25.233978033065796
aF35.304279088974
aF42.57537007331848
aF16.279074907302856
aF55.81965112686157
aF26.72425413131714
aF48.080950021743774
aF35.57117009162903
aF17.217164993286133
aF46.615318775177
aF16.1721830368042
aF16.056456089019775
aF105.68203687667847
aF13.40668797492981
aF25.220001935958862
aF17.138874053955078
aF15.393563985824585
aF46.43241596221924
aF27.75054097175598
aF15.597798824310303
aF24.37698006629944
aF15.940567016601562
aF104.81887698173523
aF16.58846116065979
aF96.20568180084229
aF37.884928941726685
aF14.183714151382446
aF303.125914812088
aF35.174890995025635
aF17.102155208587646
aF29.21357011795044
aF51.13598418235779
aF16.776837825775146
aF174.48304796218872
aF141.9648768901825
aF176.8492591381073
aF16.249474048614502
aF22.278728008270264
aF15.903394937515259
aF73.34425401687622
aF23.852279901504517
aF99.20340514183044
aF56.29752707481384
aF16.27365803718567
aF31.898438930511475
aF64.5309431552887
aF38.03873801231384
aF24.50489902496338
aF39.25345301628113
aF19.5935001373291
aF18.551784992218018
aF30.957412004470825
aF37.16073489189148
aF15.858369827270508
aF33.35739493370056
aF61.01671600341797
aF56.2915780544281
aF20.437596082687378
aF120.84499406814575
aF29.35918116569519
aF211.26399111747742
aF38.08072304725647
aF150.47833514213562
aF15.639546871185303
aF36.55052995681763
aF14.568958044052124
aF26.992470026016235
aF62.762874126434326
aF34.982150077819824
aF15.31592607498169
aF16.668118953704834
aF140.35259079933167
aF33.659587144851685
aF15.691163063049316
aF30.74173903465271
aF27.588441848754883
aF302.0442099571228
aF22.762092113494873
aF15.24729299545288
aF14.814836978912354
aF186.80927300453186
aF15.421980142593384
aF13.871502876281738
aF65.2410831451416
aF36.33899116516113
aF15.417587041854858
aF98.19126605987549
aF38.74827814102173
aF16.796304941177368
aF96.60846710205078
aF35.02347683906555
aF23.458536863327026
aF105.57221508026123
aF40.549219846725464
aF36.510677099227905
aF33.48681092262268
aF17.708889961242676
aF25.85052514076233
aF26.559937000274658
aF30.59884285926819
aF16.136661052703857
aF39.64206790924072
aF25.47615098953247
aF27.66919183731079
aF14.753759860992432
aF48.23290395736694
aF135.93029117584229
aF15.36602783203125
aF36.136784076690674
aF27.385969161987305
aF15.69800090789795
aF17.98404312133789
aF137.64383482933044
aF39.54919505119324
aF15.246747970581055
aF27.353402137756348
aF38.726258993148804
aF17.305577993392944
aF50.97393202781677
aF23.649319171905518
aF209.7623369693756
aF16.985201835632324
aF73.75334286689758
aF68.88216018676758
aF54.42104697227478
aF22.55544686317444
aF15.11977505683899
aF57.524726152420044
aF23.0228431224823
aF32.798083782196045
aF18.167373180389404
aF50.34595990180969
aF20.63032293319702
aF27.298625946044922
aF32.39587688446045
aF19.23092007637024
aF28.32899808883667
aF151.1310579776764
aF15.436216115951538
aF45.86232614517212
aF13.632632970809937
aF15.381365060806274
aF23.35601496696472
aF31.29623293876648
aF46.164268016815186
aF25.695833921432495
aF165.88261008262634
aF116.44694781303406
aF58.196067810058594
aF14.444153070449829
aF84.09248089790344
aF20.095558166503906
aF17.141507863998413
aF154.45818305015564
aF18.280115127563477
aF24.09367299079895
aF16.685227155685425
aF15.465095043182373
aF29.21501088142395
aF35.05300998687744
aF15.275777101516724
aF34.941778898239136
aF16.01491689682007
aF14.8643159866333
aF92.8256368637085
aF125.75248408317566
aF98.87062501907349
aF40.46858191490173
aF40.41664099693298
aF46.34795808792114
aF26.19998788833618
aF25.55685806274414
aF39.882659912109375
aF89.51205205917358
aF26.786269903182983
aF17.382694959640503
aF38.706990003585815
aF17.780193090438843
aF15.972838163375854
aF26.375317096710205
aF16.07600498199463
aF41.95885682106018
aF15.011993885040283
aF15.580020904541016
aF47.4371600151062
aF21.651888847351074
aF24.400041103363037
aF55.70894694328308
aF25.095982789993286
aF16.021111011505127
aF34.44362497329712
aF23.48861598968506
aF17.17694401741028
aF23.554373025894165
aF45.80365610122681
aF33.71942210197449
aF302.572172164917
aF51.688905000686646
aF38.88990306854248
aF14.573545932769775
aF181.85314083099365
aF15.69464111328125
aF15.43626618385315
aF27.371306896209717
aF31.118464946746826
aF59.65244793891907
aF65.02272891998291
aF16.854583978652954
aF13.971127033233643
aF83.41973686218262
aF34.311192989349365
aF34.26057696342468
aF16.766825914382935
aF16.037864923477173
aF16.44373393058777
aF32.39982199668884
aF95.91526889801025
aF40.56483292579651
aF33.761712074279785
aF155.4136700630188
aF127.91026902198792
aF24.578808069229126
aF17.658726930618286
aF114.94856309890747
aF35.634459018707275
aF17.022602081298828
aF29.687663078308105
aF15.90366506576538
aF27.46719789505005
aF25.275511026382446
aF128.01943683624268
aF57.893248081207275
aF39.12707495689392
aF41.73795700073242
aF17.85364079475403
aF19.58986496925354
aF60.63140797615051
aF35.507609128952026
aF12.467581987380981
aF15.694074869155884
aF38.262645959854126
aF22.19353699684143
aF301.40532302856445
aF26.29900813102722
aF303.7662670612335
aF52.89206409454346
aF93.21630001068115
aF15.623714208602905
aF15.784964084625244
aF24.084316968917847
aF173.29659509658813
aF27.21044898033142
aF14.540757179260254
aF17.449424982070923
aF35.933237075805664
aF301.58170795440674
aF107.08792805671692
aF27.493025064468384
aF292.51479411125183
aF75.7030348777771
aF22.561650037765503
aF16.548820972442627
aF17.02530288696289
aF20.316102981567383
aF30.7830171585083
aF14.9290452003479
aF35.985265016555786
aF36.24031209945679
aF34.50461220741272
aF28.751216888427734
aF24.836145162582397
aF45.86386704444885
aF16.70523500442505
aF62.2436420917511
aF17.748353958129883
aF14.198096990585327
aF49.798027992248535
aF15.028311014175415
aF61.10731101036072
aF26.70246410369873
aF16.014793872833252
aF40.434438943862915
aF17.82656502723694
aF39.002334117889404
aF32.76264786720276
aF14.06501293182373
aF17.358195066452026
aF21.97931694984436
aF15.59065294265747
aF16.02896285057068
aF99.49744486808777
aF29.54425311088562
aF26.746317863464355
aF34.149523973464966
aF24.098129987716675
aF34.03451895713806
aF28.581384897232056
aF101.86326193809509
aF16.394423961639404
aF17.169294834136963
aF27.26448392868042
aF24.491703987121582
aF103.352854013443
aF27.48427104949951
aF84.24283194541931
aF129.57369709014893
aF68.03849911689758
aF305.03626704216003
aF39.27895712852478
aF41.751166105270386
aF17.11523985862732
aF38.11999297142029
aF14.211157083511353
aF42.246641874313354
aF38.34221291542053
aF28.347816944122314
aF24.076327085494995
aF74.27047300338745
aF24.44863200187683
aF50.13819098472595
aF302.9373481273651
aF37.54755783081055
aF32.236392974853516
aF25.926923036575317
aF90.3153281211853
aF32.61940407752991
aF29.432854890823364
aF15.477018117904663
aF34.200258016586304
aF17.57548999786377
aF37.388278007507324
aF77.74689602851868
aF23.996989965438843
aF33.873404026031494
aF25.860331058502197
aF301.62387704849243
aF108.2057580947876
aF26.237787008285522
aF215.4320149421692
aF16.15543007850647
aF34.206794023513794
aF125.7027759552002
aF19.17817497253418
aF16.82938003540039
aF26.558984994888306
aF20.54905104637146
aF25.32900595664978
aF48.14515805244446
aF15.417567014694214
aF27.976897954940796
aF17.438735008239746
aF61.127593994140625
aF13.851335048675537
aF116.18116784095764
aF16.20194911956787
aF31.05871891975403
aF28.356213092803955
aF18.077903032302856
aF26.09415912628174
aF34.91983699798584
aF114.20790791511536
aF46.75542497634888
aF64.74384093284607
aF24.008682012557983
aF27.41881799697876
aF33.30692911148071
aF37.337990045547485
aF25.505244970321655
aF37.06089997291565
aF21.98914384841919
aF26.64688205718994
aF35.52902603149414
aF14.502209186553955
aF16.91402292251587
aF15.116447925567627
aF26.693876028060913
aF35.1831488609314
aF97.8915388584137
aF28.1633460521698
aF30.038399934768677
aF17.634382963180542
aF77.34248280525208
aF38.11041283607483
aF27.503318786621094
aF25.178588151931763
aF40.03893518447876
aF15.551991939544678
aF32.338330030441284
aF23.775779962539673
aF16.75125002861023
aF14.502708911895752
aF41.44635200500488
aF21.614989042282104
aF27.270856142044067
aF33.45347189903259
aF132.936851978302
aF47.5517041683197
aF16.57415795326233
aF15.965128898620605
aF17.482696056365967
aF30.246217012405396
aF43.60253691673279
aF26.719722032546997
aF37.910207986831665
aF15.595378160476685
aF25.237031936645508
aF15.703369855880737
aF24.54084086418152
aF36.334782123565674
aF12.70453405380249
aF39.65470910072327
aF147.9853150844574
aF17.595194101333618
aF16.25313687324524
aF33.56820583343506
aF64.18900084495544
aF26.08721399307251
aF16.89056706428528
aF149.87558817863464
aF19.112528800964355
aF19.31962299346924
aF17.577409029006958
aF68.05553793907166
aF42.91865015029907
aF14.888836145401001
aF25.12461280822754
aF46.04020285606384
aF15.676351070404053
aF15.806899070739746
aF13.66016411781311
aF23.51493501663208
aF24.88010287284851
aF45.61515498161316
aF53.01201105117798
aF15.670170068740845
aF24.2431960105896
aF14.66667103767395
aF28.790154933929443
aF17.48536491394043
aF15.406044006347656
aF59.719056844711304
aF50.65278601646423
aF30.90632700920105
aF36.84244990348816
aF15.51127290725708
aF26.29763913154602
aF16.767198085784912
aF32.35837006568909
aF116.40428590774536
aF39.62819480895996
aF48.704164028167725
aF28.42869806289673
aF31.038343906402588
aF48.46451497077942
aF102.6131649017334
aF27.59885883331299
aF25.85439920425415
aF26.361912965774536
aF16.51190495491028
aF17.898128032684326
aF13.976901054382324
aF13.251373052597046
aF29.282127857208252
aF30.06142282485962
aF27.815120935440063
aF25.973365783691406
aF27.52543592453003
aF303.7102270126343
aF21.328768014907837
aF27.512331008911133
aF32.05428600311279
aF59.12678599357605
aF15.170034885406494
aF17.190868854522705
aF17.181315898895264
aF39.99525809288025
aF24.274089097976685
aF103.92049407958984
aF13.761070966720581
aF16.526485919952393
aF29.052104949951172
aF47.67758798599243
aF80.86574006080627
aF14.713860988616943
aF23.06444001197815
aF32.672881841659546
aF17.911251068115234
aF28.069695949554443
aF56.892975091934204
aF21.39538598060608
aF25.579957008361816
aF30.526066064834595
aF17.534036874771118
aF31.491117000579834
aF47.503499031066895
aF38.73441696166992
aF41.48782992362976
aF76.21055006980896
aF16.72383689880371
aF26.56012797355652
aF35.04878783226013
aF40.46256685256958
aF25.805132150650024
aF16.55479407310486
aF25.7392258644104
aF37.88022184371948
aF25.251070976257324
aF23.639250993728638
aF65.08965396881104
aF21.86527705192566
aF17.980483055114746
aF17.689292192459106
aF113.27682185173035
aF25.919790029525757
aF16.189401149749756
aF16.343425035476685
aF24.653213024139404
aF15.880702018737793
aF24.658851146697998
aF25.485790014266968
aF13.74775218963623
aF28.577784776687622
aF27.28717803955078
aF66.41207814216614
aF14.658416032791138
aF27.22846293449402
aF15.83462405204773
aF43.233802795410156
aF58.44029402732849
aF95.11601185798645
aF34.326257944107056
aF27.475409984588623
aF29.032922983169556
aF17.61369800567627
aF34.38837814331055
aF65.62018704414368
aF24.443870067596436
aF20.26649308204651
aF65.53662085533142
aF18.015447854995728
aF31.822455883026123
aF35.8560950756073
aF35.05585289001465
aF35.20318603515625
aF134.39608716964722
aF14.934195041656494
aF16.63889503479004
aF15.709498882293701
aF35.83996605873108
aF15.28250789642334
aF34.79303789138794
aF15.631004810333252
aF25.1569881439209
aF25.189960956573486
aF13.708184957504272
aF15.48340392112732
aF15.898100852966309
aF166.44817209243774
aF19.793928146362305
aF18.11880898475647
aF16.059852123260498
aF25.160927057266235
aF25.47620701789856
aF14.972393035888672
aF116.66939091682434
aF27.0435631275177
aF161.2565770149231
aF43.45948004722595
aF37.46484017372131
aF24.01341414451599
aF53.99863910675049
aF52.103193044662476
aF203.13526701927185
aF35.49360799789429
aF14.35601806640625
aF41.77798104286194
aF16.99362301826477
aF16.07527494430542
aF18.229919910430908
aF46.28412580490112
aF17.589142084121704
aF26.914763927459717
aF16.26621699333191
aF23.140329122543335
aF35.09852194786072
aF19.004915952682495
aF44.93337798118591
aF15.338633060455322
aF27.011903047561646
aF25.383059978485107
aF15.499734163284302
aF21.718177795410156
aF24.691416025161743
aF147.19265699386597
aF105.42603302001953
aF67.3838300704956
aF37.795504093170166
aF17.684845209121704
aF30.50874090194702
aF44.7743980884552
aF15.864989042282104
aF15.277542114257812
aF31.103713035583496
aF15.269299983978271
aF16.056108951568604
aF14.150806188583374
aF32.41493582725525
aF47.70611596107483
as.