(dp0
S'successes'
p1
(lp2
I01
aI01
aI01
aI01
aI01
aI01
aI01
aI01
aI01
aI01
aI01
aI01
aI01
aI01
aI01
aI01
aI01
aI01
aI01
aI01
aI01
aI01
aI01
aI01
aI01
aI01
aI01
aI01
aI01
aI01
aI01
aI01
aI01
aI01
aI01
aI01
aI01
aI01
aI01
aI01
aI01
aI01
aI01
aI01
aI01
aI01
aI01
aI01
aI01
aI01
aI01
aI01
aI01
aI01
aI01
aI01
aI01
aI01
aI01
aI01
aI01
aI01
aI01
aI01
aI01
aI01
aI01
aI01
aI01
aI01
aI01
aI01
aI01
aI01
aI01
aI01
aI01
aI01
aI01
aI01
aI01
aI01
aI01
aI01
aI01
aI01
aI01
aI01
aI01
aI01
aI01
aI01
aI01
aI01
aI01
aI01
aI01
aI01
aI01
aI01
aI01
aI01
aI01
aI01
aI01
aI01
aI01
aI01
aI01
aI01
aI01
aI01
aI01
aI01
aI01
aI01
aI01
aI01
aI01
aI01
aI01
aI01
aI01
aI01
aI01
aI01
aI01
aI01
aI01
aI01
aI01
aI01
aI01
aI01
aI01
aI01
aI01
aI01
aI01
aI01
aI01
aI01
aI01
aI01
aI01
aI01
aI01
aI01
aI01
aI01
aI01
aI01
aI01
aI01
aI01
aI01
aI01
aI01
aI01
aI01
aI01
aI01
aI01
aI01
aI01
aI01
aI01
aI01
aI01
aI01
aI01
aI01
aI01
aI01
aI01
aI01
aI01
aI01
aI01
aI01
aI01
aI00
aI01
aI01
aI01
aI01
aI01
aI01
aI01
aI01
aI01
aI01
aI01
aI01
aI01
aI01
aI01
aI01
aI01
aI01
aI01
aI01
aI01
aI01
aI01
aI01
aI01
aI01
aI01
aI01
aI01
aI01
aI01
aI01
aI01
aI01
aI01
aI01
aI01
aI01
aI01
aI01
aI01
aI01
aI01
aI01
aI01
aI01
aI01
aI01
aI01
aI01
aI01
aI01
aI01
aI01
aI01
aI01
aI01
aI01
aI01
aI01
aI01
aI01
aI01
aI01
aI01
aI01
aI01
aI01
aI01
aI01
aI01
aI01
aI01
aI01
aI01
aI01
aI01
aI01
aI01
aI01
aI01
aI01
aI01
aI01
aI01
aI01
aI01
aI01
aI01
aI01
aI01
aI01
aI01
aI01
aI01
aI01
aI01
aI01
aI01
aI01
aI01
aI01
aI01
aI01
aI01
aI01
aI01
aI01
aI01
aI01
aI01
aI01
aI01
aI01
aI01
aI01
aI01
aI01
aI01
aI01
aI01
aI01
aI01
aI01
aI01
aI01
aI01
asS'pidxs'
p3
(lp4
I20053
aI20025
aI20017
aI20026
aI20013
aI20006
aI20031
aI20007
aI20052
aI20009
aI20019
aI20008
aI20038
aI20044
aI20004
aI20053
aI20003
aI20045
aI20061
aI20022
aI20027
aI20016
aI20017
aI20048
aI20025
aI20032
aI20034
aI20039
aI20024
aI20027
aI20042
aI20034
aI20011
aI20057
aI20028
aI20011
aI20005
aI20068
aI20029
aI20051
aI20069
aI20008
aI20044
aI20024
aI20028
aI20004
aI20058
aI20023
aI20023
aI20062
aI20064
aI20043
aI20020
aI20031
aI20026
aI20055
aI20004
aI20014
aI20046
aI20048
aI20030
aI20039
aI20056
aI20048
aI20022
aI20049
aI20065
aI20032
aI20049
aI20042
aI20020
aI20039
aI20046
aI20014
aI20004
aI20013
aI20013
aI20000
aI20063
aI20044
aI20057
aI20045
aI20006
aI20046
aI20054
aI20017
aI20059
aI20051
aI20036
aI20012
aI20008
aI20060
aI20057
aI20009
aI20011
aI20020
aI20041
aI20033
aI20028
aI20054
aI20056
aI20041
aI20041
aI20059
aI20010
aI20040
aI20003
aI20027
aI20026
aI20043
aI20010
aI20029
aI20010
aI20037
aI20000
aI20014
aI20036
aI20037
aI20043
aI20066
aI20000
aI20062
aI20014
aI20066
aI20007
aI20041
aI20050
aI20001
aI20047
aI20036
aI20050
aI20001
aI20010
aI20061
aI20056
aI20050
aI20026
aI20035
aI20063
aI20025
aI20064
aI20025
aI20047
aI20004
aI20057
aI20042
aI20003
aI20033
aI20050
aI20045
aI20063
aI20062
aI20052
aI20015
aI20024
aI20062
aI20024
aI20057
aI20045
aI20042
aI20070
aI20006
aI20008
aI20020
aI20019
aI20012
aI20016
aI20058
aI20058
aI20058
aI20002
aI20007
aI20001
aI20055
aI20029
aI20021
aI20017
aI20071
aI20035
aI20015
aI20061
aI20030
aI20019
aI20006
aI20056
aI20012
aI20040
aI20064
aI20002
aI20023
aI20018
aI20030
aI20035
aI20052
aI20016
aI20001
aI20038
aI20011
aI20044
aI20033
aI20032
aI20021
aI20001
aI20039
aI20005
aI20035
aI20002
aI20060
aI20033
aI20038
aI20027
aI20000
aI20049
aI20040
aI20010
aI20033
aI20009
aI20006
aI20065
aI20041
aI20017
aI20021
aI20000
aI20022
aI20042
aI20047
aI20038
aI20032
aI20018
aI20031
aI20060
aI20005
aI20051
aI20063
aI20022
aI20011
aI20056
aI20002
aI20000
aI20050
aI20054
aI20058
aI20026
aI20059
aI20016
aI20031
aI20007
aI20054
aI20019
aI20003
aI20053
aI20012
aI20015
aI20059
aI20008
aI20045
aI20065
aI20009
aI20020
aI20072
aI20021
aI20043
aI20048
aI20049
aI20016
aI20035
aI20013
aI20046
aI20052
aI20036
aI20030
aI20007
aI20015
aI20031
aI20051
aI20055
aI20036
aI20049
aI20034
aI20027
aI20053
aI20034
aI20003
aI20012
aI20023
aI20013
aI20028
aI20005
aI20055
aI20060
aI20053
aI20025
aI20044
aI20064
aI20029
aI20037
aI20054
aI20051
aI20037
aI20047
aI20019
aI20024
aI20018
aI20005
aI20018
aI20028
aI20022
aI20029
aI20040
asS'plan_length'
p5
(lp6
I49
aI57
aI83
aI18
aI116
aI16
aI38
aI31
aI47
aI28
aI147
aI19
aI250
aI201
aI43
aI72
aI54
aI27
aI38
aI20
aI26
aI33
aI37
aI75
aI52
aI44
aI38
aI83
aI25
aI41
aI22
aI126
aI65
aI165
aI58
aI90
aI34
aI34
aI155
aI24
aI49
aI21
aI30
aI123
aI22
aI121
aI34
aI119
aI10
aI37
aI19
aI29
aI167
aI33
aI98
aI18
aI54
aI24
aI264
aI78
aI71
aI44
aI139
aI113
aI37
aI230
aI32
aI166
aI12
aI193
aI325
aI102
aI64
aI63
aI328
aI77
aI58
aI61
aI49
aI21
aI65
aI81
aI86
aI14
aI49
aI49
aI73
aI89
aI45
aI53
aI78
aI94
aI60
aI73
aI159
aI25
aI59
aI97
aI73
aI93
aI29
aI24
aI53
aI66
aI31
aI21
aI30
aI85
aI34
aI162
aI36
aI68
aI49
aI153
aI35
aI67
aI39
aI28
aI55
aI89
aI15
aI57
aI20
aI174
aI57
aI50
aI40
aI46
aI19
aI13
aI97
aI198
aI59
aI202
aI114
aI24
aI44
aI22
aI39
aI33
aI22
aI18
aI24
aI21
aI21
aI28
aI264
aI109
aI213
aI30
aI17
aI32
aI62
aI21
aI228
aI24
aI37
aI34
aI11
aI197
aI59
aI27
aI97
aI75
aI24
aI19
aI82
aI81
aI17
aI17
aI50
aI31
aI124
aI170
aI49
aI41
aI37
aI68
aI19
aI50
aI21
aI28
aI54
aI34
aI42
aI39
aI73
aI37
aI78
aI26
aI36
aI77
aI162
aI34
aI74
aI24
aI60
aI76
aI48
aI61
aI188
aI43
aI54
aI35
aI63
aI208
aI66
aI31
aI10
aI139
aI32
aI293
aI34
aI123
aI42
aI92
aI72
aI17
aI60
aI60
aI82
aI15
aI38
aI20
aI17
aI94
aI28
aI68
aI132
aI46
aI60
aI84
aI40
aI110
aI24
aI53
aI137
aI53
aI63
aI40
aI137
aI150
aI21
aI105
aI31
aI167
aI63
aI86
aI47
aI21
aI107
aI176
aI59
aI72
aI19
aI73
aI23
aI43
aI25
aI53
aI19
aI53
aI31
aI11
aI86
aI21
aI84
aI50
aI46
aI95
aI78
aI65
aI37
aI61
aI47
aI191
aI105
aI72
aI36
aI41
aI127
aI30
aI31
aI29
aI29
aI29
aI37
aI43
aI38
aI12
aI107
aI44
aI45
aI36
aI102
aI114
aI69
aI30
aI127
aI145
aI271
aI100
aI75
aI38
aI84
aI116
aI63
aI38
asS'num_nodes'
p7
(lp8
I155
aI288
aI484
aI135
aI479
aI51
aI128
aI209
aI243
aI91
aI461
aI65
aI466
aI348
aI142
aI232
aI242
aI121
aI97
aI488
aI135
aI153
aI164
aI310
aI304
aI135
aI121
aI144
aI106
aI121
aI60
aI411
aI193
aI379
aI294
aI303
aI193
aI116
aI607
aI99
aI157
aI53
aI69
aI717
aI146
aI661
aI93
aI387
aI13
aI130
aI60
aI185
aI397
aI171
aI287
aI41
aI173
aI38
aI492
aI172
aI310
aI158
aI533
aI639
aI292
aI473
aI138
aI861
aI36
aI650
aI897
aI236
aI188
aI135
aI547
aI340
aI333
aI171
aI128
aI121
aI275
aI346
aI514
aI30
aI231
aI356
aI259
aI343
aI85
aI234
aI634
aI370
aI190
aI224
aI474
aI153
aI101
aI295
aI232
aI266
aI144
aI86
aI144
aI282
aI232
aI39
aI92
aI476
aI246
aI606
aI125
aI226
aI487
aI325
aI140
aI213
aI154
aI258
aI193
aI186
aI58
aI116
aI102
aI533
aI237
aI128
aI213
aI161
aI40
aI28
aI267
aI454
aI290
aI1134
aI481
aI80
aI220
aI63
aI138
aI111
aI81
aI146
aI122
aI98
aI61
aI60
aI524
aI373
aI566
aI153
aI71
aI168
aI217
aI58
aI469
aI99
aI115
aI173
aI48
aI493
aI220
aI46
aI418
aI203
aI125
aI70
aI372
aI173
aI44
aI25
aI175
aI170
aI435
aI393
aI259
aI100
aI205
aI221
aI67
aI247
aI71
aI1017
aI74
aI266
aI195
aI135
aI161
aI186
aI117
aI158
aI82
aI191
aI261
aI614
aI81
aI347
aI86
aI348
aI308
aI115
aI160
aI932
aI139
aI119
aI119
aI387
aI408
aI417
aI130
aI33
aI514
aI76
aI560
aI148
aI580
aI153
aI411
aI294
aI57
aI126
aI287
aI193
aI20
aI554
aI77
aI110
aI360
aI103
aI325
aI615
aI301
aI364
aI513
aI274
aI562
aI101
aI420
aI540
aI224
aI104
aI99
aI263
aI318
aI181
aI358
aI142
aI447
aI228
aI372
aI132
aI86
aI254
aI504
aI335
aI241
aI70
aI198
aI98
aI120
aI132
aI96
aI51
aI267
aI269
aI21
aI290
aI90
aI312
aI134
aI143
aI205
aI292
aI160
aI144
aI133
aI136
aI700
aI302
aI222
aI179
aI185
aI492
aI198
aI91
aI142
aI207
aI101
aI195
aI275
aI122
aI21
aI459
aI220
aI75
aI126
aI366
aI256
aI678
aI115
aI348
aI296
aI1050
aI183
aI187
aI204
aI357
aI1139
aI181
aI134
asS'times'
p9
(lp10
F349.1791660785675
aF541.1547200679779
aF842.620274066925
aF223.44709396362305
aF964.5975060462952
aF110.30725812911987
aF319.9548921585083
aF376.5269260406494
aF517.9967439174652
aF200.98752808570862
aF1179.6942629814148
aF155.21727895736694
aF1617.264358997345
aF1180.233678817749
aF321.0071589946747
aF501.82855916023254
aF642.7620339393616
aF279.10024404525757
aF256.3388910293579
aF453.7306318283081
aF231.0679030418396
aF266.559828042984
aF321.4240801334381
aF625.871465921402
aF499.5505270957947
aF347.6694781780243
aF283.53432393074036
aF518.3368740081787
aF232.88367199897766
aF285.55913281440735
aF213.9919581413269
aF937.0187840461731
aF524.8718330860138
aF1003.1245918273926
aF615.3155360221863
aF611.598503112793
aF377.3279399871826
aF256.3150038719177
aF1362.4078059196472
aF239.2256999015808
aF350.16287088394165
aF148.07572293281555
aF186.6065661907196
aF1336.0623648166656
aF268.49751591682434
aF1080.9582509994507
aF275.1148900985718
aF958.0763411521912
aF76.11079502105713
aF281.94906401634216
aF170.35308980941772
aF314.691143989563
aF1062.6833181381226
aF292.64325404167175
aF738.9892070293427
aF115.68636894226074
aF418.75198101997375
aF144.06700992584229
aF1633.5100688934326
aF560.7595970630646
aF772.1692039966583
aF324.6017758846283
aF1218.2806520462036
aF1005.7497169971466
aF438.72695684432983
aF1395.7234680652618
aF249.0648810863495
aF1863.6757481098175
aF96.86703586578369
aF1426.6870698928833
aF2376.219117164612
aF686.3252160549164
aF487.0014898777008
aF373.0278859138489
aF1979.955675125122
aF720.4192628860474
aF564.7237348556519
aF449.91379499435425
aF377.1224060058594
aF238.92193913459778
aF543.5619010925293
aF689.2832980155945
aF1112.3846669197083
aF101.09105610847473
aF521.9299900531769
aF751.4317378997803
aF536.1380920410156
aF652.5958051681519
aF257.87575697898865
aF513.5725319385529
aF947.3688349723816
aF759.4913249015808
aF651.0539410114288
aF522.1724328994751
aF1213.3997540473938
aF275.96067905426025
aF314.6264350414276
aF695.0291318893433
aF558.7263920307159
aF622.7433490753174
aF278.0882201194763
aF203.31292295455933
aF365.5247468948364
aF531.9918360710144
aF381.76802706718445
aF142.20209288597107
aF326.2931778430939
aF837.5850710868835
aF484.1477448940277
aF1744.1985080242157
aF328.74703788757324
aF482.2278518676758
aF613.7786469459534
aF906.0850229263306
aF341.17442893981934
aF554.8161749839783
aF319.1596100330353
aF447.0625960826874
aF414.01232409477234
aF556.1614689826965
aF149.6371328830719
aF357.5149748325348
aF163.30777502059937
aF1282.7772951126099
aF439.08260107040405
aF325.82121205329895
aF405.3912229537964
aF354.0180399417877
aF115.95159387588501
aF95.96748304367065
aF697.9136788845062
aF1348.35897397995
aF481.03006887435913
aF2155.973813056946
aF1003.8984751701355
aF199.37025117874146
aF412.8685209751129
aF165.45626592636108
aF339.95005893707275
aF233.92837405204773
aF173.5006718635559
aF250.009094953537
aF220.56194806098938
aF196.0934660434723
aF163.50102496147156
aF171.8833088874817
aF1579.7129769325256
aF852.7980539798737
aF1289.8819110393524
aF285.04483795166016
aF133.76898384094238
aF316.69596910476685
aF496.93324398994446
aF151.95132088661194
aF1888.0960500240326
aF234.87334299087524
aF261.24843096733093
aF412.62445402145386
aF95.26042413711548
aF1388.3792581558228
aF489.98851108551025
aF153.01035499572754
aF1048.1313481330872
aF511.1783239841461
aF227.34925198554993
aF166.93258380889893
aF703.9461250305176
aF589.5858092308044
aF115.75048899650574
aF106.53600311279297
aF415.7409391403198
aF412.3318519592285
aF1101.0368740558624
aF1168.664608001709
aF476.23955607414246
aF260.62835216522217
aF396.2996509075165
aF522.2490200996399
aF157.66368985176086
aF495.06495690345764
aF155.4564402103424
aF2403.1285140514374
aF204.39551401138306
aF584.1289460659027
aF320.6334249973297
aF296.9101459980011
aF369.88849115371704
aF489.4168360233307
aF310.8194091320038
aF514.8470289707184
aF201.37308812141418
aF366.69463205337524
aF830.417417049408
aF1472.924220085144
aF244.60116910934448
aF728.0752818584442
aF231.78933215141296
aF565.0182030200958
aF652.4905169010162
aF336.8684170246124
aF462.9887909889221
aF1871.4134171009064
aF314.1463749408722
aF317.0194399356842
aF291.6965010166168
aF621.6821179389954
aF1231.5606091022491
aF700.8077549934387
aF280.2811288833618
aF88.61212992668152
aF1278.346871137619
aF231.20727705955505
aF1884.486937046051
aF300.7290699481964
aF1052.3572268486023
aF421.125461101532
aF895.9116129875183
aF582.6457040309906
aF158.30603504180908
aF389.93511295318604
aF495.15267395973206
aF614.4540050029755
aF84.38299608230591
aF592.4300520420074
aF169.46609210968018
aF197.8103768825531
aF876.0385918617249
aF202.95788192749023
aF618.8359639644623
aF1109.7570769786835
aF513.3017270565033
aF562.8873841762543
aF812.8936069011688
aF450.24458503723145
aF1071.32586312294
aF198.8969759941101
aF681.0709300041199
aF1080.0945739746094
aF568.1042068004608
aF396.6857810020447
aF292.10633087158203
aF843.0540587902069
aF901.4678199291229
aF275.4422550201416
aF820.3622460365295
aF292.62454986572266
aF2097.9642729759216
aF551.3474409580231
aF735.7327089309692
aF358.6554889678955
aF176.8028440475464
aF682.8973739147186
aF1164.0402719974518
aF617.9673790931702
aF540.7265939712524
aF209.38366889953613
aF535.8008749485016
aF229.34752893447876
aF311.1559569835663
aF269.9489920139313
aF342.53492498397827
aF177.44923996925354
aF516.1137969493866
aF397.3787851333618
aF78.97590589523315
aF690.3890650272369
aF189.9959738254547
aF630.2103519439697
aF423.1897749900818
aF368.0848138332367
aF643.6389009952545
aF699.1639921665192
aF431.28984904289246
aF308.8780257701874
aF370.040078163147
aF324.9665939807892
aF1475.6374340057373
aF747.8027529716492
aF542.9426870346069
aF333.10671305656433
aF324.21496987342834
aF1088.0125048160553
aF350.197900056839
aF228.76939821243286
aF282.610454082489
aF350.0506999492645
aF239.84139585494995
aF370.60831022262573
aF494.6733250617981
aF303.2067940235138
aF75.04121088981628
aF994.1497559547424
aF452.098748922348
aF288.6558470726013
aF307.7948679924011
aF784.7465200424194
aF764.0751478672028
aF1490.0137569904327
aF281.49672293663025
aF897.8309059143066
aF949.647912979126
aF2219.977073907852
aF618.9984240531921
aF484.35456895828247
aF391.974977016449
aF810.3404271602631
aF1387.9911060333252
aF439.45770812034607
aF345.9027318954468
as.