(dp0
S'successes'
p1
(lp2
I01
aI01
aI01
aI01
aI01
aI01
aI01
aI01
aI01
aI01
aI01
aI01
aI01
aI01
aI01
aI01
aI00
aI01
aI01
aI01
aI01
aI01
aI01
aI01
aI01
aI01
aI01
aI01
aI01
aI01
aI01
aI01
aI01
aI01
aI01
aI01
aI01
aI01
aI01
aI01
aI01
aI01
aI01
aI01
aI01
aI01
aI01
aI01
aI01
aI01
aI01
aI01
aI01
aI01
aI01
aI01
aI01
aI01
aI01
aI01
aI01
aI01
aI01
aI00
aI01
aI01
aI01
aI01
aI01
aI01
aI01
aI01
aI01
aI01
aI01
aI01
aI01
aI01
aI01
aI01
aI01
aI01
aI01
aI01
aI01
aI01
aI01
aI01
aI01
aI01
aI01
aI01
aI01
aI01
aI01
aI01
aI01
aI01
aI01
aI01
aI01
aI01
aI01
aI01
aI01
aI01
aI01
aI01
aI01
aI01
aI01
aI01
aI01
aI01
aI01
aI01
aI01
aI01
aI01
aI01
aI01
aI01
aI01
aI01
aI01
aI01
aI01
aI01
aI01
aI01
aI01
aI01
aI01
aI01
aI01
aI01
aI01
aI01
aI01
aI01
aI01
aI01
aI01
aI01
aI01
aI01
aI01
aI01
aI01
aI01
aI01
aI01
aI01
aI01
aI01
aI01
aI01
aI01
aI01
aI01
aI01
aI01
aI01
aI01
aI01
aI01
aI01
aI01
aI01
aI01
aI01
aI01
aI01
aI01
aI01
aI00
aI01
aI01
aI01
aI01
aI01
aI01
aI01
aI01
aI01
aI01
aI01
aI01
aI01
aI01
aI01
aI01
aI01
aI01
aI01
aI01
aI01
aI01
aI01
aI01
aI01
aI01
aI01
aI01
aI01
aI01
aI01
aI01
aI01
aI01
aI01
aI01
aI01
aI01
aI01
aI01
aI01
aI01
aI01
aI01
aI01
aI01
aI01
aI01
aI01
aI01
aI01
aI01
aI01
aI01
aI01
aI01
aI01
aI01
aI01
aI01
aI01
aI01
aI01
aI01
aI01
aI01
aI01
aI01
aI01
aI01
aI01
aI01
aI01
aI01
aI01
aI01
aI01
aI01
aI01
aI01
aI01
aI01
aI01
aI01
aI01
aI01
aI01
aI01
aI01
aI01
aI01
aI01
aI01
aI01
aI01
aI01
aI01
aI01
aI01
aI01
aI01
aI01
aI01
aI01
aI01
aI01
aI01
aI01
aI01
aI01
aI01
aI01
aI01
aI01
aI01
aI01
aI01
aI01
aI01
aI01
aI01
aI01
aI01
aI01
aI01
aI01
aI01
aI01
aI01
aI01
aI01
aI01
aI01
aI01
aI01
aI01
aI01
aI01
aI01
aI00
aI01
aI01
aI01
aI01
aI01
aI01
aI01
aI01
aI01
aI01
aI01
aI01
aI01
aI01
aI01
aI01
aI01
aI01
aI01
aI01
aI01
aI01
aI01
aI01
aI01
aI01
aI01
aI01
aI01
aI01
aI01
aI01
aI01
aI01
aI01
aI01
aI01
aI01
aI01
aI01
aI01
aI01
aI01
aI01
aI01
aI01
aI01
aI01
aI01
aI01
aI01
aI01
aI01
aI01
aI01
aI01
aI01
aI01
aI01
aI01
aI01
aI01
aI01
aI01
aI01
aI01
aI01
aI01
aI01
aI01
aI01
aI01
aI01
aI01
aI01
aI01
aI01
aI01
aI01
aI00
aI01
aI01
aI01
aI01
aI01
aI01
aI01
aI01
aI01
aI01
aI01
aI01
aI01
aI01
aI01
aI01
aI01
aI01
aI01
aI01
aI01
aI01
aI01
aI01
aI01
aI01
aI01
aI01
aI01
aI01
aI01
aI01
aI01
aI01
aI01
aI01
aI01
aI01
aI01
aI01
aI01
aI01
aI01
aI01
aI01
aI01
aI01
aI01
aI01
aI01
aI01
aI01
aI01
aI01
aI01
aI01
aI01
aI01
aI01
aI01
aI01
aI01
aI01
aI01
aI01
aI01
aI01
aI01
aI01
aI01
aI01
aI01
aI01
aI01
aI01
aI01
aI01
aI01
aI01
aI01
aI01
aI01
aI01
aI01
aI01
aI01
aI01
aI01
aI01
aI01
aI01
aI01
aI01
aI01
aI00
aI01
aI01
aI01
aI01
aI01
aI01
aI01
aI01
aI01
aI01
aI01
aI01
aI01
aI01
aI01
aI01
aI01
aI01
aI01
aI01
aI01
aI01
aI01
aI01
aI01
aI01
aI01
aI01
aI01
aI01
aI01
aI01
aI01
aI01
aI01
aI01
aI01
aI01
aI01
aI01
aI01
aI01
aI01
aI01
aI01
aI01
aI01
aI01
aI01
aI01
aI01
aI01
aI01
aI01
aI01
aI01
aI01
aI01
aI01
aI01
aI01
aI01
aI01
aI01
aI01
aI01
aI01
aI01
aI01
aI01
aI01
aI01
aI01
aI01
aI01
aI01
aI01
aI01
aI01
aI01
aI01
aI00
aI01
aI01
aI01
aI01
aI01
aI01
aI01
aI01
aI01
aI01
aI00
aI01
aI01
aI01
aI01
aI01
aI01
aI00
aI01
aI01
aI01
aI01
aI01
aI01
aI01
aI01
aI01
aI01
aI01
aI00
aI01
aI01
aI01
aI01
aI01
aI01
aI01
aI01
aI01
aI01
aI01
aI01
aI00
aI01
aI01
aI01
aI01
aI00
aI01
aI01
aI01
aI01
aI01
aI01
aI01
aI01
aI01
aI01
aI01
aI01
aI01
aI01
aI01
aI01
aI01
aI01
aI01
aI01
aI01
aI01
aI01
aI01
aI01
aI01
aI01
aI01
aI01
aI01
aI01
aI01
aI01
aI01
aI01
aI01
aI01
aI01
aI01
aI01
aI01
aI01
aI01
aI01
aI01
aI01
aI01
aI01
aI01
aI01
aI01
aI01
aI01
aI01
aI01
aI01
aI01
aI01
aI01
aI01
aI01
aI01
aI01
aI01
aI01
aI01
aI01
aI01
aI01
aI01
aI01
aI01
aI01
aI01
aI01
aI01
aI01
aI01
aI01
aI01
aI01
aI01
aI01
aI01
aI01
aI01
aI01
aI01
aI01
aI01
aI01
aI01
aI01
aI01
aI01
aI01
aI01
aI01
aI01
aI01
aI01
aI01
aI01
aI01
aI01
aI01
aI01
aI01
aI01
aI01
aI01
aI01
aI01
aI01
aI01
aI01
aI01
aI01
aI01
aI01
aI01
aI01
aI01
aI01
aI01
aI01
aI01
aI01
aI01
aI01
aI01
aI01
aI01
aI01
aI01
aI01
aI01
aI01
aI01
aI01
aI01
aI01
aI01
aI01
aI01
aI01
aI01
aI01
aI01
aI01
aI01
aI01
aI01
aI01
aI01
aI01
aI01
aI01
aI01
aI01
aI01
aI01
aI01
aI01
aI00
aI01
aI01
aI01
aI01
aI01
aI01
aI01
aI01
aI01
aI01
aI01
aI01
aI01
aI01
aI01
aI01
aI01
aI01
aI01
aI01
aI01
aI01
aI01
aI01
aI01
aI01
aI00
aI01
aI01
aI01
aI01
aI01
aI01
aI01
aI01
aI01
aI01
aI01
aI01
aI01
aI01
aI01
aI01
aI01
aI01
aI01
aI01
aI01
aI01
aI01
aI01
aI01
aI01
aI00
aI01
aI01
aI01
aI01
aI01
aI01
aI01
aI01
aI01
aI01
aI01
aI01
aI01
aI01
aI00
aI01
aI01
aI01
aI01
aI01
aI01
aI01
aI01
aI01
aI01
aI01
aI01
aI01
aI01
aI01
aI01
aI01
aI01
aI01
aI01
aI01
aI01
aI01
aI01
aI01
aI01
aI01
aI01
aI01
aI01
aI01
aI01
aI01
aI01
aI01
aI01
aI01
aI01
aI01
aI01
aI01
aI01
aI01
aI01
aI01
aI01
aI01
aI01
aI01
aI01
aI01
aI01
aI01
aI01
aI00
aI01
aI01
aI01
aI01
aI01
aI01
aI01
aI01
aI01
aI01
aI01
aI01
aI01
aI01
aI01
aI01
aI01
aI01
aI01
aI01
aI01
aI01
aI01
aI01
aI01
aI01
aI01
aI01
aI01
aI01
aI01
aI00
aI01
aI01
aI01
aI01
aI01
aI01
aI01
aI01
aI01
aI01
aI01
aI01
aI01
aI01
aI01
aI01
aI01
aI01
aI01
aI01
aI01
aI01
aI01
aI01
aI01
aI01
aI01
aI01
aI01
aI01
aI01
aI01
aI01
aI01
aI01
aI01
aI01
aI01
aI01
aI01
aI01
aI01
aI01
aI01
aI01
aI01
aI01
aI00
aI01
aI01
aI01
aI01
aI01
aI01
aI01
aI01
aI01
aI01
aI01
aI01
aI01
aI01
aI01
aI01
aI01
aI01
aI01
aI01
aI01
aI01
aI01
aI01
aI01
aI01
aI01
aI01
aI01
aI01
aI01
aI01
aI01
aI01
aI01
aI01
aI01
aI01
aI01
aI01
aI01
aI01
aI01
aI01
aI00
aI01
aI01
aI01
aI01
aI01
aI01
aI01
aI01
aI01
aI01
aI01
aI01
aI01
aI01
aI01
aI01
aI01
aI01
aI01
aI01
aI01
aI01
aI01
aI01
aI01
aI01
aI01
aI01
aI01
aI01
aI01
aI01
aI01
aI01
aI01
aI01
aI01
aI01
aI01
aI01
aI01
aI01
aI01
aI01
aI01
aI01
aI01
aI01
aI01
aI01
aI01
aI01
aI01
aI01
aI01
aI01
aI01
aI01
aI01
aI01
aI01
aI01
aI01
aI01
aI01
aI01
aI01
aI01
aI01
aI01
aI01
aI00
aI01
aI01
aI01
aI01
aI01
aI01
aI01
aI01
aI01
aI01
aI01
aI01
aI01
aI01
aI01
aI01
aI01
aI01
aI01
aI01
aI01
aI01
aI01
aI01
aI01
aI01
aI01
aI01
aI01
aI01
aI01
aI01
aI01
aI01
aI01
aI01
aI01
aI01
aI01
aI01
aI01
aI01
aI01
aI00
aI01
aI01
aI01
aI01
aI01
aI01
aI01
aI01
aI01
aI01
aI01
aI01
aI01
aI01
aI01
aI01
aI01
aI01
aI01
aI01
aI01
aI01
aI01
aI01
aI01
aI01
aI01
aI01
aI01
aI01
aI01
aI00
aI01
aI01
aI01
aI01
aI01
aI01
aI01
aI01
aI01
aI00
aI01
aI01
aI01
aI01
aI01
aI01
aI01
aI01
aI01
aI01
aI01
aI01
aI01
aI01
aI01
aI01
aI01
aI01
aI01
aI01
aI01
aI01
aI01
aI01
aI01
aI01
aI01
aI01
aI01
aI01
aI01
aI00
aI01
aI01
aI01
aI01
aI01
aI01
aI01
aI01
aI01
aI01
aI01
aI01
aI01
aI01
aI01
aI01
aI01
aI01
aI01
aI01
aI01
aI01
aI01
aI01
aI01
aI01
aI01
aI01
aI01
aI01
aI01
aI01
aI01
aI01
aI01
aI01
aI01
aI01
aI01
aI01
aI01
aI01
aI01
aI01
aI01
aI01
aI01
aI01
aI01
aI01
aI01
aI01
aI01
aI01
aI01
aI01
aI01
aI01
aI01
aI01
aI01
aI01
aI01
aI01
aI01
aI01
aI01
aI01
aI01
aI01
aI01
aI01
aI01
aI01
aI01
aI01
aI01
aI01
aI01
aI01
aI01
aI01
aI01
aI01
aI01
aI01
aI01
aI01
aI01
aI01
aI01
aI01
aI01
aI01
aI01
aI01
aI01
aI01
aI01
aI01
aI01
aI01
aI01
aI01
aI01
aI01
aI01
aI01
aI01
aI01
aI01
aI01
aI01
aI01
aI01
aI01
aI01
aI01
aI01
aI01
aI01
aI01
aI01
aI01
aI01
aI01
aI01
aI01
aI01
aI01
aI01
aI01
aI01
aI01
aI01
aI01
aI01
aI01
aI01
aI01
aI01
aI01
aI01
aI01
aI01
aI01
aI01
aI01
aI01
aI01
aI01
aI01
aI01
aI01
aI01
aI01
aI01
aI01
aI01
aI01
aI01
aI01
aI01
aI01
aI01
aI01
aI01
aI01
aI01
aI01
aI01
aI01
aI01
aI01
aI01
aI01
aI01
aI01
aI00
aI01
aI01
aI01
aI01
aI01
aI01
aI01
aI01
aI01
aI01
aI01
aI01
aI01
aI01
aI01
aI01
aI01
aI01
aI01
aI01
aI01
aI01
aI01
aI01
aI01
aI01
aI01
aI01
aI01
aI01
aI01
aI01
aI01
aI01
aI01
aI01
aI01
aI01
aI01
aI01
aI01
aI01
aI01
aI01
aI01
aI01
aI01
aI01
aI01
aI01
aI01
aI01
aI01
aI01
aI01
aI01
aI01
aI01
aI01
aI01
aI01
aI01
aI01
aI01
aI01
aI01
aI01
aI01
aI01
aI01
aI01
aI01
aI01
aI01
aI01
aI01
aI01
aI01
aI01
aI01
aI01
aI01
aI01
aI01
aI01
aI01
aI01
aI01
aI01
aI01
aI01
aI01
aI01
aI01
aI01
aI01
aI01
aI01
aI01
aI01
aI01
aI01
aI01
aI01
aI00
aI01
aI01
aI01
aI01
aI01
aI01
aI01
aI01
aI01
aI01
aI01
aI01
aI01
aI01
aI01
aI01
aI01
aI01
aI01
aI01
aI01
aI01
aI01
aI01
aI01
aI01
aI01
aI01
aI01
aI01
aI01
aI01
aI01
aI01
aI01
aI01
aI01
aI01
aI01
aI01
aI01
aI01
aI01
aI01
aI01
aI01
aI01
aI01
aI01
aI01
aI01
aI01
aI01
aI01
aI01
aI01
aI01
aI01
aI01
aI01
aI01
aI01
aI01
aI01
aI01
aI01
aI01
aI01
aI01
aI01
aI01
aI01
aI01
aI01
aI01
aI01
aI01
aI01
aI01
aI01
aI01
aI01
aI01
aI01
aI01
aI01
aI01
aI01
aI00
aI01
aI01
aI01
aI01
aI01
aI01
aI01
aI01
aI01
aI01
aI00
aI01
aI01
aI01
aI01
aI01
aI01
aI01
aI01
aI01
aI01
aI01
aI01
aI01
aI01
aI01
aI01
aI01
aI01
aI01
aI01
aI01
aI01
aI01
aI01
aI01
aI01
aI01
aI01
aI01
aI01
aI01
aI01
aI01
aI01
aI01
aI01
aI01
asS'plan_length'
p3
(lp4
I3
aI8
aI11
aI2
aI6
aI32
aI1
aI5
aI1
aI6
aI17
aI1
aI6
aI9
aI14
aI5
aI5
aI3
aI1
aI17
aI1
aI2
aI1
aI4
aI4
aI5
aI5
aI11
aI4
aI4
aI12
aI7
aI9
aI6
aI8
aI11
aI3
aI2
aI4
aI1
aI10
aI3
aI3
aI3
aI4
aI1
aI2
aI2
aI3
aI2
aI7
aI7
aI24
aI5
aI5
aI4
aI14
aI9
aI2
aI5
aI13
aI7
aI5
aI5
aI11
aI3
aI1
aI1
aI8
aI3
aI10
aI9
aI27
aI18
aI10
aI15
aI1
aI14
aI2
aI1
aI8
aI2
aI10
aI5
aI1
aI2
aI1
aI3
aI1
aI12
aI34
aI2
aI2
aI13
aI6
aI7
aI7
aI6
aI6
aI3
aI16
aI1
aI9
aI5
aI5
aI2
aI11
aI6
aI7
aI2
aI1
aI2
aI2
aI8
aI3
aI10
aI3
aI14
aI7
aI6
aI2
aI1
aI7
aI2
aI10
aI5
aI3
aI3
aI4
aI3
aI10
aI17
aI7
aI4
aI8
aI3
aI4
aI1
aI2
aI4
aI4
aI4
aI11
aI7
aI7
aI4
aI6
aI3
aI7
aI3
aI8
aI2
aI2
aI11
aI7
aI1
aI2
aI11
aI9
aI5
aI8
aI3
aI25
aI5
aI13
aI6
aI11
aI9
aI11
aI7
aI4
aI4
aI3
aI10
aI44
aI44
aI4
aI9
aI11
aI12
aI8
aI7
aI18
aI1
aI4
aI1
aI3
aI2
aI1
aI2
aI13
aI3
aI9
aI8
aI9
aI10
aI10
aI3
aI22
aI2
aI6
aI1
aI5
aI14
aI1
aI5
aI13
aI12
aI5
aI9
aI3
aI1
aI35
aI1
aI2
aI2
aI10
aI3
aI5
aI1
aI5
aI2
aI8
aI3
aI1
aI1
aI10
aI13
aI5
aI16
aI9
aI4
aI34
aI2
aI4
aI1
aI6
aI8
aI2
aI3
aI11
aI2
aI1
aI12
aI2
aI2
aI15
aI11
aI3
aI4
aI1
aI12
aI8
aI4
aI4
aI7
aI3
aI7
aI1
aI2
aI2
aI1
aI6
aI3
aI2
aI5
aI7
aI6
aI5
aI7
aI8
aI15
aI2
aI2
aI5
aI4
aI2
aI11
aI5
aI12
aI1
aI7
aI2
aI4
aI3
aI2
aI6
aI5
aI5
aI3
aI4
aI12
aI2
aI10
aI13
aI7
aI18
aI12
aI3
aI16
aI2
aI7
aI20
aI1
aI1
aI1
aI6
aI13
aI13
aI3
aI1
aI5
aI6
aI5
aI15
aI15
aI10
aI11
aI13
aI7
aI12
aI6
aI5
aI14
aI10
aI31
aI3
aI9
aI1
aI4
aI10
aI1
aI5
aI11
aI4
aI7
aI5
aI1
aI10
aI2
aI10
aI6
aI2
aI3
aI1
aI7
aI2
aI7
aI10
aI2
aI4
aI3
aI23
aI6
aI3
aI3
aI16
aI5
aI5
aI7
aI7
aI7
aI12
aI1
aI7
aI8
aI6
aI3
aI8
aI6
aI4
aI2
aI4
aI30
aI5
aI7
aI4
aI2
aI21
aI16
aI7
aI12
aI12
aI1
aI2
aI31
aI3
aI1
aI18
aI2
aI20
aI8
aI5
aI5
aI5
aI5
aI4
aI2
aI3
aI4
aI1
aI5
aI3
aI1
aI4
aI3
aI10
aI17
aI1
aI5
aI16
aI2
aI1
aI8
aI2
aI29
aI12
aI2
aI4
aI9
aI5
aI2
aI15
aI3
aI14
aI1
aI29
aI3
aI2
aI3
aI6
aI5
aI7
aI2
aI9
aI7
aI8
aI3
aI4
aI5
aI1
aI4
aI1
aI2
aI4
aI40
aI29
aI3
aI2
aI1
aI3
aI9
aI6
aI3
aI17
aI7
aI6
aI1
aI11
aI3
aI3
aI1
aI3
aI2
aI1
aI5
aI2
aI5
aI5
aI2
aI3
aI9
aI2
aI9
aI3
aI7
aI1
aI2
aI1
aI3
aI4
aI5
aI11
aI13
aI18
aI4
aI10
aI4
aI17
aI2
aI2
aI2
aI34
aI9
aI6
aI2
aI6
aI3
aI4
aI7
aI2
aI16
aI4
aI1
aI2
aI8
aI1
aI6
aI4
aI2
aI8
aI10
aI11
aI5
aI8
aI2
aI5
aI5
aI1
aI4
aI7
aI3
aI8
aI9
aI10
aI7
aI1
aI8
aI3
aI2
aI3
aI7
aI2
aI5
aI16
aI7
aI2
aI13
aI13
aI4
aI37
aI2
aI1
aI1
aI8
aI1
aI4
aI19
aI6
aI32
aI9
aI1
aI7
aI4
aI19
aI6
aI13
aI6
aI4
aI14
aI1
aI1
aI2
aI5
aI5
aI4
aI7
aI2
aI10
aI3
aI3
aI16
aI16
aI3
aI12
aI28
aI8
aI6
aI6
aI1
aI8
aI8
aI10
aI10
aI5
aI3
aI7
aI4
aI7
aI2
aI2
aI9
aI4
aI4
aI6
aI8
aI6
aI4
aI1
aI4
aI1
aI3
aI3
aI1
aI30
aI30
aI11
aI3
aI6
aI1
aI3
aI2
aI32
aI4
aI1
aI1
aI2
aI3
aI3
aI13
aI13
aI8
aI1
aI5
aI10
aI3
aI39
aI14
aI8
aI2
aI32
aI6
aI33
aI9
aI18
aI26
aI1
aI2
aI2
aI11
aI3
aI3
aI7
aI1
aI2
aI15
aI24
aI5
aI11
aI1
aI5
aI1
aI3
aI12
aI9
aI10
aI3
aI1
aI6
aI23
aI1
aI6
aI1
aI8
aI3
aI2
aI2
aI5
aI4
aI1
aI13
aI2
aI6
aI56
aI5
aI6
aI4
aI2
aI4
aI4
aI4
aI4
aI5
aI28
aI6
aI23
aI1
aI33
aI5
aI8
aI1
aI9
aI1
aI14
aI5
aI1
aI7
aI1
aI10
aI2
aI5
aI8
aI1
aI12
aI20
aI6
aI32
aI19
aI6
aI4
aI1
aI8
aI4
aI8
aI15
aI1
aI12
aI1
aI6
aI7
aI7
aI12
aI9
aI7
aI4
aI3
aI1
aI16
aI28
aI6
aI1
aI3
aI3
aI9
aI11
aI10
aI9
aI1
aI6
aI3
aI4
aI2
aI3
aI6
aI4
aI1
aI14
aI12
aI15
aI2
aI6
aI3
aI2
aI10
aI1
aI4
aI7
aI9
aI9
aI9
aI1
aI6
aI4
aI2
aI12
aI1
aI1
aI1
aI3
aI1
aI3
aI22
aI2
aI1
aI2
aI7
aI2
aI2
aI2
aI8
aI9
aI4
aI9
aI3
aI12
aI12
aI10
aI4
aI2
aI5
aI2
aI14
aI13
aI21
aI4
aI6
aI8
aI3
aI4
aI19
aI1
aI2
aI12
aI1
aI6
aI4
aI1
aI3
aI2
aI7
aI8
aI4
aI4
aI1
aI6
aI5
aI2
aI5
aI7
aI8
aI11
aI1
aI11
aI24
aI8
aI15
aI10
aI4
aI5
aI8
aI2
aI4
aI1
aI12
aI4
aI7
aI2
aI6
aI30
aI30
aI4
aI1
aI2
aI12
aI1
aI11
aI2
aI6
aI5
aI3
aI9
aI1
aI1
aI2
aI2
aI1
aI14
aI7
aI3
aI10
aI6
aI7
aI9
aI15
aI1
aI6
aI20
aI10
aI2
aI6
aI3
aI2
aI2
aI4
aI7
aI23
aI22
aI4
aI4
aI2
aI9
aI4
aI3
aI1
aI5
aI13
aI15
aI32
aI4
aI3
aI20
aI4
aI5
aI6
aI2
aI8
aI15
aI4
aI2
aI1
aI1
aI5
aI15
aI4
aI1
aI2
aI5
aI2
aI1
aI1
aI4
aI2
aI11
aI5
aI7
aI5
aI4
aI6
aI6
aI4
aI2
aI5
aI6
aI7
aI2
aI1
aI7
aI9
aI1
aI3
aI8
aI3
aI6
aI8
aI3
aI7
aI11
aI3
aI14
aI7
aI5
aI5
aI2
aI7
aI5
aI4
aI2
aI11
aI2
aI4
aI1
aI6
aI4
aI2
aI29
aI17
aI11
aI1
aI3
aI1
aI17
aI11
aI2
aI23
aI3
aI2
aI5
aI6
aI7
aI4
aI4
aI1
aI5
aI12
aI3
aI8
aI14
aI7
aI3
aI3
aI14
aI5
aI5
aI16
aI5
aI3
aI1
aI12
aI2
aI2
aI4
aI22
aI17
aI13
aI8
aI3
aI8
aI7
aI6
aI7
aI1
aI4
aI13
aI2
aI1
aI1
aI4
aI12
aI8
aI12
aI5
aI24
aI12
aI2
aI5
aI2
aI2
aI3
aI21
aI9
aI4
aI1
aI2
aI9
aI6
aI2
aI17
aI2
aI4
aI17
aI10
aI1
aI1
aI6
aI6
aI3
aI2
aI1
aI4
aI12
aI13
aI5
aI31
aI24
aI2
aI6
aI8
aI2
aI34
aI14
aI1
aI9
aI2
aI3
aI3
aI7
aI4
aI2
aI14
aI1
aI4
aI13
aI11
aI2
aI20
aI4
aI1
aI13
aI1
aI1
aI1
aI2
aI3
aI2
aI11
aI3
aI5
aI2
aI2
aI2
aI2
aI15
aI7
aI1
aI5
aI7
aI2
aI5
aI4
aI4
aI1
aI2
aI4
aI1
aI6
aI5
aI14
aI10
aI7
aI6
aI9
aI24
aI5
aI4
aI19
aI7
aI7
aI12
aI11
aI8
aI4
aI20
aI1
aI2
aI1
aI14
aI3
aI5
aI2
aI5
aI23
aI10
aI5
aI13
aI8
aI1
aI7
aI27
aI1
aI5
aI11
aI7
aI3
aI5
aI6
aI9
aI15
aI1
aI7
aI3
aI9
aI3
aI4
aI3
aI6
aI17
aI1
aI3
aI3
aI1
aI1
aI12
aI1
aI7
aI11
aI7
aI12
aI5
aI1
aI1
aI4
aI12
aI10
aI2
aI3
aI3
aI8
aI4
aI13
aI14
aI7
aI10
aI10
aI1
aI6
aI3
aI18
aI3
aI4
aI3
aI6
aI4
aI4
aI6
aI2
aI1
aI22
aI2
aI3
aI9
aI4
aI2
aI2
aI6
aI22
aI4
aI5
aI3
aI5
aI2
aI2
aI2
aI1
aI5
aI9
aI3
aI21
aI3
aI5
aI4
aI4
aI6
aI14
aI5
aI2
aI14
aI1
aI8
aI3
aI1
aI16
aI2
aI3
aI11
aI11
aI33
aI2
aI18
aI19
aI18
aI1
aI1
aI2
aI1
aI1
aI4
aI6
aI6
aI9
aI31
aI17
aI8
aI8
aI14
aI6
aI1
aI17
aI4
aI15
aI11
aI2
aI4
aI1
aI30
aI4
aI3
aI6
aI6
aI3
aI3
aI7
aI1
aI9
aI3
aI4
aI3
aI4
aI3
aI4
aI15
aI3
aI10
aI3
aI5
aI2
aI2
aI3
aI7
aI2
aI26
aI9
aI9
aI15
aI2
aI2
aI10
aI7
aI2
aI8
aI20
aI1
aI2
aI3
aI2
aI15
aI6
aI12
aI5
aI4
aI4
aI15
aI4
aI5
aI26
aI1
aI11
aI5
aI5
aI3
aI4
aI7
aI2
aI2
aI4
aI10
aI4
aI1
aI12
aI4
aI1
aI23
aI16
aI5
aI5
aI3
aI1
aI5
aI2
aI5
aI12
aI6
aI21
aI2
aI1
aI7
aI2
aI1
aI2
aI3
aI6
aI5
aI4
aI10
aI6
aI9
aI3
aI13
aI6
aI19
aI1
aI7
aI5
aI3
aI3
aI3
aI2
aI4
aI5
aI7
aI3
aI3
aI3
aI1
aI17
aI14
aI12
aI1
aI1
aI4
aI12
aI1
aI6
aI32
aI1
aI3
aI1
aI6
aI2
aI21
aI5
aI6
aI2
aI6
aI2
aI8
aI8
aI3
aI7
aI3
aI1
aI2
aI30
aI28
aI7
aI3
aI6
aI2
aI5
aI13
aI2
aI11
aI10
aI5
aI5
aI6
aI1
aI3
aI9
aI1
aI13
aI1
aI3
aI2
aI9
aI22
aI22
aI5
aI5
aI8
aI15
aI17
aI6
aI3
aI2
aI1
aI9
aI13
aI3
aI3
aI7
aI11
aI49
aI4
aI1
aI16
aI4
aI1
aI1
aI16
aI2
aI9
aI2
aI3
aI15
aI2
aI24
aI13
aI5
aI3
aI32
aI5
aI1
aI8
aI12
aI2
aI1
aI2
aI3
aI3
aI4
aI1
aI1
aI3
aI4
aI4
aI1
aI2
aI12
aI6
aI1
aI2
aI18
aI2
aI5
aI2
aI6
aI14
aI19
aI6
aI11
aI5
aI1
aI6
aI1
aI2
aI2
aI6
aI5
aI2
aI5
aI7
aI7
aI16
aI12
aI1
aI1
aI4
aI5
aI3
aI17
aI3
aI1
aI4
aI2
aI12
aI5
aI1
aI2
aI2
aI3
aI1
aI1
aI19
aI19
aI7
aI5
aI10
aI3
aI2
aI1
aI9
aI1
aI4
aI7
aI2
aI5
aI2
aI8
aI14
aI4
aI3
aI3
aI2
aI8
aI9
aI1
aI10
aI11
aI12
aI5
aI5
aI3
aI5
aI13
aI2
aI2
aI33
aI3
aI1
aI10
aI2
aI2
aI23
aI10
aI20
aI4
aI18
aI11
aI25
aI8
aI5
aI5
aI2
aI2
aI6
aI6
aI6
aI5
aI4
aI1
aI1
aI8
aI51
aI6
aI2
aI20
aI8
aI2
aI4
aI1
aI8
aI6
aI14
aI3
aI11
aI4
aI4
aI2
aI19
aI9
aI2
aI5
aI8
aI27
aI11
aI22
aI7
aI7
aI4
aI3
aI1
aI2
aI11
aI4
aI2
aI13
aI8
aI9
aI9
aI19
aI5
aI4
aI7
aI11
aI2
aI9
aI10
aI1
aI14
aI4
aI5
aI2
aI21
aI3
aI1
aI5
aI8
aI2
aI26
aI8
aI1
aI3
aI7
aI8
aI5
aI1
aI7
aI49
aI1
aI3
aI11
aI3
aI1
aI9
aI4
aI1
asS'num_nodes'
p5
(lp6
I9
aI30
aI18
aI4
aI12
aI71
aI2
aI6
aI2
aI7
aI48
aI2
aI23
aI13
aI24
aI9
aI127
aI5
aI2
aI38
aI2
aI3
aI2
aI8
aI6
aI14
aI9
aI30
aI20
aI5
aI28
aI8
aI24
aI14
aI12
aI19
aI12
aI3
aI9
aI3
aI27
aI7
aI18
aI5
aI16
aI4
aI6
aI3
aI5
aI3
aI22
aI16
aI41
aI8
aI11
aI8
aI16
aI33
aI11
aI40
aI17
aI13
aI10
aI125
aI20
aI4
aI2
aI3
aI18
aI10
aI31
aI23
aI75
aI39
aI178
aI42
aI2
aI39
aI10
aI2
aI23
aI3
aI25
aI8
aI2
aI8
aI3
aI5
aI2
aI48
aI59
aI3
aI9
aI28
aI9
aI9
aI9
aI8
aI10
aI6
aI22
aI2
aI34
aI8
aI11
aI3
aI20
aI15
aI11
aI3
aI3
aI6
aI3
aI13
aI5
aI29
aI5
aI51
aI19
aI13
aI3
aI2
aI29
aI4
aI19
aI9
aI7
aI5
aI8
aI4
aI22
aI58
aI20
aI10
aI25
aI4
aI8
aI2
aI3
aI5
aI5
aI5
aI23
aI12
aI11
aI6
aI12
aI9
aI19
aI7
aI13
aI3
aI5
aI31
aI25
aI2
aI3
aI29
aI20
aI8
aI23
aI21
aI43
aI6
aI14
aI22
aI23
aI17
aI27
aI8
aI10
aI11
aI6
aI27
aI87
aI71
aI18
aI60
aI16
aI15
aI12
aI16
aI47
aI2
aI12
aI10
aI13
aI4
aI3
aI267
aI25
aI17
aI18
aI13
aI57
aI22
aI84
aI5
aI108
aI3
aI8
aI2
aI15
aI37
aI4
aI18
aI24
aI28
aI9
aI13
aI7
aI19
aI77
aI2
aI8
aI4
aI23
aI7
aI7
aI2
aI26
aI6
aI16
aI17
aI2
aI2
aI22
aI37
aI13
aI43
aI30
aI8
aI71
aI3
aI9
aI2
aI10
aI16
aI4
aI9
aI28
aI6
aI3
aI17
aI6
aI3
aI23
aI28
aI5
aI14
aI2
aI16
aI13
aI9
aI6
aI18
aI5
aI11
aI2
aI5
aI3
aI2
aI244
aI5
aI4
aI8
aI14
aI9
aI29
aI39
aI17
aI45
aI3
aI3
aI8
aI6
aI6
aI24
aI8
aI15
aI2
aI19
aI3
aI11
aI15
aI6
aI11
aI6
aI53
aI5
aI8
aI32
aI3
aI20
aI15
aI9
aI54
aI15
aI4
aI38
aI8
aI8
aI161
aI2
aI4
aI2
aI14
aI82
aI77
aI7
aI4
aI9
aI9
aI18
aI24
aI393
aI14
aI24
aI24
aI22
aI13
aI21
aI39
aI52
aI54
aI63
aI4
aI30
aI2
aI7
aI15
aI3
aI18
aI18
aI9
aI16
aI16
aI2
aI11
aI5
aI17
aI19
aI4
aI4
aI2
aI10
aI4
aI14
aI28
aI3
aI16
aI10
aI85
aI15
aI15
aI12
aI26
aI42
aI18
aI22
aI13
aI11
aI31
aI2
aI32
aI27
aI28
aI4
aI17
aI7
aI6
aI3
aI16
aI54
aI7
aI14
aI12
aI16
aI54
aI64
aI11
aI21
aI30
aI2
aI4
aI123
aI4
aI2
aI83
aI5
aI33
aI12
aI10
aI13
aI18
aI66
aI9
aI4
aI42
aI14
aI2
aI21
aI41
aI3
aI5
aI5
aI41
aI33
aI2
aI8
aI56
aI5
aI96
aI9
aI6
aI47
aI37
aI5
aI6
aI59
aI20
aI3
aI28
aI5
aI21
aI3
aI50
aI12
aI3
aI6
aI14
aI8
aI26
aI4
aI27
aI9
aI11
aI16
aI7
aI11
aI2
aI18
aI2
aI3
aI6
aI98
aI85
aI20
aI4
aI3
aI6
aI15
aI37
aI10
aI20
aI14
aI15
aI12
aI17
aI9
aI5
aI3
aI7
aI5
aI2
aI8
aI3
aI9
aI9
aI4
aI4
aI85
aI3
aI19
aI8
aI8
aI2
aI3
aI2
aI5
aI5
aI25
aI21
aI26
aI34
aI18
aI28
aI9
aI55
aI5
aI104
aI5
aI65
aI24
aI15
aI4
aI13
aI5
aI7
aI19
aI4
aI37
aI6
aI3
aI6
aI13
aI2
aI31
aI25
aI3
aI29
aI18
aI38
aI12
aI11
aI3
aI11
aI13
aI2
aI9
aI13
aI8
aI12
aI27
aI22
aI52
aI3
aI9
aI13
aI4
aI7
aI9
aI3
aI12
aI44
aI45
aI6
aI25
aI29
aI8
aI83
aI4
aI22
aI2
aI14
aI21
aI8
aI49
aI51
aI70
aI37
aI2
aI8
aI18
aI33
aI7
aI44
aI20
aI9
aI27
aI14
aI3
aI4
aI82
aI36
aI5
aI40
aI4
aI25
aI7
aI7
aI36
aI84
aI5
aI48
aI58
aI30
aI36
aI10
aI2
aI9
aI16
aI13
aI199
aI12
aI10
aI27
aI5
aI8
aI6
aI77
aI33
aI7
aI5
aI9
aI10
aI11
aI5
aI3
aI6
aI2
aI5
aI152
aI8
aI67
aI53
aI33
aI5
aI13
aI2
aI11
aI4
aI57
aI23
aI4
aI352
aI12
aI16
aI5
aI15
aI98
aI41
aI14
aI6
aI28
aI6
aI75
aI42
aI23
aI3
aI59
aI14
aI41
aI16
aI59
aI45
aI2
aI3
aI4
aI33
aI4
aI5
aI20
aI2
aI3
aI24
aI74
aI10
aI23
aI2
aI7
aI2
aI7
aI19
aI60
aI20
aI5
aI8
aI9
aI67
aI2
aI17
aI2
aI53
aI16
aI3
aI6
aI7
aI6
aI2
aI49
aI5
aI21
aI84
aI12
aI15
aI18
aI4
aI8
aI9
aI7
aI6
aI10
aI74
aI18
aI50
aI2
aI79
aI31
aI12
aI2
aI30
aI2
aI43
aI9
aI2
aI8
aI2
aI14
aI3
aI7
aI32
aI2
aI37
aI43
aI28
aI167
aI31
aI9
aI5
aI3
aI18
aI8
aI12
aI61
aI2
aI61
aI4
aI20
aI13
aI10
aI48
aI33
aI19
aI42
aI14
aI2
aI21
aI78
aI39
aI2
aI7
aI13
aI19
aI18
aI45
aI29
aI4
aI16
aI4
aI9
aI5
aI4
aI10
aI11
aI3
aI39
aI39
aI51
aI3
aI15
aI15
aI3
aI39
aI3
aI6
aI11
aI38
aI22
aI43
aI3
aI9
aI8
aI3
aI62
aI5
aI2
aI4
aI5
aI2
aI6
aI48
aI4
aI2
aI17
aI29
aI3
aI5
aI3
aI9
aI100
aI8
aI17
aI6
aI23
aI138
aI18
aI5
aI4
aI11
aI6
aI260
aI44
aI31
aI6
aI13
aI45
aI5
aI6
aI41
aI2
aI4
aI91
aI3
aI42
aI8
aI15
aI4
aI3
aI8
aI10
aI31
aI134
aI3
aI11
aI6
aI5
aI11
aI10
aI12
aI13
aI2
aI24
aI91
aI29
aI28
aI43
aI6
aI9
aI26
aI5
aI8
aI2
aI33
aI6
aI55
aI3
aI9
aI48
aI119
aI8
aI2
aI5
aI19
aI2
aI16
aI5
aI9
aI30
aI7
aI139
aI2
aI15
aI5
aI101
aI2
aI96
aI10
aI5
aI27
aI10
aI14
aI12
aI52
aI22
aI12
aI43
aI15
aI4
aI7
aI8
aI12
aI5
aI18
aI8
aI59
aI38
aI6
aI8
aI6
aI14
aI9
aI6
aI2
aI24
aI70
aI61
aI92
aI8
aI6
aI34
aI10
aI10
aI26
aI3
aI21
aI26
aI23
aI6
aI16
aI4
aI7
aI37
aI6
aI3
aI12
aI34
aI17
aI12
aI91
aI6
aI3
aI15
aI7
aI12
aI7
aI10
aI13
aI10
aI11
aI5
aI8
aI7
aI14
aI6
aI9
aI39
aI11
aI69
aI12
aI15
aI4
aI23
aI20
aI7
aI12
aI15
aI4
aI18
aI14
aI11
aI102
aI3
aI13
aI14
aI9
aI12
aI48
aI3
aI6
aI2
aI243
aI9
aI6
aI69
aI47
aI12
aI2
aI14
aI2
aI29
aI22
aI4
aI36
aI11
aI3
aI8
aI12
aI33
aI5
aI5
aI2
aI7
aI17
aI6
aI108
aI20
aI11
aI6
aI18
aI16
aI9
aI7
aI31
aI13
aI5
aI2
aI24
aI4
aI356
aI7
aI40
aI36
aI26
aI18
aI7
aI12
aI16
aI12
aI27
aI2
aI8
aI23
aI5
aI2
aI2
aI6
aI31
aI9
aI28
aI8
aI43
aI31
aI3
aI10
aI3
aI219
aI9
aI50
aI10
aI9
aI3
aI3
aI18
aI15
aI7
aI41
aI3
aI7
aI36
aI15
aI2
aI2
aI19
aI91
aI6
aI5
aI2
aI8
aI31
aI21
aI11
aI53
aI67
aI4
aI11
aI27
aI4
aI91
aI39
aI2
aI17
aI5
aI5
aI10
aI19
aI6
aI4
aI17
aI2
aI9
aI45
aI30
aI4
aI41
aI15
aI10
aI29
aI2
aI2
aI5
aI16
aI5
aI4
aI18
aI12
aI8
aI12
aI6
aI5
aI31
aI46
aI13
aI2
aI20
aI14
aI4
aI7
aI13
aI8
aI2
aI5
aI8
aI4
aI8
aI8
aI37
aI32
aI9
aI24
aI20
aI43
aI7
aI6
aI36
aI24
aI102
aI38
aI18
aI16
aI5
aI86
aI3
aI3
aI2
aI36
aI6
aI18
aI4
aI34
aI44
aI22
aI8
aI25
aI10
aI2
aI11
aI34
aI2
aI20
aI13
aI9
aI16
aI15
aI8
aI37
aI56
aI2
aI9
aI6
aI18
aI7
aI9
aI7
aI13
aI35
aI2
aI7
aI7
aI3
aI144
aI17
aI3
aI28
aI45
aI9
aI28
aI6
aI2
aI2
aI10
aI32
aI19
aI4
aI7
aI13
aI15
aI5
aI28
aI21
aI25
aI28
aI23
aI2
aI8
aI8
aI32
aI11
aI6
aI6
aI11
aI8
aI395
aI10
aI3
aI3
aI38
aI4
aI26
aI50
aI6
aI70
aI113
aI78
aI46
aI5
aI6
aI4
aI9
aI4
aI3
aI3
aI2
aI6
aI15
aI5
aI30
aI18
aI16
aI9
aI25
aI9
aI21
aI7
aI5
aI30
aI3
aI12
aI7
aI10
aI19
aI3
aI7
aI15
aI97
aI48
aI3
aI24
aI32
aI30
aI2
aI2
aI3
aI3
aI2
aI21
aI11
aI7
aI21
aI85
aI46
aI16
aI23
aI20
aI29
aI5
aI67
aI6
aI22
aI26
aI5
aI22
aI5
aI62
aI6
aI6
aI10
aI38
aI7
aI5
aI13
aI2
aI24
aI6
aI7
aI28
aI7
aI6
aI17
aI29
aI11
aI25
aI5
aI16
aI4
aI7
aI26
aI11
aI6
aI41
aI15
aI32
aI63
aI3
aI8
aI20
aI8
aI3
aI26
aI25
aI2
aI4
aI7
aI4
aI19
aI10
aI40
aI102
aI8
aI5
aI44
aI6
aI14
aI41
aI41
aI15
aI7
aI24
aI10
aI5
aI8
aI4
aI4
aI10
aI11
aI25
aI2
aI16
aI8
aI2
aI66
aI38
aI10
aI20
aI4
aI3
aI22
aI9
aI21
aI18
aI9
aI48
aI13
aI2
aI13
aI18
aI3
aI18
aI4
aI22
aI8
aI8
aI18
aI17
aI26
aI6
aI21
aI8
aI66
aI30
aI10
aI12
aI4
aI5
aI7
aI4
aI7
aI10
aI27
aI9
aI6
aI4
aI2
aI29
aI52
aI15
aI2
aI4
aI19
aI20
aI2
aI9
aI49
aI2
aI7
aI2
aI11
aI6
aI84
aI17
aI33
aI3
aI10
aI117
aI12
aI60
aI5
aI48
aI18
aI2
aI4
aI83
aI47
aI22
aI4
aI8
aI213
aI8
aI24
aI3
aI40
aI12
aI40
aI397
aI11
aI2
aI12
aI25
aI5
aI18
aI2
aI5
aI3
aI23
aI32
aI32
aI8
aI9
aI33
aI31
aI36
aI21
aI6
aI3
aI2
aI17
aI14
aI4
aI9
aI11
aI22
aI67
aI9
aI2
aI42
aI12
aI2
aI2
aI29
aI3
aI12
aI7
aI5
aI35
aI3
aI84
aI16
aI7
aI18
aI89
aI10
aI2
aI22
aI23
aI4
aI2
aI13
aI7
aI7
aI8
aI2
aI8
aI4
aI17
aI9
aI9
aI5
aI42
aI22
aI2
aI5
aI53
aI13
aI16
aI4
aI7
aI30
aI36
aI11
aI44
aI6
aI3
aI8
aI2
aI5
aI3
aI12
aI19
aI4
aI10
aI11
aI12
aI25
aI27
aI2
aI5
aI9
aI7
aI5
aI35
aI7
aI2
aI8
aI3
aI20
aI6
aI2
aI3
aI109
aI5
aI2
aI2
aI39
aI73
aI13
aI12
aI85
aI4
aI5
aI11
aI12
aI2
aI10
aI184
aI4
aI6
aI4
aI12
aI35
aI15
aI5
aI6
aI5
aI12
aI19
aI2
aI11
aI25
aI23
aI9
aI11
aI5
aI39
aI36
aI4
aI12
aI94
aI39
aI2
aI45
aI4
aI4
aI31
aI42
aI32
aI20
aI72
aI27
aI50
aI14
aI8
aI8
aI4
aI3
aI11
aI11
aI17
aI6
aI9
aI2
aI2
aI20
aI105
aI7
aI5
aI66
aI13
aI3
aI9
aI2
aI16
aI7
aI32
aI4
aI27
aI17
aI8
aI6
aI39
aI41
aI3
aI8
aI16
aI78
aI17
aI64
aI23
aI129
aI8
aI34
aI2
aI8
aI15
aI10
aI4
aI26
aI10
aI19
aI88
aI48
aI11
aI9
aI19
aI24
aI13
aI30
aI43
aI2
aI68
aI6
aI8
aI4
aI45
aI8
aI3
aI12
aI10
aI3
aI51
aI9
aI2
aI10
aI14
aI13
aI10
aI2
aI13
aI86
aI2
aI6
aI15
aI6
aI3
aI21
aI7
aI11
asS'times'
p7
(lp8
F34.71423816680908
aF70.42337799072266
aF79.37011694908142
aF26.16559886932373
aF45.86925506591797
aF219.59670186042786
aF20.643666982650757
aF32.60909414291382
aF20.238667964935303
aF41.28204798698425
aF112.13048005104065
aF20.074624061584473
aF46.24279999732971
aF59.252925157547
aF77.01952695846558
aF32.42080903053284
aF300.11471581459045
aF29.73017907142639
aF15.95098090171814
aF115.77211999893188
aF25.02471899986267
aF47.01298904418945
aF18.598896980285645
aF37.38665699958801
aF33.93434000015259
aF42.34893298149109
aF45.773311138153076
aF91.62819504737854
aF52.19511103630066
aF34.467120885849
aF86.58556985855103
aF42.19560790061951
aF73.42820906639099
aF41.351770877838135
aF51.78930902481079
aF75.92030501365662
aF34.29878902435303
aF19.764591932296753
aF38.05477714538574
aF17.172401905059814
aF105.77029299736023
aF38.46184492111206
aF38.166287899017334
aF31.88188600540161
aF41.32633900642395
aF19.08448100090027
aF36.054929971694946
aF21.001195907592773
aF31.016144037246704
aF23.95594882965088
aF52.31686496734619
aF50.696805000305176
aF127.58077001571655
aF32.8773078918457
aF40.9015998840332
aF35.466979026794434
aF81.07175588607788
aF73.46710705757141
aF33.61474609375
aF74.11265802383423
aF84.7615110874176
aF46.38519811630249
aF35.56644797325134
aF302.7394778728485
aF69.0616569519043
aF25.948781967163086
aF18.151307106018066
aF19.647430896759033
aF55.90393400192261
aF35.73922920227051
aF79.1063220500946
aF96.44070601463318
aF181.74246501922607
aF125.73213601112366
aF178.2150149345398
aF106.81657600402832
aF22.93820881843567
aF104.60905194282532
aF24.53290295600891
aF18.027027130126953
aF65.63999009132385
aF22.525418043136597
aF82.92896604537964
aF33.277745962142944
aF41.95349311828613
aF27.87319016456604
aF15.109248161315918
aF40.0454421043396
aF19.564619064331055
aF129.84365010261536
aF204.70106101036072
aF23.805525064468384
aF32.86593008041382
aF77.59460806846619
aF42.02134299278259
aF44.477859020233154
aF45.66651511192322
aF36.813276052474976
aF41.450440883636475
aF27.96834707260132
aF90.6616621017456
aF17.686280012130737
aF77.70859599113464
aF36.15947484970093
aF34.56556987762451
aF26.02187204360962
aF61.67419481277466
aF43.77215790748596
aF44.42640805244446
aF22.265599012374878
aF16.378807067871094
aF24.330384016036987
aF25.309642791748047
aF63.37080693244934
aF26.737112045288086
aF72.48824095726013
aF26.101664066314697
aF122.14275693893433
aF72.40841889381409
aF44.54139995574951
aF25.634838104248047
aF14.846338033676147
aF68.01165509223938
aF20.27818489074707
aF56.788830041885376
aF49.11609411239624
aF27.52145218849182
aF27.415590047836304
aF36.531023025512695
aF26.944336891174316
aF66.87349390983582
aF137.01072096824646
aF61.34899091720581
aF34.22763419151306
aF79.97699403762817
aF25.476650953292847
aF32.60013699531555
aF17.5666561126709
aF25.56137704849243
aF32.887300968170166
aF31.343870162963867
aF31.86773991584778
aF67.4364640712738
aF46.57517600059509
aF49.696717977523804
aF30.89109992980957
aF41.8078830242157
aF30.698219060897827
aF63.26220107078552
aF28.145684003829956
aF51.66972303390503
aF18.72099494934082
aF26.653289794921875
aF87.58404207229614
aF65.51122617721558
aF17.453696966171265
aF21.982657194137573
aF87.4881329536438
aF65.83398795127869
aF38.641762018203735
aF52.34292411804199
aF46.28703784942627
aF147.8055510520935
aF34.61811399459839
aF65.4678418636322
aF59.87513709068298
aF68.27128100395203
aF62.419260025024414
aF77.45164203643799
aF44.89005899429321
aF33.89488983154297
aF35.15950798988342
aF26.369510889053345
aF67.36895895004272
aF276.40310502052307
aF300.4722650051117
aF76.67780613899231
aF123.75029015541077
aF68.12817120552063
aF63.57629108428955
aF52.751579999923706
aF49.62074303627014
aF119.46783113479614
aF20.7097110748291
aF33.55084204673767
aF25.54940390586853
aF36.53090000152588
aF23.620633125305176
aF16.03069305419922
aF232.06397199630737
aF94.55350613594055
aF49.87714505195618
aF63.554800033569336
aF50.07168793678284
aF99.20903515815735
aF65.20614910125732
aF121.27281403541565
aF27.948604106903076
aF222.34854793548584
aF21.291554927825928
aF39.35537385940552
aF17.59166407585144
aF43.579293966293335
aF99.5826108455658
aF19.58930802345276
aF43.17866086959839
aF78.54716897010803
aF78.8752830028534
aF37.92240381240845
aF53.670822858810425
aF25.853676080703735
aF29.034621953964233
aF215.44030690193176
aF42.66775107383728
aF31.488900899887085
aF22.404134035110474
aF95.47186994552612
aF26.38856792449951
aF38.82817101478577
aF18.571497917175293
aF64.14144396781921
aF23.50854206085205
aF51.6645450592041
aF43.58357381820679
aF17.919448137283325
aF17.618643045425415
aF62.714009046554565
aF83.27846217155457
aF44.81726598739624
aF119.26839995384216
aF95.1254370212555
aF35.154414892196655
aF176.37881088256836
aF22.962916135787964
aF31.26963496208191
aF20.33952307701111
aF38.788198947906494
aF53.028379917144775
aF23.845029830932617
aF33.33436393737793
aF80.60733389854431
aF35.51636600494385
aF18.478818893432617
aF73.75464296340942
aF20.6045401096344
aF30.8138108253479
aF87.40146803855896
aF68.82828307151794
aF27.093209981918335
aF58.54446506500244
aF21.51773500442505
aF62.600775957107544
aF54.48240399360657
aF36.388484954833984
aF31.544355154037476
aF48.02684712409973
aF28.33985185623169
aF54.213223934173584
aF22.57829785346985
aF26.497386932373047
aF23.675457000732422
aF22.8036789894104
aF237.42524480819702
aF31.91977596282959
aF25.26411008834839
aF32.640774965286255
aF68.32691693305969
aF54.58568501472473
aF58.548202991485596
aF78.23686504364014
aF62.616530895233154
aF141.3093409538269
aF25.700026035308838
aF24.972954988479614
aF36.74396991729736
aF36.19167518615723
aF24.790889024734497
aF71.85493612289429
aF44.57156801223755
aF65.62465310096741
aF25.299911975860596
aF94.42702603340149
aF33.61552095413208
aF34.2055230140686
aF42.03468084335327
aF24.443010091781616
aF45.432008028030396
aF33.255326986312866
aF98.62499594688416
aF27.337256908416748
aF39.47549510002136
aF71.22114396095276
aF19.541704893112183
aF62.779317140579224
aF67.49267220497131
aF43.72957491874695
aF118.8104031085968
aF64.08799505233765
aF23.451293230056763
aF105.95931911468506
aF28.54403305053711
aF47.87309217453003
aF196.61667704582214
aF22.216346979141235
aF17.13179898262024
aF17.304943084716797
aF41.482417821884155
aF134.9409110546112
aF182.2827651500702
aF26.943652868270874
aF20.815307140350342
aF38.16784191131592
aF39.30889821052551
aF45.977133989334106
aF78.39648389816284
aF300.7533860206604
aF59.84950590133667
aF74.82056498527527
aF76.16430115699768
aF67.58494997024536
aF68.42045497894287
aF52.22037982940674
aF75.11725401878357
aF141.20097708702087
aF136.66877484321594
aF172.05072402954102
aF25.810420989990234
aF80.26949381828308
aF20.07946491241455
aF33.10465693473816
aF54.31026887893677
aF21.91569209098816
aF48.16256499290466
aF78.14387583732605
aF29.412595987319946
aF58.17290019989014
aF48.263230085372925
aF19.85609197616577
aF65.46793508529663
aF20.082937955856323
aF64.31364607810974
aF54.76381492614746
aF25.83798313140869
aF26.15242600440979
aF20.91508984565735
aF40.7059109210968
aF25.874852895736694
aF57.437418937683105
aF91.41801500320435
aF23.14869523048401
aF64.10015678405762
aF39.00199103355408
aF177.79029488563538
aF46.88088297843933
aF41.7781457901001
aF36.44430994987488
aF88.28330302238464
aF70.82590889930725
aF60.44752502441406
aF63.75678014755249
aF39.18496799468994
aF38.51759910583496
aF145.66405987739563
aF16.823251962661743
aF74.44834303855896
aF65.21124410629272
aF59.99794602394104
aF25.970672845840454
aF53.020650148391724
aF39.25924491882324
aF34.38557696342468
aF25.865494966506958
aF43.72562885284424
aF217.65243816375732
aF36.22386598587036
aF45.67704796791077
aF42.54002499580383
aF31.3143310546875
aF129.58569383621216
aF127.59952402114868
aF44.05063080787659
aF75.3285779953003
aF87.60708999633789
aF18.61767816543579
aF24.327615976333618
aF257.8129971027374
aF30.892170190811157
aF18.639641046524048
aF172.73626899719238
aF27.338897943496704
aF112.1286690235138
aF56.19747281074524
aF41.45060706138611
aF45.510066986083984
aF54.209917068481445
aF301.0754849910736
aF35.304917097091675
aF36.97039818763733
aF66.46750807762146
aF48.79227614402771
aF19.525840044021606
aF57.787890911102295
aF121.67567300796509
aF20.84452795982361
aF46.88528299331665
aF29.866830110549927
aF94.976970911026
aF109.69751787185669
aF22.28355598449707
aF37.8083860874176
aF137.6455419063568
aF24.262786865234375
aF83.63191604614258
aF48.583935022354126
aF20.653625011444092
aF158.66733503341675
aF87.1383888721466
aF24.56839394569397
aF33.1214599609375
aF92.35872197151184
aF49.48404097557068
aF22.449448823928833
aF91.71491503715515
aF25.29005479812622
aF76.84170794487
aF19.09478497505188
aF152.19490599632263
aF65.15527105331421
aF21.6617648601532
aF27.34194302558899
aF49.02681303024292
aF36.973182916641235
aF66.63188695907593
aF25.928655862808228
aF74.69840908050537
aF42.01710605621338
aF49.44405913352966
aF68.44427180290222
aF34.889013051986694
aF71.85091304779053
aF16.797242879867554
aF43.70053005218506
aF18.43880605697632
aF21.777472019195557
aF32.60497498512268
aF272.9198250770569
aF195.9392650127411
aF37.035731077194214
aF26.445494174957275
aF20.638988971710205
aF26.193251132965088
aF61.567245960235596
aF73.788645029068
aF36.33613586425781
aF88.39862108230591
aF43.990872859954834
aF47.97453999519348
aF34.22609305381775
aF56.388700008392334
aF31.85762095451355
aF31.75291109085083
aF17.89545702934265
aF25.462458848953247
aF27.246479034423828
aF16.553162813186646
aF37.97649693489075
aF21.603978872299194
aF39.48121976852417
aF34.163146018981934
aF22.378891944885254
aF27.3485050201416
aF215.09077906608582
aF22.992082118988037
aF59.399068117141724
aF28.981299877166748
aF41.28201603889465
aF17.613118886947632
aF25.206418991088867
aF20.72520399093628
aF29.79882287979126
aF34.237951040267944
aF71.36437201499939
aF78.80713415145874
aF81.25485301017761
aF111.97278499603271
aF38.12369894981384
aF63.955601930618286
aF35.55720496177673
aF125.00154209136963
aF28.408045053482056
aF301.17085695266724
aF20.753154039382935
aF186.9779348373413
aF68.00428295135498
aF47.62972617149353
aF24.070732831954956
aF43.8532030582428
aF31.30597496032715
aF32.04747700691223
aF65.73560094833374
aF22.943588972091675
aF119.75348019599915
aF32.394176959991455
aF21.125060081481934
aF26.154860019683838
aF56.774738073349
aF25.476770877838135
aF64.77832984924316
aF55.84117007255554
aF28.126681804656982
aF96.70519495010376
aF64.2879319190979
aF81.54831194877625
aF33.92163610458374
aF51.36567401885986
aF22.66577982902527
aF35.420746088027954
aF42.70688319206238
aF18.207424879074097
aF36.74611496925354
aF48.04386496543884
aF25.861939907073975
aF50.353951930999756
aF64.70403289794922
aF71.81754398345947
aF95.42679286003113
aF17.17237901687622
aF48.32780694961548
aF42.69846820831299
aF27.59224796295166
aF28.47236394882202
aF46.718008041381836
aF35.118891954422
aF41.63780188560486
aF115.22901201248169
aF94.90656089782715
aF21.48878502845764
aF94.73183798789978
aF88.76219606399536
aF31.625611066818237
aF250.5978090763092
aF19.382588148117065
aF38.41800498962402
aF23.816724061965942
aF48.663151025772095
aF39.40774202346802
aF30.617324113845825
aF114.71295094490051
aF87.2077488899231
aF264.1392638683319
aF77.00820899009705
aF21.044540882110596
aF41.462815046310425
aF42.03116297721863
aF123.0140790939331
aF44.380409955978394
aF107.30102515220642
aF53.79789209365845
aF30.440598964691162
aF82.19220304489136
aF34.751375913619995
aF16.236776113510132
aF23.364761114120483
aF110.29266715049744
aF69.03858709335327
aF32.23769783973694
aF80.51815700531006
aF22.672953844070435
aF69.42724704742432
aF33.153319120407104
aF34.4963960647583
aF131.13386797904968
aF302.0170328617096
aF26.097667932510376
aF135.11947083473206
aF211.94842100143433
aF72.09587097167969
aF62.121811866760254
aF44.50695586204529
aF15.908365964889526
aF53.08090400695801
aF59.8345890045166
aF62.04888200759888
aF300.8292279243469
aF36.14767503738403
aF33.95471811294556
aF49.5933198928833
aF30.794981956481934
aF49.2258780002594
aF26.755844831466675
aF301.9500858783722
aF84.15697479248047
aF34.72582817077637
aF31.39976978302002
aF38.79139709472656
aF44.70027804374695
aF41.277010917663574
aF30.66411519050598
aF16.016061067581177
aF29.38990306854248
aF20.286767959594727
aF29.427252054214478
aF300.8210368156433
aF19.99498701095581
aF211.06969714164734
aF171.14437818527222
aF79.69739890098572
aF27.73881983757019
aF48.24272680282593
aF16.371174812316895
aF35.53949689865112
aF23.01344609260559
aF180.4726219177246
aF68.32764196395874
aF19.546182870864868
aF300.2987139225006
aF37.67850995063782
aF41.518922090530396
aF24.762966871261597
aF72.11201691627502
aF303.3751850128174
aF96.3741979598999
aF29.571778059005737
aF37.81277799606323
aF92.08509802818298
aF28.936789989471436
aF215.46991896629333
aF113.62437415122986
aF63.50689506530762
aF30.234993934631348
aF151.85325694084167
aF44.0619900226593
aF177.35023307800293
aF56.70723581314087
aF135.3792700767517
aF148.86470985412598
aF23.973875999450684
aF43.65078687667847
aF27.10461688041687
aF88.01495885848999
aF25.931117057800293
aF27.056216955184937
aF58.62157607078552
aF19.247748851776123
aF23.546778202056885
aF83.6927580833435
aF159.86888813972473
aF37.184868812561035
aF72.3676609992981
aF18.428681135177612
aF36.06857204437256
aF17.84435796737671
aF27.875864028930664
aF75.00554418563843
aF122.70269417762756
aF73.73765206336975
aF27.66526508331299
aF22.650412797927856
aF43.044750928878784
aF159.25035619735718
aF19.42566204071045
aF60.92698693275452
aF17.445635080337524
aF87.70716094970703
aF65.08619499206543
aF21.995423078536987
aF36.24628186225891
aF34.80436992645264
aF32.81119680404663
aF15.350477933883667
aF120.32280206680298
aF22.97969388961792
aF49.728322982788086
aF278.71225118637085
aF42.7034969329834
aF45.354851961135864
aF43.24509811401367
aF23.94131302833557
aF31.860557079315186
aF31.166665077209473
aF29.431150913238525
aF29.71659517288208
aF37.061306953430176
aF151.4497880935669
aF54.41310715675354
aF138.90509486198425
aF18.239880084991455
aF190.92738890647888
aF59.649372816085815
aF51.58831787109375
aF16.20897102355957
aF72.98896408081055
aF18.23356008529663
aF114.13256096839905
aF34.530524015426636
aF18.83139991760254
aF44.67611789703369
aF21.630661010742188
aF61.86424803733826
aF24.56418800354004
aF42.143171072006226
aF62.59159994125366
aF18.376044988632202
aF93.01009202003479
aF112.23251485824585
aF80.42397499084473
aF299.32582998275757
aF93.98341417312622
aF37.35200595855713
aF30.687079191207886
aF16.742480993270874
aF62.41157603263855
aF45.40685200691223
aF48.081912994384766
aF152.32752990722656
aF21.154000997543335
aF106.6353850364685
aF19.573750972747803
aF54.48846197128296
aF46.59435796737671
aF42.310150146484375
aF112.23408794403076
aF69.3674910068512
aF60.040442943573
aF63.68183708190918
aF50.856549978256226
aF20.702883005142212
aF84.48323917388916
aF184.55947399139404
aF74.02310085296631
aF18.794071197509766
aF33.816184997558594
aF42.00665497779846
aF64.43791794776917
aF65.4959990978241
aF91.93113803863525
aF75.72183609008789
aF17.407170057296753
aF87.90288090705872
aF25.558935165405273
aF38.31384897232056
aF28.054957151412964
aF25.832200050354004
aF44.275914907455444
aF44.46558499336243
aF20.17744207382202
aF115.28852987289429
aF83.44246983528137
aF116.78036594390869
aF20.97944211959839
aF45.89361906051636
aF34.562549114227295
aF22.886466026306152
aF83.51476097106934
aF16.733667135238647
aF34.62894606590271
aF45.10246396064758
aF78.98387813568115
aF63.30191397666931
aF115.06881284713745
aF18.19165301322937
aF40.571412086486816
aF35.07513904571533
aF23.226613998413086
aF134.2391209602356
aF22.74271011352539
aF19.866251945495605
aF18.382368803024292
aF25.50450611114502
aF21.858318090438843
aF24.470022916793823
aF143.59853506088257
aF25.36396312713623
aF23.431174993515015
aF56.058367013931274
aF54.41602420806885
aF21.056695222854614
aF22.912998914718628
aF24.910199880599976
aF46.47626209259033
aF143.24922680854797
aF63.030203104019165
aF69.7871150970459
aF27.296820878982544
aF68.53318405151367
aF305.0295650959015
aF66.32487392425537
aF32.75910806655884
aF27.112117052078247
aF43.38156795501709
aF26.914704084396362
aF273.73605394363403
aF97.51388812065125
aF118.44512987136841
aF29.980109930038452
aF41.94635796546936
aF92.00704598426819
aF25.255385875701904
aF33.036705017089844
aF133.50473594665527
aF16.216838121414185
aF22.208150148391724
aF163.4303469657898
aF17.579895973205566
aF83.94406294822693
aF31.97953701019287
aF48.27004599571228
aF26.324071884155273
aF23.837433099746704
aF46.052281856536865
aF68.99464678764343
aF65.98882484436035
aF302.6878740787506
aF16.86296820640564
aF44.708463191986084
aF31.140505075454712
aF22.009387016296387
aF45.512815952301025
aF39.14334988594055
aF52.21911406517029
aF65.77808499336243
aF15.655837059020996
aF65.91615104675293
aF189.1948230266571
aF60.7183141708374
aF85.08773708343506
aF100.94470882415771
aF28.68940782546997
aF37.6822030544281
aF77.5278389453888
aF24.65986204147339
aF33.01854586601257
aF14.962253093719482
aF85.31146788597107
aF34.03925895690918
aF104.93449902534485
aF20.639070987701416
aF44.07389712333679
aF160.3214499950409
aF302.2633719444275
aF33.62456202507019
aF19.18348789215088
aF21.109902143478394
aF69.87643194198608
aF20.21879291534424
aF59.01257395744324
aF23.665783166885376
aF40.937278032302856
aF52.10363483428955
aF38.76202416419983
aF220.83525395393372
aF14.942593097686768
aF30.95185399055481
aF20.082324981689453
aF300.12096095085144
aF23.921273946762085
aF154.5844910144806
aF43.37113308906555
aF26.354373931884766
aF71.94993114471436
aF41.580604791641235
aF45.05624604225159
aF58.2103009223938
aF103.48417592048645
aF34.65723919868469
aF43.26754117012024
aF113.65571689605713
aF57.03842306137085
aF19.642436981201172
aF39.63530516624451
aF28.948532819747925
aF38.54337191581726
aF27.562412977218628
aF40.962482929229736
aF43.36266112327576
aF144.3475661277771
aF133.42727494239807
aF29.06688094139099
aF43.24628710746765
aF25.03611993789673
aF59.54440784454346
aF33.06071090698242
aF29.763407945632935
aF17.43098211288452
aF71.11716318130493
aF141.37125086784363
aF136.59541702270508
aF246.2749490737915
aF45.37345814704895
aF28.965142011642456
aF113.1870048046112
aF40.95538687705994
aF35.05212211608887
aF57.705902099609375
aF43.47193789482117
aF60.89175510406494
aF108.78941702842712
aF67.08778882026672
aF29.210875988006592
aF30.612104892730713
aF15.294739007949829
aF37.13001489639282
aF95.71542096138
aF31.830974102020264
aF18.2776939868927
aF41.239439964294434
aF80.45525193214417
aF32.7649450302124
aF27.4342200756073
aF305.69767904281616
aF33.555625915527344
aF32.2768440246582
aF66.61716604232788
aF42.24497699737549
aF49.91072106361389
aF30.725632190704346
aF32.85407090187073
aF46.18830490112305
aF38.63168120384216
aF37.772485971450806
aF20.600073099136353
aF41.004634141922
aF46.63732600212097
aF50.768290996551514
aF22.580821990966797
aF42.58063292503357
aF73.32574892044067
aF57.773621797561646
aF73.61394000053406
aF43.00428605079651
aF84.21172618865967
aF27.654181003570557
aF56.89582705497742
aF69.17934679985046
aF32.71759510040283
aF49.45276188850403
aF62.29593801498413
aF26.406989097595215
aF73.7215690612793
aF48.66109895706177
aF37.898085832595825
aF302.39650988578796
aF22.30608105659485
aF51.09338688850403
aF41.573256969451904
aF35.382997035980225
aF30.45700693130493
aF103.37626385688782
aF20.037372827529907
aF32.72241497039795
aF15.283085107803345
aF201.69961214065552
aF34.373034954071045
aF21.52610182762146
aF209.49042081832886
aF109.69313502311707
aF60.13351607322693
aF17.847175121307373
aF50.71624708175659
aF18.154375076293945
aF93.55826902389526
aF62.54720997810364
aF22.128709077835083
aF127.10766816139221
aF33.196962118148804
aF21.96737003326416
aF36.68708515167236
aF43.83148503303528
aF78.75031614303589
aF28.8459529876709
aF31.998237133026123
aF18.504987955093384
aF35.279213190078735
aF64.76493692398071
aF28.320667028427124
aF237.3031129837036
aF72.22610807418823
aF48.79413199424744
aF25.89237403869629
aF42.31980800628662
aF75.21221685409546
aF48.36391806602478
aF35.528400897979736
aF96.97563195228577
aF41.884336948394775
aF27.840323209762573
aF18.22109293937683
aF138.66490197181702
aF27.463605880737305
aF301.0819001197815
aF32.211982011795044
aF116.67809200286865
aF108.04882383346558
aF86.84355187416077
aF52.85428714752197
aF33.007200956344604
aF60.35022592544556
aF49.524080991744995
aF44.33985710144043
aF61.91764807701111
aF41.0683159828186
aF35.14611482620239
aF74.52552103996277
aF23.01501989364624
aF15.69347095489502
aF34.752931118011475
aF30.32203698158264
aF86.75085616111755
aF50.32975792884827
aF87.66168785095215
aF43.82606101036072
aF135.04633498191833
aF80.89141416549683
aF18.960920095443726
aF39.63069987297058
aF19.536938905715942
aF187.579430103302
aF34.18048095703125
aF160.17833805084229
aF51.431087017059326
aF33.97421479225159
aF22.738956928253174
aF31.596842050552368
aF67.1495008468628
aF48.67578101158142
aF25.957423210144043
aF117.06040000915527
aF19.27196502685547
aF34.169979095458984
aF103.78565406799316
aF112.452791929245
aF21.647711992263794
aF18.602437019348145
aF48.4955370426178
aF303.85162806510925
aF27.4534010887146
aF21.599246978759766
aF16.53725790977478
aF30.021610021591187
aF85.07700490951538
aF72.29009890556335
aF34.52100610733032
aF165.58542609214783
aF156.6537640094757
aF23.542301177978516
aF40.39921021461487
aF67.43846297264099
aF27.4394690990448
aF238.2960910797119
aF95.80656313896179
aF21.79432201385498
aF53.31487798690796
aF25.489259004592896
aF29.818317890167236
aF31.410521030426025
aF50.11511778831482
aF31.21676206588745
aF25.55447006225586
aF89.9536759853363
aF18.798808097839355
aF33.368695974349976
aF107.3714668750763
aF72.46856999397278
aF27.75092577934265
aF131.94490599632263
aF38.35566997528076
aF26.997323989868164
aF88.62240791320801
aF16.615046977996826
aF19.429865837097168
aF21.903743982315063
aF35.07992100715637
aF37.74683094024658
aF24.32212519645691
aF58.218806982040405
aF31.665087938308716
aF35.70474314689636
aF36.674530029296875
aF23.68796992301941
aF21.30186104774475
aF70.0376889705658
aF118.91431784629822
aF52.37929701805115
aF18.245918035507202
aF54.34075999259949
aF54.77089595794678
aF20.53818988800049
aF54.989299058914185
aF33.148833990097046
aF35.110668897628784
aF17.52090096473694
aF24.98941206932068
aF42.657044887542725
aF18.4912691116333
aF43.04579710960388
aF39.15516996383667
aF110.95839595794678
aF71.54038405418396
aF48.109127044677734
aF73.86485815048218
aF64.91283178329468
aF145.26440906524658
aF37.84228992462158
aF31.858793020248413
aF116.07389211654663
aF52.06495189666748
aF301.0327959060669
aF81.52719402313232
aF70.43424201011658
aF54.81925415992737
aF31.894180059432983
aF171.88337683677673
aF17.70329785346985
aF23.206537008285522
aF17.598090887069702
aF96.42439413070679
aF32.79616713523865
aF50.959667921066284
aF27.87506604194641
aF76.97050881385803
aF138.8548080921173
aF64.305734872818
aF40.88282108306885
aF81.47807002067566
aF44.289644956588745
aF16.885305166244507
aF57.14848709106445
aF129.01952409744263
aF17.73171901702881
aF47.23811197280884
aF59.48139810562134
aF44.43032884597778
aF38.07491898536682
aF41.7751259803772
aF37.28298592567444
aF104.19490814208984
aF125.2897698879242
aF19.881780862808228
aF45.416061878204346
aF30.0272958278656
aF67.88607597351074
aF26.959705114364624
aF34.185715198516846
aF31.038172960281372
aF41.1780059337616
aF101.43112707138062
aF18.246089935302734
aF30.00848078727722
aF31.336020946502686
aF20.17392587661743
aF304.0220308303833
aF69.58510398864746
aF18.625804901123047
aF70.39106106758118
aF99.29250001907349
aF58.07986283302307
aF96.96149897575378
aF30.917222023010254
aF18.183912992477417
aF22.086570978164673
aF34.96252393722534
aF73.2130560874939
aF60.17491006851196
aF21.854445934295654
aF32.76430797576904
aF46.84302806854248
aF48.99162793159485
aF30.7239089012146
aF82.98327994346619
aF96.53898215293884
aF66.14542508125305
aF66.8629879951477
aF74.84623885154724
aF19.544618844985962
aF43.69295001029968
aF31.861371994018555
aF140.53963589668274
aF32.719990968704224
aF32.18557095527649
aF25.512423038482666
aF41.543606996536255
aF34.02349615097046
aF300.6381070613861
aF38.119402170181274
aF22.0436589717865
aF20.995327949523926
aF129.8232729434967
aF22.619046926498413
aF45.529492139816284
aF105.8466408252716
aF32.584372997283936
aF182.72004580497742
aF303.7286169528961
aF181.155118227005
aF134.5763008594513
aF29.40631103515625
aF37.66171312332153
aF26.28247094154358
aF32.35892391204834
aF19.90505886077881
aF46.79091191291809
aF23.090705156326294
aF17.008563995361328
aF38.73002290725708
aF59.03482794761658
aF25.076125860214233
aF109.37162518501282
aF35.064433097839355
aF46.742635011672974
aF33.44568204879761
aF66.58513283729553
aF41.449613094329834
aF94.96716713905334
aF34.7529399394989
aF24.545766830444336
aF92.18978881835938
aF15.918564796447754
aF63.638309955596924
aF29.581537008285522
aF24.712433099746704
aF88.90957903862
aF21.974537134170532
aF30.05727195739746
aF58.92538809776306
aF302.0048451423645
aF158.14787888526917
aF26.46580696105957
aF88.18296599388123
aF103.26279807090759
aF95.42604517936707
aF19.441220998764038
aF18.364104986190796
aF19.05244207382202
aF18.514219045639038
aF16.332364082336426
aF39.80193305015564
aF40.728062868118286
aF39.52256679534912
aF52.78524303436279
aF169.29548692703247
aF120.67524790763855
aF54.14818596839905
aF55.216103076934814
aF80.97802805900574
aF61.61549782752991
aF24.442800998687744
aF149.72094893455505
aF32.53749108314514
aF86.21481108665466
aF66.15949702262878
aF26.086673974990845
aF42.308298110961914
aF21.200803995132446
aF187.73296904563904
aF35.05482006072998
aF27.689132928848267
aF40.89665699005127
aF84.42891907691956
aF25.93598508834839
aF30.940095901489258
aF48.456669092178345
aF17.348488092422485
aF56.820908069610596
aF32.463528871536255
aF32.72572898864746
aF47.76913905143738
aF30.930780172348022
aF30.99222493171692
aF41.14742684364319
aF84.35070300102234
aF28.88830804824829
aF78.56861305236816
aF30.866971969604492
aF77.71995282173157
aF23.067612171173096
aF25.541045904159546
aF46.728610038757324
aF44.62606716156006
aF27.242371082305908
aF133.27953004837036
aF60.45266795158386
aF72.42237997055054
aF134.88248682022095
aF34.453994035720825
aF28.092926025390625
aF66.1263370513916
aF43.40107011795044
aF21.626221895217896
aF69.3898389339447
aF100.0866949558258
aF22.25146722793579
aF23.302372932434082
aF27.87100315093994
aF22.323566913604736
aF71.08880686759949
aF43.68786120414734
aF89.49202299118042
aF99.60414290428162
aF33.48231291770935
aF25.65525794029236
aF87.6042149066925
aF35.713756799697876
aF40.81211805343628
aF143.6167860031128
aF93.24828100204468
aF81.77828693389893
aF36.367785930633545
aF56.423431158065796
aF36.29160499572754
aF36.24525713920593
aF56.6916868686676
aF24.4790461063385
aF24.229568004608154
aF33.816301107406616
aF61.94674801826477
aF53.06001591682434
aF17.10049295425415
aF67.01554298400879
aF31.912157773971558
aF22.382911920547485
aF180.0416021347046
aF113.83637809753418
aF37.499117851257324
aF43.65615105628967
aF26.25819706916809
aF14.535010814666748
aF44.79390788078308
aF26.210835933685303
aF49.144185066223145
aF79.0086829662323
aF43.09025597572327
aF130.15869283676147
aF38.009947061538696
aF20.771610975265503
aF56.312613010406494
aF33.5954270362854
aF19.332483053207397
aF33.408475160598755
aF28.297064781188965
aF49.74649095535278
aF34.05003595352173
aF30.241118907928467
aF65.09308815002441
aF51.305490016937256
aF72.48296689987183
aF29.840740203857422
aF85.66996192932129
aF38.690118074417114
aF156.06150698661804
aF40.37696695327759
aF42.528403997421265
aF39.70526099205017
aF31.31200098991394
aF29.3989200592041
aF24.908347129821777
aF25.645511150360107
aF42.258113861083984
aF42.12849402427673
aF71.25298118591309
aF29.373971939086914
aF28.13782286643982
aF27.703953981399536
aF16.38944101333618
aF99.40576100349426
aF123.78381609916687
aF71.06807518005371
aF20.383534908294678
aF18.341975927352905
aF49.4785099029541
aF60.92455005645752
aF19.971856832504272
aF53.994385957717896
aF171.76946997642517
aF19.047420024871826
aF30.898420095443726
aF16.50617790222168
aF42.77224898338318
aF26.14538884162903
aF216.09471487998962
aF53.240768909454346
aF73.3315818309784
aF35.302802085876465
aF45.957594871520996
aF106.73570013046265
aF53.803916931152344
aF86.91990613937378
aF31.092120885849
aF111.98175287246704
aF38.174551010131836
aF18.588648080825806
aF25.19577407836914
aF209.0221939086914
aF156.26113104820251
aF53.69394111633301
aF25.870198011398315
aF41.11521291732788
aF182.66302490234375
aF32.523792028427124
aF78.06959795951843
aF23.646563053131104
aF132.72847199440002
aF53.558610916137695
aF78.360356092453
aF300.0973770618439
aF43.36299109458923
aF20.345633029937744
aF38.417526960372925
aF76.13260793685913
aF22.920063972473145
aF71.49779009819031
aF18.876981019973755
aF29.25197196006775
aF23.121397018432617
aF67.7126100063324
aF128.0842480659485
aF115.34473490715027
aF34.594220876693726
aF38.312199115753174
aF76.40247988700867
aF108.70559787750244
aF104.71485090255737
aF47.80252194404602
aF29.32534909248352
aF20.553366899490356
aF18.999100923538208
aF57.23197889328003
aF70.52337121963501
aF31.199692010879517
aF31.413650035858154
aF50.36105179786682
aF83.6403911113739
aF227.3973639011383
aF36.66565299034119
aF20.954771995544434
aF125.83857989311218
aF30.799671173095703
aF20.446157932281494
aF17.648535013198853
aF90.26440095901489
aF26.17808198928833
aF56.464109897613525
aF25.221721172332764
aF28.251446962356567
aF91.60974383354187
aF27.369931936264038
aF167.03754591941833
aF79.31666803359985
aF55.11346697807312
aF34.954773902893066
aF245.69359683990479
aF42.241108894348145
aF17.118407011032104
aF61.48894786834717
aF64.66321301460266
aF23.997113943099976
aF17.798889875411987
aF36.26492786407471
aF34.17288899421692
aF28.595136880874634
aF32.59730410575867
aF18.92705798149109
aF21.285521030426025
aF28.467859029769897
aF42.83622598648071
aF35.62117099761963
aF39.26011514663696
aF23.810821056365967
aF91.10405611991882
aF74.4009439945221
aF21.675014972686768
aF26.011316061019897
aF139.71509909629822
aF36.434906005859375
aF46.6828339099884
aF24.825543880462646
aF36.47290802001953
aF90.69761109352112
aF140.08268189430237
aF43.27379584312439
aF98.10834097862244
aF32.76626801490784
aF20.176844120025635
aF36.7895929813385
aF17.93962001800537
aF25.95823621749878
aF22.67490792274475
aF39.44991111755371
aF46.891884088516235
aF22.989777088165283
aF37.44830513000488
aF41.870035886764526
aF50.71169185638428
aF94.71750593185425
aF65.66615986824036
aF18.144150972366333
aF20.77963614463806
aF30.95865797996521
aF42.27338409423828
aF26.5518639087677
aF101.2168869972229
aF30.176617860794067
aF18.352413177490234
aF32.898282051086426
aF21.800490140914917
aF78.78006887435913
aF35.645877838134766
aF19.68538188934326
aF27.75516986846924
aF301.61229705810547
aF29.549533128738403
aF16.03159213066101
aF22.32183289527893
aF114.87963104248047
aF151.9676330089569
aF43.0731360912323
aF39.95765209197998
aF140.47906804084778
aF23.3764910697937
aF20.96675419807434
aF24.403576850891113
aF50.10837507247925
aF17.238136053085327
aF39.01496601104736
aF190.98784804344177
aF27.694304943084717
aF37.32037615776062
aF22.83566188812256
aF50.47056698799133
aF100.88890600204468
aF54.235610008239746
aF26.872250080108643
aF28.7898588180542
aF20.262001037597656
aF56.23799419403076
aF66.60751008987427
aF19.415220022201538
aF59.177356004714966
aF66.4386990070343
aF71.83421397209167
aF40.090620040893555
aF36.116681814193726
aF29.124417066574097
aF75.13143491744995
aF94.1376359462738
aF21.662776947021484
aF46.26278901100159
aF224.759596824646
aF60.23675489425659
aF24.551532983779907
aF101.38927602767944
aF25.47215986251831
aF24.529869079589844
aF123.64133906364441
aF100.43161416053772
aF103.96450901031494
aF42.52685809135437
aF140.2675359249115
aF83.44181203842163
aF243.91314506530762
aF70.07736802101135
aF32.58571791648865
aF38.51199197769165
aF20.73767900466919
aF25.680572986602783
aF49.47253108024597
aF42.67041897773743
aF53.76432394981384
aF37.79922294616699
aF33.10049295425415
aF20.43287491798401
aF38.99881315231323
aF59.96649789810181
aF291.53412103652954
aF39.92807078361511
aF22.75024390220642
aF169.83976984024048
aF51.96994709968567
aF34.00951099395752
aF32.48321604728699
aF17.05536699295044
aF63.90874719619751
aF41.150362968444824
aF83.27111291885376
aF28.145002126693726
aF118.12634992599487
aF45.43878889083862
aF30.23025393486023
aF30.98627805709839
aF118.32146000862122
aF81.46540904045105
aF20.781219005584717
aF30.833506107330322
aF48.81762504577637
aF185.5099380016327
aF63.318994998931885
aF143.59767198562622
aF52.73115420341492
aF303.3349959850311
aF31.217761039733887
aF94.22416710853577
aF23.560816049575806
aF25.231712818145752
aF57.30145502090454
aF34.36188888549805
aF21.958730936050415
aF87.30648589134216
aF52.275799036026
aF65.40576100349426
aF302.6804299354553
aF131.9059488773346
aF41.413941860198975
aF33.8129940032959
aF50.94967198371887
aF75.18796896934509
aF30.619436979293823
aF69.86407208442688
aF96.42891693115234
aF23.688310146331787
aF174.1576030254364
aF31.840620040893555
aF42.376627922058105
aF26.948469877243042
aF127.79561400413513
aF24.62011694908142
aF18.359782934188843
aF40.445340156555176
aF46.90451502799988
aF24.506886959075928
aF144.3607838153839
aF46.095629930496216
aF19.873054027557373
aF28.941097021102905
aF50.90322303771973
aF52.12542510032654
aF40.905988931655884
aF16.610416889190674
aF49.96667408943176
aF263.4795968532562
aF23.093247175216675
aF29.775004863739014
aF66.68785500526428
aF27.130980968475342
aF20.950427055358887
aF70.96418905258179
aF38.98762893676758
aF26.468059062957764
as.