(dp0
S'successes'
p1
(lp2
I01
aI00
aI01
aI01
aI01
aI01
aI01
aI01
aI01
aI01
aI01
aI01
aI01
aI01
aI01
aI00
aI01
aI01
aI01
aI01
aI01
aI01
aI01
aI01
aI01
aI01
aI01
aI01
aI01
aI01
aI00
aI01
aI01
aI01
aI01
aI01
aI01
aI01
aI01
aI00
aI01
aI01
aI01
aI01
aI01
aI01
aI01
aI00
aI01
aI00
aI01
aI01
aI01
aI01
aI00
aI01
aI00
aI01
aI01
aI01
aI00
aI01
aI01
aI01
aI01
aI01
aI00
aI01
aI01
aI01
aI00
aI00
aI01
aI01
aI01
aI01
aI01
aI01
aI01
aI01
aI01
aI01
aI01
aI01
aI01
aI01
aI01
aI01
aI01
aI01
aI01
aI01
aI01
aI01
aI01
aI00
aI00
aI00
aI01
aI01
aI00
aI01
aI01
aI01
aI01
aI01
aI00
aI01
aI01
aI01
aI01
aI01
aI01
aI01
aI01
aI01
aI01
aI01
aI00
aI01
aI01
aI01
aI01
aI01
aI01
aI00
aI01
aI01
aI01
aI01
aI01
aI01
aI00
aI01
aI00
aI01
aI00
aI01
aI01
aI00
aI01
aI01
aI00
aI01
aI01
aI01
aI00
aI01
aI01
aI01
aI01
aI01
aI01
aI01
aI00
aI00
aI01
aI01
aI01
aI01
aI01
aI01
aI01
aI01
aI01
aI01
aI00
aI01
aI01
aI01
aI01
aI01
aI01
aI01
aI00
aI01
aI01
aI01
aI01
aI01
aI01
aI01
aI01
aI01
aI00
aI01
aI01
aI01
aI01
aI01
aI00
aI00
aI01
aI01
aI01
aI01
aI01
aI01
aI00
aI01
aI01
aI01
aI01
aI00
aI01
aI01
aI00
aI01
aI01
aI01
aI00
aI01
aI01
aI01
aI01
aI01
aI01
aI00
aI01
aI01
aI01
aI00
aI01
aI01
aI01
aI01
aI01
aI00
aI00
aI01
aI01
aI01
aI01
aI00
aI01
aI01
aI01
aI01
aI01
aI01
aI01
aI01
aI01
aI00
aI01
aI01
aI01
aI01
aI01
aI01
aI01
aI01
aI01
aI01
aI01
aI01
aI01
aI01
aI01
aI01
aI00
aI01
aI01
asS'plan_length'
p3
(lp4
I18
aI18
aI10
aI2
aI1
aI3
aI1
aI4
aI7
aI2
aI2
aI9
aI2
aI1
aI7
aI7
aI3
aI2
aI3
aI1
aI1
aI4
aI5
aI4
aI7
aI4
aI8
aI5
aI5
aI3
aI3
aI3
aI1
aI2
aI3
aI6
aI2
aI16
aI4
aI4
aI16
aI2
aI6
aI5
aI3
aI9
aI4
aI4
aI5
aI5
aI7
aI1
aI4
aI3
aI3
aI1
aI1
aI3
aI6
aI8
aI8
aI4
aI4
aI2
aI8
aI6
aI6
aI1
aI4
aI1
aI1
aI1
aI11
aI4
aI8
aI1
aI4
aI4
aI11
aI9
aI5
aI2
aI1
aI3
aI2
aI1
aI1
aI17
aI2
aI2
aI2
aI1
aI2
aI5
aI6
aI6
aI6
aI6
aI4
aI2
aI2
aI2
aI8
aI5
aI1
aI1
aI1
aI5
aI1
aI3
aI3
aI13
aI4
aI4
aI7
aI1
aI4
aI10
aI10
aI3
aI1
aI6
aI3
aI8
aI1
aI1
aI2
aI5
aI12
aI4
aI2
aI1
aI1
aI6
aI6
aI6
aI6
aI2
aI11
aI11
aI1
aI5
aI5
aI4
aI6
aI1
aI1
aI1
aI1
aI5
aI2
aI4
aI2
aI1
aI1
aI1
aI8
aI2
aI3
aI12
aI2
aI1
aI4
aI2
aI11
aI1
aI1
aI2
aI4
aI8
aI1
aI2
aI2
aI8
aI8
aI1
aI6
aI1
aI4
aI2
aI9
aI3
aI4
aI14
aI14
aI1
aI2
aI1
aI4
aI4
aI4
aI4
aI3
aI6
aI4
aI1
aI2
aI17
aI17
aI5
aI2
aI5
aI5
aI5
aI1
aI2
aI2
aI2
aI1
aI6
aI6
aI4
aI1
aI10
aI4
aI5
aI8
aI8
aI2
aI1
aI1
aI1
aI2
aI7
aI8
aI1
aI4
aI4
aI4
aI2
aI2
aI5
aI6
aI6
aI9
aI18
aI1
aI4
aI3
aI3
aI4
aI6
aI5
aI5
aI9
aI1
aI1
aI2
aI2
aI3
aI3
aI2
aI12
aI1
aI4
aI2
aI3
aI1
aI6
aI2
aI2
aI1
aI5
asS'num_nodes'
p5
(lp6
I89
aI17
aI30
aI2
aI1
aI5
aI1
aI7
aI40
aI20
aI2
aI20
aI2
aI1
aI25
aI17
aI3
aI2
aI3
aI1
aI1
aI4
aI10
aI6
aI36
aI7
aI13
aI6
aI17
aI17
aI17
aI4
aI1
aI2
aI7
aI22
aI2
aI85
aI5
aI17
aI72
aI2
aI9
aI21
aI12
aI26
aI7
aI17
aI5
aI17
aI31
aI1
aI15
aI3
aI17
aI1
aI17
aI17
aI7
aI9
aI17
aI17
aI7
aI3
aI27
aI6
aI17
aI1
aI4
aI1
aI17
aI17
aI64
aI23
aI16
aI1
aI7
aI4
aI27
aI44
aI13
aI12
aI1
aI7
aI2
aI1
aI1
aI50
aI3
aI2
aI2
aI1
aI2
aI8
aI25
aI17
aI17
aI17
aI6
aI2
aI17
aI3
aI28
aI25
aI1
aI1
aI17
aI8
aI1
aI14
aI4
aI59
aI7
aI30
aI39
aI1
aI7
aI88
aI17
aI6
aI1
aI6
aI3
aI14
aI1
aI17
aI3
aI32
aI24
aI4
aI3
aI1
aI17
aI33
aI17
aI6
aI17
aI3
aI36
aI17
aI1
aI6
aI17
aI6
aI18
aI1
aI17
aI1
aI1
aI6
aI2
aI4
aI3
aI1
aI17
aI17
aI16
aI2
aI3
aI79
aI3
aI1
aI7
aI11
aI53
aI1
aI98
aI2
aI20
aI17
aI1
aI2
aI2
aI71
aI17
aI1
aI9
aI1
aI7
aI2
aI20
aI11
aI4
aI24
aI17
aI1
aI2
aI1
aI6
aI5
aI17
aI17
aI4
aI32
aI18
aI1
aI12
aI34
aI17
aI18
aI13
aI18
aI9
aI17
aI1
aI2
aI17
aI2
aI1
aI24
aI17
aI5
aI14
aI12
aI9
aI5
aI29
aI17
aI2
aI1
aI1
aI17
aI3
aI26
aI27
aI1
aI5
aI17
aI17
aI3
aI2
aI24
aI17
aI17
aI24
aI39
aI1
aI17
aI3
aI3
aI13
aI10
aI14
aI17
aI31
aI1
aI1
aI3
aI2
aI67
aI3
aI12
aI51
aI1
aI5
aI2
aI14
aI1
aI9
aI3
aI17
aI1
aI16
asS'times'
p7
(lp8
F283.05847215652466
aF38.60756802558899
aF99.73426818847656
aF18.10719895362854
aF14.508757829666138
aF28.663164854049683
aF15.514129877090454
aF35.84512495994568
aF98.0288999080658
aF56.798765897750854
aF19.796823024749756
aF63.84695911407471
aF19.67145800590515
aF16.894709825515747
aF75.57566285133362
aF33.69912600517273
aF21.871495008468628
aF24.095521926879883
aF21.42904496192932
aF15.197849035263062
aF16.14940619468689
aF28.66438102722168
aF39.78584694862366
aF37.869744062423706
aF99.4793689250946
aF31.779737949371338
aF66.74623084068298
aF34.942951917648315
aF52.6373610496521
aF71.1901581287384
aF38.98692297935486
aF25.57016897201538
aF13.622711896896362
aF21.910730123519897
aF52.45708107948303
aF76.60154390335083
aF25.604583978652954
aF226.6387221813202
aF27.615255117416382
aF37.65576720237732
aF190.83354210853577
aF25.757012128829956
aF49.46108913421631
aF62.56210803985596
aF65.01320004463196
aF82.24013209342957
aF41.908823013305664
aF36.75992012023926
aF29.996506929397583
aF40.496366024017334
aF77.92813992500305
aF13.19817590713501
aF48.522773027420044
aF24.096208810806274
aF32.66610288619995
aF14.236682176589966
aF38.551822900772095
aF73.80277800559998
aF60.264183044433594
aF50.647684812545776
aF34.85667395591736
aF50.30528688430786
aF40.15019202232361
aF22.66769003868103
aF115.61595296859741
aF43.11428999900818
aF34.77065086364746
aF14.854070901870728
aF23.367058038711548
aF17.08677887916565
aF32.839937925338745
aF35.34852981567383
aF159.77974700927734
aF64.57847118377686
aF77.7973210811615
aF14.472908020019531
aF29.578726053237915
aF26.81483507156372
aF87.67175221443176
aF126.51992201805115
aF49.63884902000427
aF40.67555093765259
aF20.012142181396484
aF29.217177867889404
aF18.80819296836853
aF37.37755298614502
aF15.713629007339478
aF162.33537197113037
aF18.99358892440796
aF20.386017084121704
aF22.792394161224365
aF16.74968385696411
aF22.055264949798584
aF45.24859094619751
aF67.83721804618835
aF37.02341818809509
aF36.473592042922974
aF37.42695879936218
aF39.05575394630432
aF17.425477027893066
aF39.7994019985199
aF20.83031392097473
aF81.6227970123291
aF79.19029903411865
aF16.43582320213318
aF16.598127126693726
aF34.72607707977295
aF38.77817511558533
aF15.364652872085571
aF48.12352895736694
aF27.226825952529907
aF166.51960682868958
aF37.920188903808594
aF71.88168716430664
aF100.08811712265015
aF32.89153718948364
aF39.4169340133667
aF237.24134588241577
aF37.256381034851074
aF34.72294497489929
aF14.305891036987305
aF32.83193302154541
aF28.571799993515015
aF62.608824014663696
aF15.16653299331665
aF31.203593015670776
aF20.91591715812683
aF85.20179200172424
aF95.27305293083191
aF25.408173084259033
aF20.39486789703369
aF16.332443952560425
aF36.663105964660645
aF112.2930281162262
aF37.318211793899536
aF44.38207292556763
aF34.21459984779358
aF21.99530005455017
aF127.69674801826477
aF32.40066695213318
aF13.598833084106445
aF33.986939907073975
aF36.38369417190552
aF33.44614505767822
aF61.662699937820435
aF16.57754397392273
aF36.437443017959595
aF13.384042024612427
aF15.272966861724854
aF61.198830127716064
aF19.214417934417725
aF31.174036979675293
aF21.645899057388306
aF14.824063062667847
aF33.09273099899292
aF39.02971696853638
aF70.69815611839294
aF35.52598595619202
aF23.815594911575317
aF241.77778100967407
aF27.504395008087158
aF15.267042875289917
aF38.7778000831604
aF40.13005995750427
aF139.84860396385193
aF14.515562057495117
aF300.56608414649963
aF18.72231101989746
aF53.86158299446106
aF61.7943549156189
aF16.499588012695312
aF21.917418003082275
aF24.651785135269165
aF215.0957112312317
aF43.04624700546265
aF16.895485162734985
aF69.64853811264038
aF16.80111002922058
aF35.383033990859985
aF20.95748496055603
aF67.15036582946777
aF38.454938888549805
aF37.6826548576355
aF98.10215306282043
aF38.35472297668457
aF15.387319087982178
aF19.729191064834595
aF15.534219026565552
aF33.31866693496704
aF41.064826011657715
aF38.55575108528137
aF37.01742100715637
aF26.104795932769775
aF94.7780408859253
aF54.79236388206482
aF15.024296998977661
aF36.30833196640015
aF108.33810496330261
aF34.46734809875488
aF61.31609487533569
aF44.324909925460815
aF86.09128212928772
aF41.91153621673584
aF32.21501088142395
aF16.471502780914307
aF22.278738975524902
aF34.1448609828949
aF17.504730939865112
aF14.127891063690186
aF72.66535186767578
aF33.74061298370361
aF33.41915798187256
aF37.08569693565369
aF54.98283100128174
aF38.59252715110779
aF32.31680703163147
aF83.67158389091492
aF33.41846013069153
aF19.927256107330322
aF14.276594161987305
aF18.23160195350647
aF35.72620701789856
aF24.26814579963684
aF78.69882702827454
aF76.58272695541382
aF15.548130989074707
aF31.350045919418335
aF34.31886291503906
aF39.75453305244446
aF20.100924015045166
aF22.158679962158203
aF68.31569314002991
aF61.46140003204346
aF30.30680012702942
aF67.63481497764587
aF142.04381489753723
aF12.915637016296387
aF46.865153074264526
aF25.749902963638306
aF23.853137969970703
aF42.28176784515381
aF47.12816405296326
aF51.37708401679993
aF33.99428701400757
aF95.70530390739441
aF34.670817136764526
aF36.03839898109436
aF20.283833980560303
aF29.961608171463013
aF163.38084316253662
aF25.634249925613403
aF43.92798113822937
aF139.36207485198975
aF15.208624839782715
aF28.64315104484558
aF21.740173816680908
aF44.54494881629944
aF15.671940088272095
aF58.13415312767029
aF20.47756600379944
aF38.360203981399536
aF15.904188871383667
aF56.399888038635254
as.