(dp0
S'successes'
p1
(lp2
I01
aI01
aI01
aI01
aI01
aI01
aI01
aI01
aI01
aI01
aI01
aI01
aI01
aI01
aI01
aI00
aI01
aI01
aI01
aI01
aI01
aI00
aI01
aI01
aI01
aI01
aI01
aI01
aI01
aI01
aI01
aI01
aI01
aI01
aI01
aI01
aI01
aI00
aI01
aI01
aI01
aI01
aI01
aI01
aI01
aI01
aI01
aI01
aI01
aI01
aI01
aI01
aI01
aI01
aI01
aI00
aI01
aI01
aI01
aI01
aI01
aI01
aI01
aI01
aI01
aI01
aI01
aI01
aI01
aI01
aI01
aI01
aI01
aI01
aI00
aI01
aI01
aI01
aI01
aI01
aI01
aI01
aI01
aI01
aI01
aI01
aI01
aI01
aI01
aI01
aI01
aI01
aI01
aI00
aI01
aI01
aI01
aI01
aI01
aI01
aI01
aI01
aI01
aI01
aI01
aI01
aI01
aI01
aI01
aI01
aI01
aI01
aI01
aI01
aI01
aI01
aI01
aI01
aI01
aI01
aI01
aI01
aI01
aI01
aI01
aI01
aI01
aI01
aI01
aI01
aI01
aI01
aI00
aI01
aI01
aI01
aI01
aI01
aI01
aI01
aI01
aI00
aI01
aI01
aI01
aI01
aI01
aI01
aI01
aI01
aI01
aI01
aI01
aI01
aI01
aI01
aI00
aI01
aI01
aI01
aI01
aI01
aI01
aI01
aI01
aI01
aI01
aI01
aI01
aI01
aI01
aI01
aI01
aI01
aI01
aI01
aI01
aI01
aI01
aI01
aI01
aI01
aI01
aI01
aI01
aI01
aI01
aI01
aI01
aI01
aI01
aI01
aI01
aI01
aI01
aI01
aI01
aI01
aI01
aI01
aI01
aI01
aI01
aI00
aI01
aI01
aI01
aI01
aI01
aI01
aI01
aI01
aI01
aI01
aI01
aI01
aI01
aI01
aI01
aI01
aI01
aI01
aI01
aI01
aI01
aI01
aI01
aI01
aI01
aI01
aI01
aI01
aI01
aI01
aI01
aI01
aI01
aI00
aI01
aI01
aI01
aI01
aI01
aI01
aI01
aI01
aI01
aI01
aI01
aI01
aI01
aI01
aI01
aI01
aI01
aI01
aI01
aI01
aI01
aI01
aI01
aI01
aI01
aI01
aI01
aI01
aI01
aI01
aI01
aI01
aI01
aI01
aI01
aI01
aI01
aI01
aI01
aI01
aI01
aI00
aI01
aI01
aI01
aI00
aI01
aI01
aI01
aI01
aI01
aI01
aI01
aI01
aI01
aI01
aI01
aI01
aI01
aI01
aI01
aI01
aI00
aI01
aI01
aI01
aI01
aI01
aI01
aI01
aI01
aI01
aI01
aI01
aI01
aI01
aI01
aI01
aI00
aI01
aI01
aI01
aI01
aI01
aI01
aI01
aI01
aI01
aI01
aI01
aI01
aI01
aI01
aI01
aI01
aI01
aI01
aI01
aI01
aI01
aI01
aI01
aI01
aI01
aI01
aI01
aI01
aI01
aI01
aI00
aI01
aI01
aI01
aI01
aI01
aI01
aI00
aI01
aI01
aI01
aI01
aI01
aI01
aI01
aI01
aI01
aI01
aI01
aI01
aI01
aI01
aI01
aI01
aI01
aI01
aI01
aI01
aI01
aI01
aI01
aI01
aI01
aI01
aI01
aI01
aI01
aI01
aI01
aI01
aI01
aI01
aI01
aI01
aI01
aI01
aI01
aI01
aI01
aI01
aI01
aI01
aI01
aI01
aI01
aI01
aI01
aI01
aI01
aI01
aI01
aI01
asS'pidxs'
p3
(lp4
I20069
aI20045
aI20074
aI20096
aI20003
aI20038
aI20098
aI20080
aI20000
aI20053
aI20028
aI20040
aI20044
aI20039
aI20036
aI20000
aI20067
aI20090
aI20069
aI20066
aI20070
aI20093
aI20074
aI20079
aI20035
aI20055
aI20057
aI20073
aI20070
aI20090
aI20017
aI20078
aI20058
aI20004
aI20044
aI20074
aI20077
aI20056
aI20012
aI20009
aI20025
aI20041
aI20070
aI20054
aI20006
aI20071
aI20043
aI20058
aI20095
aI20086
aI20033
aI20065
aI20001
aI20040
aI20016
aI20071
aI20013
aI20099
aI20044
aI20010
aI20016
aI20018
aI20092
aI20098
aI20067
aI20014
aI20026
aI20051
aI20089
aI20010
aI20037
aI20043
aI20001
aI20028
aI20033
aI20088
aI20068
aI20009
aI20039
aI20081
aI20044
aI20034
aI20047
aI20058
aI20008
aI20018
aI20082
aI20025
aI20009
aI20079
aI20048
aI20055
aI20031
aI20091
aI20064
aI20008
aI20001
aI20086
aI20012
aI20065
aI20052
aI20064
aI20079
aI20055
aI20032
aI20004
aI20048
aI20034
aI20091
aI20048
aI20007
aI20099
aI20065
aI20073
aI20060
aI20064
aI20089
aI20030
aI20056
aI20060
aI20086
aI20034
aI20071
aI20019
aI20006
aI20095
aI20042
aI20091
aI20044
aI20036
aI20037
aI20018
aI20092
aI20091
aI20086
aI20071
aI20075
aI20039
aI20028
aI20025
aI20040
aI20077
aI20064
aI20045
aI20089
aI20010
aI20052
aI20069
aI20083
aI20026
aI20003
aI20065
aI20052
aI20008
aI20070
aI20054
aI20028
aI20085
aI20036
aI20072
aI20005
aI20031
aI20005
aI20078
aI20068
aI20079
aI20060
aI20075
aI20087
aI20039
aI20055
aI20061
aI20087
aI20000
aI20048
aI20070
aI20029
aI20068
aI20078
aI20061
aI20050
aI20026
aI20002
aI20062
aI20010
aI20006
aI20076
aI20035
aI20012
aI20088
aI20050
aI20006
aI20021
aI20032
aI20000
aI20022
aI20051
aI20032
aI20083
aI20088
aI20038
aI20076
aI20053
aI20033
aI20029
aI20008
aI20025
aI20087
aI20074
aI20020
aI20078
aI20035
aI20099
aI20019
aI20006
aI20069
aI20045
aI20016
aI20045
aI20040
aI20071
aI20041
aI20031
aI20083
aI20055
aI20041
aI20084
aI20058
aI20034
aI20043
aI20063
aI20086
aI20025
aI20020
aI20096
aI20017
aI20014
aI20083
aI20089
aI20050
aI20027
aI20050
aI20029
aI20056
aI20053
aI20092
aI20030
aI20020
aI20042
aI20095
aI20035
aI20047
aI20028
aI20030
aI20031
aI20014
aI20021
aI20036
aI20002
aI20098
aI20062
aI20047
aI20026
aI20079
aI20009
aI20009
aI20021
aI20085
aI20038
aI20060
aI20020
aI20013
aI20031
aI20019
aI20053
aI20005
aI20068
aI20067
aI20022
aI20056
aI20072
aI20065
aI20022
aI20093
aI20095
aI20075
aI20005
aI20002
aI20092
aI20082
aI20093
aI20038
aI20077
aI20096
aI20060
aI20022
aI20081
aI20015
aI20007
aI20061
aI20051
aI20015
aI20027
aI20069
aI20032
aI20053
aI20034
aI20018
aI20090
aI20002
aI20068
aI20073
aI20043
aI20047
aI20016
aI20026
aI20077
aI20048
aI20083
aI20090
aI20082
aI20062
aI20095
aI20001
aI20033
aI20016
aI20004
aI20075
aI20072
aI20019
aI20012
aI20087
aI20051
aI20064
aI20021
aI20043
aI20012
aI20058
aI20087
aI20005
aI20054
aI20098
aI20004
aI20003
aI20018
aI20032
aI20054
aI20033
aI20037
aI20015
aI20002
aI20027
aI20029
aI20036
aI20092
aI20010
aI20003
aI20076
aI20041
aI20075
aI20038
aI20039
aI20050
aI20052
aI20052
aI20090
aI20063
aI20082
aI20021
aI20040
aI20067
aI20003
aI20084
aI20030
aI20046
aI20020
aI20046
aI20082
aI20030
aI20014
aI20072
aI20008
aI20096
aI20091
aI20056
aI20004
aI20076
aI20054
aI20047
aI20078
aI20062
aI20062
aI20089
aI20076
aI20015
aI20035
aI20077
aI20067
aI20096
aI20029
aI20019
aI20001
aI20041
aI20000
aI20093
aI20045
aI20037
aI20014
aI20013
asS'plan_length'
p5
(lp6
I1
aI12
aI8
aI7
aI1
aI1
aI13
aI1
aI23
aI5
aI15
aI4
aI7
aI8
aI5
aI39
aI8
aI8
aI1
aI13
aI1
aI9
aI1
aI5
aI4
aI2
aI5
aI14
aI4
aI13
aI13
aI2
aI9
aI1
aI1
aI2
aI46
aI15
aI18
aI10
aI4
aI22
aI34
aI25
aI15
aI1
aI2
aI4
aI4
aI3
aI20
aI10
aI1
aI3
aI7
aI1
aI18
aI5
aI55
aI1
aI12
aI8
aI3
aI8
aI1
aI1
aI1
aI7
aI11
aI24
aI7
aI32
aI20
aI7
aI1
aI4
aI17
aI20
aI3
aI5
aI2
aI2
aI2
aI6
aI2
aI4
aI1
aI8
aI1
aI10
aI1
aI5
aI23
aI10
aI20
aI3
aI8
aI2
aI12
aI10
aI1
aI27
aI10
aI1
aI2
aI18
aI4
aI4
aI9
aI8
aI1
aI10
aI38
aI5
aI27
aI13
aI4
aI10
aI7
aI4
aI10
aI2
aI11
aI5
aI4
aI1
aI2
aI30
aI4
aI18
aI11
aI11
aI8
aI6
aI4
aI1
aI10
aI41
aI4
aI32
aI24
aI1
aI1
aI21
aI3
aI3
aI6
aI2
aI12
aI1
aI1
aI3
aI34
aI3
aI9
aI4
aI1
aI7
aI12
aI12
aI29
aI4
aI1
aI2
aI14
aI1
aI5
aI7
aI8
aI11
aI4
aI4
aI5
aI19
aI14
aI2
aI26
aI5
aI2
aI4
aI16
aI13
aI4
aI1
aI19
aI30
aI21
aI7
aI7
aI1
aI4
aI1
aI13
aI11
aI10
aI4
aI4
aI6
aI3
aI5
aI15
aI8
aI13
aI7
aI2
aI5
aI2
aI18
aI7
aI6
aI37
aI17
aI10
aI7
aI1
aI8
aI2
aI4
aI6
aI8
aI7
aI31
aI1
aI10
aI2
aI1
aI2
aI2
aI5
aI1
aI20
aI14
aI33
aI8
aI27
aI2
aI12
aI12
aI1
aI1
aI1
aI5
aI6
aI5
aI8
aI24
aI2
aI2
aI4
aI5
aI16
aI2
aI4
aI6
aI2
aI9
aI3
aI6
aI24
aI15
aI1
aI7
aI6
aI4
aI13
aI12
aI9
aI17
aI1
aI20
aI2
aI2
aI32
aI12
aI17
aI35
aI5
aI2
aI3
aI4
aI1
aI14
aI1
aI1
aI5
aI19
aI6
aI16
aI14
aI23
aI12
aI14
aI5
aI6
aI12
aI2
aI10
aI2
aI14
aI11
aI11
aI2
aI1
aI8
aI23
aI2
aI6
aI2
aI3
aI1
aI24
aI3
aI9
aI7
aI1
aI1
aI2
aI6
aI4
aI1
aI19
aI2
aI4
aI4
aI2
aI6
aI8
aI16
aI1
aI13
aI17
aI19
aI6
aI8
aI28
aI19
aI14
aI12
aI4
aI1
aI5
aI23
aI6
aI16
aI10
aI17
aI8
aI7
aI18
aI1
aI3
aI4
aI4
aI8
aI1
aI13
aI3
aI5
aI25
aI1
aI1
aI3
aI3
aI9
aI4
aI1
aI6
aI18
aI4
aI9
aI7
aI16
aI3
aI7
aI3
aI22
aI2
aI9
aI3
aI32
aI19
aI10
aI8
aI8
aI12
aI3
aI13
aI4
aI27
aI11
aI1
aI8
asS'num_nodes'
p7
(lp8
I2
aI31
aI10
aI21
aI2
aI2
aI28
aI3
aI48
aI6
aI22
aI31
aI25
aI13
aI12
aI128
aI63
aI10
aI12
aI2
aI42
aI122
aI2
aI18
aI2
aI8
aI9
aI19
aI8
aI57
aI5
aI37
aI27
aI4
aI23
aI4
aI29
aI105
aI3
aI100
aI19
aI40
aI14
aI12
aI47
aI57
aI59
aI36
aI2
aI6
aI242
aI7
aI7
aI59
aI26
aI92
aI15
aI4
aI13
aI2
aI40
aI7
aI104
aI2
aI19
aI12
aI4
aI11
aI2
aI2
aI4
aI22
aI15
aI27
aI305
aI8
aI137
aI40
aI18
aI12
aI32
aI49
aI37
aI4
aI10
aI7
aI9
aI4
aI13
aI3
aI6
aI2
aI25
aI125
aI3
aI20
aI3
aI6
aI47
aI17
aI28
aI11
aI21
aI4
aI28
aI18
aI3
aI97
aI13
aI3
aI3
aI37
aI7
aI15
aI29
aI24
aI2
aI27
aI46
aI12
aI60
aI40
aI17
aI21
aI45
aI8
aI63
aI5
aI44
aI22
aI7
aI3
aI110
aI5
aI73
aI27
aI63
aI15
aI30
aI19
aI148
aI86
aI10
aI3
aI13
aI104
aI5
aI40
aI35
aI2
aI2
aI108
aI14
aI14
aI21
aI3
aI97
aI25
aI2
aI2
aI4
aI118
aI4
aI23
aI8
aI2
aI11
aI20
aI26
aI75
aI6
aI2
aI3
aI36
aI3
aI9
aI10
aI46
aI21
aI6
aI10
aI20
aI76
aI35
aI7
aI55
aI6
aI5
aI21
aI24
aI27
aI7
aI6
aI47
aI56
aI73
aI20
aI42
aI5
aI11
aI2
aI41
aI23
aI213
aI14
aI6
aI6
aI10
aI5
aI17
aI32
aI13
aI19
aI33
aI4
aI8
aI4
aI57
aI16
aI28
aI65
aI63
aI22
aI8
aI2
aI12
aI18
aI43
aI22
aI23
aI25
aI66
aI9
aI34
aI8
aI2
aI5
aI87
aI4
aI14
aI2
aI56
aI21
aI68
aI10
aI38
aI10
aI28
aI24
aI2
aI2
aI9
aI6
aI9
aI28
aI37
aI43
aI8
aI3
aI7
aI9
aI28
aI5
aI17
aI34
aI18
aI13
aI5
aI10
aI80
aI26
aI17
aI10
aI23
aI45
aI15
aI38
aI13
aI28
aI87
aI2
aI32
aI5
aI113
aI4
aI92
aI27
aI30
aI117
aI8
aI37
aI6
aI13
aI2
aI55
aI3
aI2
aI14
aI39
aI8
aI115
aI31
aI21
aI27
aI84
aI57
aI7
aI10
aI19
aI3
aI42
aI4
aI38
aI34
aI23
aI9
aI93
aI4
aI20
aI42
aI15
aI22
aI4
aI8
aI139
aI57
aI6
aI15
aI8
aI13
aI3
aI6
aI8
aI10
aI5
aI36
aI5
aI6
aI10
aI4
aI22
aI26
aI46
aI2
aI36
aI50
aI27
aI410
aI12
aI34
aI33
aI38
aI21
aI18
aI116
aI7
aI2
aI12
aI46
aI9
aI29
aI38
aI29
aI11
aI18
aI25
aI2
aI7
aI15
aI9
aI13
aI2
aI26
aI4
aI8
aI38
aI2
aI2
aI11
aI5
aI33
aI10
aI2
aI12
aI40
aI9
aI11
aI10
aI34
aI6
aI16
aI12
aI42
aI4
aI18
aI6
aI74
aI45
aI17
aI23
aI13
aI25
aI8
aI41
aI5
aI55
aI28
aI2
aI12
asS'times'
p9
(lp10
F18.770375967025757
aF80.89543890953064
aF50.53998804092407
aF47.11034607887268
aF16.641310930252075
aF25.510844945907593
aF90.32113790512085
aF17.59903907775879
aF170.7754340171814
aF38.924115896224976
aF79.2200379371643
aF58.22730994224548
aF59.941015005111694
aF57.05694508552551
aF41.34238004684448
aF300.7859950065613
aF221.2331829071045
aF57.04589486122131
aF53.30913996696472
aF17.43448305130005
aF94.19265604019165
aF302.8537030220032
aF24.530636072158813
aF63.63318610191345
aF15.806852102279663
aF30.76554012298584
aF64.57483911514282
aF57.16418194770813
aF42.331953048706055
aF114.0138931274414
aF36.44316005706787
aF103.75195407867432
aF101.16726016998291
aF20.171820163726807
aF55.44786500930786
aF21.96903705596924
aF37.334944009780884
aF300.2496910095215
aF19.10285997390747
aF270.36163902282715
aF73.66358304023743
aF117.2121639251709
aF57.71330809593201
aF40.801421880722046
aF138.92041993141174
aF205.62670588493347
aF150.01319694519043
aF103.78896188735962
aF22.63234806060791
aF23.861095905303955
aF234.36851596832275
aF34.1033148765564
aF29.735721111297607
aF144.37002396583557
aF70.17956399917603
aF300.8156020641327
aF32.16149187088013
aF24.241155862808228
aF47.28911995887756
aF17.64179801940918
aF109.0805561542511
aF36.27227711677551
aF294.21041893959045
aF20.107689142227173
aF65.65624809265137
aF48.66627502441406
aF31.943732976913452
aF56.09086799621582
aF19.320723056793213
aF17.549925804138184
aF21.147801876068115
aF63.33514094352722
aF71.70473003387451
aF109.37826013565063
aF304.22690200805664
aF41.52897596359253
aF239.94721508026123
aF123.23038792610168
aF50.900875091552734
aF26.35776996612549
aF59.06825113296509
aF104.75630497932434
aF118.67309808731079
aF27.636648893356323
aF38.35048508644104
aF29.036906957626343
aF27.325915813446045
aF22.419677019119263
aF48.52801489830017
aF22.862879991531372
aF29.788494110107422
aF21.389174938201904
aF60.45128297805786
aF300.65490102767944
aF22.99882411956787
aF59.37748599052429
aF23.291424036026
aF32.58097791671753
aF120.34750199317932
aF54.22371697425842
aF97.8374719619751
aF29.461458206176758
aF61.911932945251465
aF21.470090866088867
aF110.67190504074097
aF61.09374785423279
aF19.22251796722412
aF199.9376528263092
aF54.5644850730896
aF18.652420043945312
aF21.275799036026
aF130.1609489917755
aF36.31612801551819
aF56.63635015487671
aF56.309834003448486
aF77.35135579109192
aF19.608136892318726
aF94.76688408851624
aF180.4210240840912
aF40.94681692123413
aF174.91313195228577
aF106.72927284240723
aF43.14942479133606
aF66.00940203666687
aF92.48359417915344
aF61.84847402572632
aF107.34747886657715
aF18.79320001602173
aF97.36729979515076
aF48.81625699996948
aF28.23404312133789
aF17.124577045440674
aF302.0181770324707
aF20.5989670753479
aF186.24110794067383
aF62.017601013183594
aF132.2707450389862
aF60.22352886199951
aF88.47701406478882
aF55.36098504066467
aF179.06692504882812
aF303.729122877121
aF40.149564027786255
aF18.658998012542725
aF80.31703615188599
aF255.3443808555603
aF31.07520318031311
aF142.13648200035095
aF123.34231400489807
aF17.373821020126343
aF16.65977191925049
aF212.86052203178406
aF41.75535488128662
aF40.286092042922974
aF58.92428207397461
aF30.12468385696411
aF302.33961296081543
aF84.98310279846191
aF19.21616220474243
aF18.42524790763855
aF30.93094301223755
aF251.17080807685852
aF28.107059955596924
aF66.20771384239197
aF37.28636980056763
aF15.615269899368286
aF46.456746101379395
aF66.24156308174133
aF74.56528806686401
aF174.72066187858582
aF39.18940711021423
aF18.140950918197632
aF21.458171844482422
aF113.89920496940613
aF20.940201997756958
aF38.8429491519928
aF44.274418115615845
aF92.04261207580566
aF69.8833441734314
aF34.649800062179565
aF32.5462110042572
aF44.86381387710571
aF143.9487919807434
aF103.97618412971497
aF35.27987599372864
aF158.43842387199402
aF34.151707887649536
aF50.221867084503174
aF42.76459789276123
aF88.20535087585449
aF111.2065110206604
aF34.69890308380127
aF24.209747076034546
aF147.21260595321655
aF154.61261296272278
aF164.9096999168396
aF63.72683310508728
aF91.81036400794983
aF22.224478006362915
aF45.12298107147217
aF23.449914932250977
aF90.00621008872986
aF78.20697593688965
aF305.78666400909424
aF55.19898700714111
aF33.18944215774536
aF29.227354049682617
aF36.10323905944824
aF30.175657987594604
aF59.155603885650635
aF108.24040985107422
aF53.43496012687683
aF86.83300399780273
aF84.07010507583618
aF23.468783855438232
aF32.69831991195679
aF21.21794891357422
aF135.55438709259033
aF48.61777710914612
aF56.54120898246765
aF194.5002589225769
aF153.5770139694214
aF59.074862003326416
aF51.136049032211304
aF16.735378980636597
aF46.07967495918274
aF36.34525513648987
aF115.70345902442932
aF62.09219813346863
aF72.19632506370544
aF70.60443186759949
aF203.55198097229004
aF41.101815938949585
aF90.61028695106506
aF31.646600008010864
aF20.448715925216675
aF19.507426023483276
aF302.5342209339142
aF18.831905126571655
aF43.644699811935425
aF15.903333187103271
aF141.92227602005005
aF71.60207295417786
aF189.54030084609985
aF52.14721202850342
aF127.30650186538696
aF32.27145791053772
aF77.2199079990387
aF64.94268894195557
aF17.73829483985901
aF16.37104082107544
aF27.210928916931152
aF34.3046350479126
aF44.0548369884491
aF64.00001192092896
aF67.50856804847717
aF133.01304602622986
aF31.345283031463623
aF31.449721813201904
aF42.966105937957764
aF35.42844796180725
aF86.04649114608765
aF22.626518964767456
aF45.823452949523926
aF57.931132078170776
aF38.18958401679993
aF55.30486798286438
aF26.12534213066101
aF49.802314043045044
aF182.0239610671997
aF107.30482983589172
aF33.384395122528076
aF42.82325100898743
aF54.683780908584595
aF92.88903594017029
aF70.55279111862183
aF83.16233515739441
aF47.78493785858154
aF106.1419608592987
aF303.16235089302063
aF17.93731999397278
aF117.63789701461792
aF24.363932132720947
aF303.8487808704376
aF26.216124057769775
aF202.9178819656372
aF78.52064299583435
aF105.64904403686523
aF265.44705510139465
aF35.673985958099365
aF54.10019588470459
aF30.071101903915405
aF41.71581196784973
aF17.47640085220337
aF104.76365900039673
aF19.6429340839386
aF17.3403959274292
aF42.27343702316284
aF125.64869379997253
aF39.276010036468506
aF300.55584692955017
aF102.6254289150238
aF79.49428200721741
aF124.74929904937744
aF156.84913396835327
aF165.20423293113708
aF33.54343795776367
aF49.059754848480225
aF66.4723711013794
aF27.40656805038452
aF68.7197859287262
aF20.362387895584106
aF97.27837610244751
aF91.21108198165894
aF72.84804606437683
aF40.5048348903656
aF301.96038794517517
aF19.32897114753723
aF54.25436496734619
aF142.07186794281006
aF33.234787940979004
aF65.75327396392822
aF22.74879813194275
aF34.173155069351196
aF96.71002006530762
aF133.47240805625916
aF30.82005500793457
aF61.14668798446655
aF51.9579119682312
aF30.211992979049683
aF13.55280089378357
aF20.18848490715027
aF37.038026094436646
aF31.91321897506714
aF26.231481075286865
aF109.94625401496887
aF22.745227098464966
aF28.250131845474243
aF31.32467293739319
aF22.77406597137451
aF56.41921305656433
aF71.27899193763733
aF115.85710906982422
aF16.47928500175476
aF110.64830803871155
aF122.85817790031433
aF101.72841691970825
aF300.1171350479126
aF48.01068091392517
aF86.3854570388794
aF129.41507482528687
aF123.28445482254028
aF82.23002195358276
aF76.05676007270813
aF308.6409170627594
aF31.52218508720398
aF19.188115119934082
aF39.43704915046692
aF125.74376606941223
aF43.79254913330078
aF98.38647294044495
aF81.76962900161743
aF93.84780311584473
aF52.81196904182434
aF72.84371495246887
aF101.25534081459045
aF17.821171045303345
aF28.320868015289307
aF51.97777485847473
aF32.60904097557068
aF46.17907691001892
aF16.0818932056427
aF115.10696315765381
aF26.116302967071533
aF39.80034899711609
aF139.75471806526184
aF20.288419008255005
aF22.585856914520264
aF28.67848300933838
aF31.465671062469482
aF82.04437303543091
aF36.77030396461487
aF18.381908893585205
aF39.98927402496338
aF99.23828101158142
aF37.862565994262695
aF55.58908200263977
aF60.72317099571228
aF101.70514011383057
aF41.64083504676819
aF46.539793968200684
aF31.58238410949707
aF118.31080412864685
aF21.817944049835205
aF64.25882816314697
aF25.99715805053711
aF199.5826370716095
aF169.23145484924316
aF55.022998094558716
aF64.74489188194275
aF46.11781287193298
aF80.68580508232117
aF30.24785304069519
aF99.35600185394287
aF27.572363138198853
aF158.27010297775269
aF78.01836895942688
aF17.40429401397705
aF52.229629039764404
as.