(dp0
S'successes'
p1
(lp2
I01
aI01
aI01
aI01
aI01
aI01
aI01
aI01
aI01
aI01
aI01
aI01
aI01
aI01
aI01
aI01
aI01
aI01
aI00
aI00
aI00
aI01
aI01
aI01
aI01
aI01
aI01
aI01
aI01
aI01
aI01
aI01
aI01
aI00
aI01
aI01
aI01
aI01
aI01
aI01
aI00
aI01
aI01
aI01
aI00
aI00
aI01
aI01
aI01
aI00
aI01
aI01
aI01
aI01
aI01
aI01
aI01
aI01
aI01
aI01
aI01
aI01
aI01
aI01
aI01
aI01
aI01
aI01
aI01
aI01
aI01
aI01
aI01
aI00
aI01
aI01
aI01
aI01
aI01
aI00
aI01
aI00
aI01
aI01
aI01
aI01
aI01
aI01
aI01
aI01
aI01
aI01
aI01
aI01
aI01
aI01
aI01
aI00
aI01
aI01
aI01
aI01
aI00
aI01
aI01
aI00
aI01
aI01
aI01
aI01
aI01
aI01
aI01
aI00
aI01
aI01
aI01
aI01
aI01
aI01
aI01
aI01
aI01
aI01
aI01
aI01
aI01
aI01
aI01
aI01
aI00
aI01
aI01
aI01
aI01
aI01
aI00
aI01
aI01
aI01
aI01
aI01
aI00
aI01
aI01
aI01
aI01
aI01
aI00
aI01
aI01
aI01
aI00
aI00
aI01
aI01
aI01
aI01
aI01
aI00
aI01
aI01
aI01
aI01
aI01
aI01
aI00
aI01
aI01
aI01
aI01
aI00
aI01
aI01
aI00
aI00
aI00
aI01
aI01
aI00
aI00
aI01
aI01
aI01
aI01
aI01
aI01
aI01
aI01
aI01
aI01
aI01
aI01
aI01
aI01
aI01
aI01
aI01
aI01
aI01
aI01
aI01
aI01
aI01
aI01
aI01
aI01
aI00
aI00
aI01
aI01
aI01
aI01
aI01
aI01
aI01
aI01
aI01
aI01
aI01
aI01
aI01
aI01
aI01
aI01
aI01
aI01
aI01
aI01
aI01
aI01
aI01
aI00
aI01
aI00
aI01
aI01
aI01
aI00
aI01
aI01
aI01
aI00
aI00
aI01
aI01
aI01
aI01
aI01
aI01
aI00
aI01
aI01
aI01
aI01
aI01
aI01
aI01
aI01
aI01
aI01
aI01
aI01
aI01
aI01
aI01
aI01
aI01
aI01
aI01
aI01
aI00
aI01
aI01
aI01
aI01
aI01
aI01
aI01
aI00
aI00
aI01
aI01
aI01
aI01
aI01
aI01
aI01
aI01
aI01
aI01
aI01
aI01
aI01
aI01
aI01
aI01
aI01
aI01
aI01
aI01
aI01
aI01
aI01
aI01
aI01
aI01
aI01
aI01
aI01
aI01
aI01
aI01
aI01
aI01
aI01
aI01
aI01
aI01
aI00
aI01
aI01
aI01
aI01
aI01
aI01
aI01
aI01
aI01
aI01
aI01
aI01
aI01
aI01
aI00
aI01
aI01
aI01
aI01
aI01
aI01
aI01
aI01
aI01
aI01
aI01
aI01
aI00
aI00
aI00
aI00
aI01
aI01
aI01
aI01
aI01
aI00
aI01
aI01
aI01
aI01
aI01
aI01
aI01
aI01
aI01
aI01
aI01
aI01
aI01
aI01
aI01
aI01
aI01
aI00
aI01
aI01
aI00
aI01
aI01
aI01
aI01
aI01
aI01
aI01
aI00
aI01
aI01
aI01
aI01
aI01
aI00
aI01
aI01
aI01
aI01
aI01
aI01
aI01
aI01
aI01
aI01
aI01
aI01
aI01
aI01
aI01
aI01
aI01
aI01
aI01
aI01
aI01
aI01
aI01
aI01
aI00
aI01
aI01
aI01
aI00
aI01
aI01
aI01
aI01
aI01
aI01
aI01
aI01
aI01
aI01
aI01
aI01
aI01
aI01
aI01
aI01
aI01
aI01
aI01
aI01
aI01
aI00
aI01
aI01
aI00
aI01
aI00
aI01
aI01
aI01
aI01
aI01
aI01
aI01
aI01
aI01
aI01
aI01
aI01
aI01
aI01
aI01
aI01
aI01
aI01
aI01
aI01
aI01
aI00
aI00
aI01
aI01
aI01
aI01
aI01
aI01
aI01
aI01
aI01
aI01
aI01
aI01
aI00
aI01
aI01
aI01
aI01
aI01
aI01
aI01
aI01
aI01
aI00
aI01
aI00
aI01
aI01
aI01
aI01
aI01
aI01
aI01
aI01
aI01
aI01
aI01
aI01
aI01
aI01
aI00
aI01
aI01
aI01
aI00
aI01
aI00
aI01
aI01
aI00
aI01
aI01
aI01
aI01
aI01
aI01
aI01
aI01
aI01
aI01
aI01
aI00
aI01
aI00
aI00
aI01
aI01
aI01
aI01
aI01
aI01
aI01
aI01
aI01
aI01
aI01
aI01
aI01
aI00
aI01
aI01
aI01
aI01
aI01
aI01
aI01
aI01
aI01
aI01
aI01
aI01
aI01
aI01
aI01
aI01
aI01
aI01
aI01
aI01
aI01
aI01
aI01
aI01
aI01
aI01
aI01
aI01
aI00
aI01
aI01
aI00
aI01
aI01
aI01
aI00
aI01
aI01
aI01
aI01
aI01
aI00
aI01
aI01
aI01
aI00
aI01
aI01
aI01
aI01
aI00
aI01
aI01
aI01
aI01
aI01
aI01
aI01
aI01
aI01
aI01
aI00
aI00
aI01
aI00
aI01
aI01
aI01
aI01
aI01
aI01
aI00
aI01
aI01
aI01
aI01
aI01
aI01
aI01
aI01
aI01
aI01
aI01
aI01
aI01
aI00
aI01
aI01
aI01
aI01
aI01
aI01
aI01
aI01
aI01
aI01
aI01
aI01
aI01
aI01
aI00
aI00
aI01
aI01
aI01
aI01
aI01
aI01
aI01
aI00
aI01
aI01
aI01
aI00
aI01
aI01
aI00
aI01
aI01
aI01
aI01
aI01
aI01
aI01
aI01
aI01
aI01
aI01
aI01
aI01
aI01
aI01
aI01
aI00
aI01
aI01
aI01
aI01
aI00
aI01
aI01
aI01
aI01
aI01
aI01
aI01
aI01
aI01
aI01
aI01
aI00
aI01
aI01
aI01
aI01
aI01
aI01
aI01
aI01
aI01
aI01
aI01
aI01
aI01
aI01
aI01
aI01
aI01
aI01
aI01
aI01
aI00
aI01
aI01
aI01
aI01
aI00
aI00
aI01
aI01
aI01
aI01
aI01
aI01
aI01
aI01
aI01
aI00
aI01
aI01
aI01
aI01
aI01
aI01
aI01
aI01
aI00
aI00
aI01
aI01
aI01
aI01
aI01
aI01
aI01
aI01
aI01
aI01
aI01
aI01
aI01
aI01
aI01
aI01
aI01
aI01
aI00
aI01
aI01
aI01
aI01
aI01
aI01
aI01
aI01
aI01
aI01
aI01
aI00
aI01
aI01
aI00
aI01
aI01
aI01
aI01
aI01
aI01
aI01
aI01
aI01
aI01
aI01
aI01
aI00
aI01
aI01
aI01
aI01
aI01
aI01
aI00
aI01
aI00
aI01
aI00
aI01
aI01
aI01
aI01
aI01
aI01
aI01
aI01
aI01
aI01
aI00
aI00
aI01
aI01
aI01
aI01
aI01
aI01
aI01
aI01
aI01
aI01
aI01
aI01
aI01
aI00
aI01
aI01
aI01
aI00
aI01
aI01
aI01
aI01
aI01
aI01
aI01
aI01
aI01
aI01
aI01
aI01
aI01
aI01
aI01
aI01
aI01
aI00
aI01
aI01
aI01
aI00
aI01
aI01
aI01
aI01
aI01
aI01
aI01
aI00
aI01
aI01
aI01
aI01
aI01
aI01
aI01
aI01
aI01
aI01
aI00
aI01
aI01
aI01
aI01
aI01
aI01
aI00
aI01
aI01
aI00
aI01
aI01
aI01
aI01
aI01
aI01
aI01
aI01
aI01
aI01
aI01
aI01
aI01
aI01
aI01
aI01
aI00
aI01
aI01
aI01
aI01
aI01
aI01
aI01
aI00
aI01
aI01
aI01
aI01
aI01
aI01
aI01
aI01
aI01
aI00
aI00
aI01
aI01
aI01
aI01
aI01
aI01
aI01
aI00
aI01
aI01
aI01
aI01
aI01
aI01
aI01
aI01
aI01
aI01
aI01
aI01
aI01
aI00
aI01
aI01
aI01
aI01
aI01
aI01
aI01
aI01
aI01
aI01
aI01
aI01
aI01
aI01
aI01
aI01
aI01
aI01
aI01
aI01
aI00
aI01
aI01
aI01
aI01
aI01
aI01
aI01
aI01
aI01
aI01
aI01
aI01
aI01
aI01
aI01
aI00
aI01
aI01
aI01
aI01
aI01
aI01
aI01
aI01
aI01
aI01
aI01
aI01
aI00
aI01
aI01
aI01
aI01
aI01
aI01
aI01
aI01
aI01
aI01
aI01
aI01
aI01
aI01
aI01
aI00
aI01
aI01
aI01
aI01
aI01
aI01
aI01
aI01
aI01
aI01
aI01
aI01
aI01
aI00
aI01
aI01
aI01
aI01
aI01
aI01
aI01
aI01
aI01
aI01
aI01
aI01
aI01
aI01
aI01
aI01
aI01
aI01
aI01
aI01
aI01
aI00
aI01
aI01
aI01
aI01
aI00
aI01
aI01
aI01
aI00
aI00
aI01
aI01
aI01
aI01
aI01
aI00
aI01
aI01
aI01
aI01
aI01
aI01
aI01
aI01
aI01
aI01
aI01
aI01
aI01
aI01
aI01
aI01
aI01
aI01
aI00
aI00
aI01
aI01
aI01
aI01
aI01
aI00
aI01
aI00
aI01
aI01
aI01
aI01
aI01
aI01
aI01
aI01
aI01
aI01
aI01
aI01
aI01
aI01
aI01
aI01
aI01
aI01
aI00
aI01
aI01
aI01
aI01
aI01
aI01
aI01
aI00
aI01
aI01
aI01
aI01
aI01
aI00
aI00
aI01
aI01
aI01
aI01
aI01
aI01
aI01
aI01
aI01
aI00
aI01
aI00
aI01
aI01
aI01
aI01
aI01
aI01
aI01
aI01
aI01
aI01
aI01
aI01
aI01
aI01
aI01
aI01
aI01
aI01
aI01
aI01
aI01
aI01
aI01
aI00
aI01
aI01
aI01
aI01
aI00
aI01
aI01
aI01
aI01
aI01
aI01
aI01
aI00
aI01
aI01
aI00
aI01
aI01
aI01
aI01
aI01
aI01
aI01
aI01
aI01
aI01
aI01
aI01
aI01
aI00
aI01
aI01
aI01
aI01
aI01
aI01
aI01
aI01
aI01
aI01
aI01
aI01
aI01
aI01
aI01
aI01
aI01
aI01
aI01
aI01
aI01
aI01
aI01
aI01
aI01
aI01
aI01
aI01
aI01
aI01
aI01
aI01
aI01
aI01
aI01
aI01
aI01
aI01
aI01
aI01
aI01
aI01
aI01
aI01
aI01
aI01
aI01
aI01
aI01
aI00
aI01
aI01
aI01
aI01
aI01
aI01
aI01
aI01
aI01
aI01
aI00
aI01
aI01
aI01
aI01
aI01
aI01
aI01
aI01
aI01
aI01
aI01
aI01
aI01
aI00
aI00
aI01
aI00
aI01
aI01
aI01
aI01
aI01
aI00
aI01
aI01
aI01
aI01
aI00
aI01
aI01
aI00
aI01
aI01
aI01
aI01
aI01
aI00
aI01
aI01
aI01
aI01
aI01
aI01
aI01
aI01
aI01
aI01
aI01
aI01
aI01
aI01
aI01
aI01
aI01
aI01
aI01
aI01
aI01
aI01
aI01
aI01
aI01
aI01
aI01
aI00
aI01
aI01
aI01
aI01
aI01
aI01
aI01
aI01
aI01
aI01
aI01
aI01
aI01
aI01
aI01
aI01
aI01
aI01
aI01
aI01
aI01
aI00
aI01
aI01
aI01
aI01
aI01
aI01
aI01
aI01
aI01
aI01
aI00
aI01
aI01
aI01
aI01
aI01
aI01
aI00
aI00
aI01
aI01
aI00
aI01
aI00
aI01
aI01
aI01
aI01
aI01
aI00
aI01
aI01
aI00
aI01
aI01
aI00
aI01
aI01
aI01
aI01
aI00
aI01
aI01
aI01
aI01
aI01
aI01
aI01
aI01
aI01
aI01
aI01
aI00
aI01
aI01
aI01
aI01
aI01
aI01
aI01
aI01
aI01
aI01
aI01
aI01
aI01
aI01
aI01
aI01
aI01
aI01
aI01
aI01
aI01
aI01
aI01
aI01
aI01
aI01
aI01
aI01
aI01
aI01
aI01
aI00
aI01
aI01
aI01
aI01
aI00
aI01
aI01
aI01
aI01
aI01
aI01
aI01
aI01
aI01
aI00
aI01
aI01
aI01
aI00
aI01
aI01
aI01
aI01
aI01
aI01
aI01
aI01
aI01
aI01
aI01
aI01
aI01
aI01
aI00
aI01
aI01
aI01
aI01
aI01
aI01
aI01
aI01
aI01
aI01
aI01
aI01
aI01
aI01
aI01
aI01
aI01
aI01
aI01
aI00
aI01
aI01
aI01
aI00
aI01
aI01
aI01
aI01
aI01
aI01
aI01
aI01
asS'num_nodes'
p3
(lp4
I1
aI1
aI1
aI3
aI1
aI1
aI3
aI20
aI1
aI1
aI11
aI37
aI5
aI1
aI1
aI9
aI9
aI8
aI17
aI17
aI17
aI1
aI3
aI28
aI5
aI1
aI22
aI1
aI1
aI3
aI3
aI1
aI4
aI17
aI1
aI5
aI1
aI21
aI3
aI2
aI17
aI19
aI1
aI1
aI17
aI88
aI1
aI59
aI1
aI17
aI1
aI3
aI5
aI1
aI3
aI1
aI1
aI1
aI1
aI3
aI3
aI1
aI1
aI1
aI5
aI6
aI19
aI7
aI3
aI21
aI3
aI3
aI5
aI17
aI1
aI16
aI1
aI14
aI3
aI17
aI1
aI17
aI5
aI1
aI1
aI1
aI38
aI1
aI1
aI10
aI22
aI19
aI1
aI1
aI1
aI3
aI1
aI17
aI17
aI3
aI1
aI1
aI17
aI1
aI1
aI17
aI63
aI20
aI1
aI58
aI23
aI5
aI8
aI17
aI3
aI1
aI1
aI7
aI1
aI3
aI5
aI1
aI1
aI1
aI3
aI3
aI4
aI3
aI1
aI1
aI17
aI21
aI12
aI3
aI9
aI1
aI17
aI31
aI1
aI3
aI1
aI3
aI17
aI3
aI1
aI21
aI1
aI3
aI17
aI3
aI5
aI3
aI17
aI17
aI3
aI17
aI13
aI1
aI2
aI17
aI20
aI1
aI3
aI50
aI17
aI3
aI17
aI1
aI1
aI1
aI1
aI17
aI1
aI70
aI17
aI17
aI17
aI20
aI16
aI17
aI17
aI1
aI1
aI4
aI1
aI16
aI1
aI5
aI1
aI3
aI19
aI3
aI1
aI3
aI20
aI20
aI1
aI4
aI3
aI17
aI1
aI5
aI3
aI1
aI1
aI3
aI1
aI17
aI17
aI1
aI1
aI17
aI17
aI1
aI1
aI22
aI5
aI33
aI9
aI67
aI1
aI52
aI40
aI7
aI18
aI5
aI1
aI17
aI5
aI1
aI45
aI1
aI17
aI3
aI17
aI1
aI1
aI3
aI17
aI1
aI1
aI1
aI17
aI17
aI7
aI1
aI10
aI3
aI1
aI3
aI17
aI3
aI9
aI1
aI1
aI1
aI9
aI14
aI1
aI2
aI5
aI1
aI7
aI21
aI5
aI25
aI1
aI15
aI5
aI1
aI1
aI17
aI5
aI3
aI3
aI1
aI1
aI7
aI3
aI17
aI17
aI1
aI3
aI1
aI20
aI1
aI1
aI3
aI5
aI3
aI3
aI1
aI1
aI4
aI1
aI1
aI13
aI5
aI20
aI8
aI3
aI1
aI1
aI1
aI3
aI18
aI17
aI19
aI54
aI5
aI1
aI3
aI20
aI1
aI1
aI1
aI3
aI1
aI25
aI17
aI21
aI1
aI1
aI3
aI3
aI1
aI5
aI31
aI1
aI21
aI19
aI21
aI3
aI1
aI17
aI11
aI1
aI1
aI1
aI3
aI39
aI8
aI1
aI1
aI1
aI1
aI19
aI17
aI17
aI17
aI17
aI11
aI3
aI1
aI5
aI29
aI17
aI3
aI1
aI1
aI21
aI3
aI3
aI24
aI4
aI11
aI3
aI1
aI7
aI9
aI1
aI7
aI1
aI25
aI17
aI19
aI17
aI17
aI6
aI1
aI5
aI1
aI5
aI19
aI3
aI17
aI71
aI3
aI6
aI1
aI3
aI17
aI1
aI3
aI8
aI1
aI3
aI6
aI4
aI1
aI1
aI3
aI1
aI1
aI29
aI9
aI38
aI3
aI1
aI20
aI3
aI16
aI35
aI3
aI3
aI1
aI17
aI3
aI3
aI8
aI17
aI1
aI3
aI22
aI1
aI1
aI10
aI1
aI1
aI3
aI1
aI1
aI1
aI11
aI7
aI1
aI1
aI19
aI1
aI1
aI1
aI20
aI80
aI1
aI7
aI17
aI1
aI17
aI1
aI3
aI1
aI18
aI1
aI3
aI16
aI1
aI1
aI8
aI3
aI3
aI4
aI1
aI1
aI1
aI5
aI1
aI1
aI1
aI1
aI17
aI17
aI14
aI5
aI1
aI1
aI1
aI1
aI23
aI7
aI3
aI3
aI1
aI5
aI17
aI4
aI9
aI3
aI4
aI1
aI1
aI1
aI7
aI2
aI17
aI6
aI17
aI6
aI1
aI40
aI3
aI3
aI1
aI5
aI1
aI1
aI29
aI5
aI1
aI9
aI3
aI17
aI3
aI6
aI1
aI17
aI38
aI31
aI1
aI3
aI17
aI1
aI1
aI3
aI63
aI1
aI18
aI1
aI5
aI19
aI1
aI3
aI17
aI55
aI17
aI98
aI5
aI40
aI3
aI1
aI3
aI1
aI8
aI1
aI22
aI5
aI5
aI1
aI39
aI17
aI6
aI1
aI1
aI4
aI1
aI1
aI24
aI6
aI1
aI1
aI5
aI26
aI3
aI1
aI1
aI11
aI1
aI5
aI21
aI1
aI1
aI1
aI6
aI1
aI1
aI3
aI6
aI9
aI17
aI1
aI1
aI17
aI1
aI4
aI3
aI17
aI5
aI1
aI1
aI29
aI1
aI17
aI3
aI1
aI1
aI17
aI34
aI1
aI3
aI4
aI17
aI1
aI9
aI5
aI17
aI1
aI16
aI19
aI1
aI32
aI1
aI17
aI17
aI3
aI17
aI3
aI6
aI7
aI3
aI1
aI5
aI17
aI1
aI4
aI3
aI5
aI3
aI1
aI3
aI4
aI3
aI3
aI21
aI11
aI1
aI17
aI6
aI3
aI17
aI1
aI3
aI27
aI41
aI3
aI1
aI4
aI18
aI3
aI5
aI1
aI17
aI31
aI5
aI1
aI1
aI1
aI6
aI63
aI9
aI17
aI1
aI1
aI1
aI17
aI32
aI19
aI17
aI23
aI68
aI1
aI1
aI11
aI1
aI7
aI3
aI3
aI3
aI3
aI1
aI3
aI23
aI19
aI3
aI17
aI3
aI34
aI3
aI28
aI17
aI25
aI4
aI17
aI8
aI1
aI19
aI4
aI1
aI1
aI1
aI1
aI17
aI1
aI3
aI1
aI3
aI19
aI7
aI1
aI1
aI3
aI1
aI11
aI24
aI11
aI16
aI1
aI3
aI3
aI1
aI22
aI1
aI17
aI1
aI55
aI19
aI1
aI17
aI17
aI5
aI1
aI3
aI4
aI6
aI33
aI36
aI1
aI5
aI17
aI1
aI1
aI36
aI24
aI1
aI3
aI50
aI1
aI17
aI17
aI5
aI17
aI20
aI62
aI1
aI1
aI3
aI9
aI1
aI1
aI3
aI18
aI3
aI1
aI3
aI27
aI3
aI1
aI17
aI3
aI1
aI3
aI3
aI5
aI1
aI35
aI1
aI10
aI41
aI1
aI17
aI1
aI1
aI17
aI3
aI5
aI3
aI5
aI3
aI1
aI1
aI1
aI1
aI1
aI1
aI1
aI17
aI1
aI1
aI42
aI1
aI1
aI3
aI17
aI3
aI17
aI1
aI17
aI1
aI5
aI6
aI1
aI20
aI1
aI50
aI4
aI1
aI1
aI17
aI17
aI3
aI3
aI25
aI1
aI1
aI1
aI1
aI1
aI7
aI1
aI1
aI1
aI11
aI17
aI18
aI5
aI3
aI17
aI6
aI3
aI2
aI1
aI1
aI23
aI1
aI5
aI1
aI9
aI11
aI31
aI36
aI5
aI1
aI1
aI5
aI17
aI5
aI1
aI1
aI17
aI1
aI19
aI21
aI1
aI26
aI19
aI1
aI17
aI1
aI3
aI1
aI17
aI36
aI1
aI1
aI5
aI3
aI1
aI17
aI11
aI3
aI51
aI1
aI3
aI1
aI17
aI17
aI3
aI93
aI14
aI1
aI1
aI5
aI5
aI1
aI3
aI1
aI17
aI1
aI1
aI16
aI3
aI6
aI1
aI17
aI17
aI3
aI3
aI1
aI1
aI1
aI18
aI8
aI17
aI7
aI1
aI7
aI20
aI3
aI3
aI6
aI1
aI1
aI17
aI17
aI1
aI1
aI19
aI3
aI9
aI1
aI10
aI17
aI7
aI1
aI1
aI1
aI1
aI1
aI20
aI1
aI5
aI24
aI11
aI3
aI5
aI17
aI1
aI1
aI1
aI1
aI1
aI1
aI3
aI3
aI1
aI9
aI3
aI23
aI3
aI1
aI1
aI5
aI3
aI9
aI17
aI5
aI17
aI3
aI1
aI5
aI1
aI3
aI23
aI12
aI1
aI1
aI1
aI1
aI1
aI4
aI5
aI1
aI17
aI84
aI6
aI1
aI1
aI1
aI1
aI3
aI6
aI3
aI4
aI1
aI1
aI59
aI1
aI3
aI1
aI1
aI3
aI15
aI3
aI51
aI1
aI5
aI1
aI3
aI9
aI1
aI1
aI17
aI1
aI1
aI1
aI3
aI4
aI1
aI3
aI1
aI19
aI5
aI1
aI1
aI1
aI59
aI1
aI3
aI21
aI1
aI1
aI4
aI1
aI3
aI1
aI1
aI1
aI38
aI5
aI1
aI1
aI1
aI1
aI5
aI3
aI1
aI11
aI17
aI33
aI5
aI20
aI1
aI17
aI5
aI20
aI1
aI17
aI17
aI1
aI1
aI5
aI5
aI1
aI17
aI1
aI44
aI1
aI1
aI7
aI100
aI5
aI1
aI22
aI5
aI3
aI1
aI1
aI6
aI7
aI10
aI3
aI21
aI17
aI17
aI1
aI8
aI3
aI1
aI21
aI17
aI1
aI45
aI1
aI17
aI1
aI3
aI1
aI49
aI5
aI1
aI1
aI1
aI5
aI1
aI1
aI1
aI3
aI1
aI3
aI3
aI17
aI1
aI1
aI5
aI1
aI3
aI6
aI1
aI17
aI13
aI1
aI1
aI3
aI1
aI17
aI17
aI1
aI55
aI4
aI4
aI30
aI42
aI1
aI2
aI1
aI17
aI1
aI17
aI1
aI3
aI3
aI12
aI1
aI11
aI1
aI1
aI7
aI3
aI3
aI9
aI4
aI21
aI5
aI1
aI1
aI49
aI3
aI1
aI1
aI1
aI98
aI31
aI1
aI1
aI3
aI3
aI17
aI1
aI19
aI5
aI3
aI1
aI65
aI10
aI17
aI64
aI3
aI17
aI4
aI6
aI9
aI52
aI1
aI5
aI3
aI1
aI1
aI1
aI1
aI23
aI1
aI17
aI1
aI1
aI20
aI3
aI1
aI72
aI32
aI3
aI3
aI1
aI1
aI19
aI3
aI80
aI11
aI48
aI1
aI16
aI35
aI1
aI32
aI3
aI17
aI1
aI53
aI1
aI7
aI3
aI1
aI1
aI8
aI1
aI1
aI35
aI3
aI1
aI3
aI3
aI3
aI1
aI1
aI9
aI3
aI3
aI1
aI1
aI1
aI1
aI19
aI17
aI3
aI3
aI21
aI8
aI43
aI42
aI1
aI3
aI1
aI1
aI17
aI15
aI3
aI1
aI1
aI3
aI5
aI3
aI5
aI3
aI18
aI47
aI23
aI5
aI17
aI17
aI7
aI17
aI1
aI1
aI1
aI3
aI3
aI17
aI1
aI1
aI4
aI5
aI17
aI17
aI12
aI17
aI4
aI3
aI5
aI22
aI1
aI17
aI17
aI1
aI3
aI8
aI5
aI17
aI1
aI6
aI1
aI3
aI5
aI1
aI35
aI9
aI6
aI19
aI35
aI6
aI1
aI1
aI39
aI52
aI29
aI7
aI19
aI1
aI1
aI31
aI5
aI3
aI3
aI1
aI3
aI1
aI2
aI5
aI3
aI4
aI1
aI1
aI1
aI3
aI33
aI21
aI25
aI3
aI6
aI1
aI29
aI17
aI1
aI12
aI1
aI1
aI1
aI14
aI33
aI1
aI1
aI53
aI17
aI1
aI1
aI5
aI3
aI1
aI11
aI103
aI17
aI1
aI1
aI17
aI17
aI17
aI3
aI12
aI5
aI1
aI1
aI17
aI3
aI1
aI17
aI15
aI3
aI17
aI5
aI20
aI19
aI1
aI17
aI1
aI4
aI1
aI1
aI9
aI1
aI7
aI21
aI4
aI19
aI45
aI17
aI1
aI9
aI3
aI3
aI16
aI1
aI49
aI3
aI1
aI29
aI1
aI3
aI3
aI1
aI1
aI3
aI1
aI1
aI25
aI22
aI3
aI4
aI3
aI1
aI55
aI3
aI34
aI7
aI1
aI3
aI1
aI17
aI3
aI1
aI1
aI3
aI17
aI3
aI3
aI3
aI1
aI1
aI1
aI1
aI1
aI3
aI17
aI10
aI1
aI1
aI17
aI1
aI5
aI3
aI1
aI12
aI3
aI1
aI5
aI1
aI3
aI1
aI5
aI1
aI1
aI17
aI4
aI62
aI3
aI9
aI3
aI1
aI20
aI1
aI1
aI1
aI1
aI1
aI3
aI1
aI1
aI1
aI1
aI1
aI1
aI17
aI1
aI5
aI1
aI17
aI1
aI5
aI1
aI1
aI37
aI1
aI1
aI3
asS'times'
p5
(lp6
F16.260297060012817
aF17.402884006500244
aF17.128944873809814
aF25.062660932540894
aF19.4274959564209
aF21.975502014160156
aF27.210094928741455
aF78.80356097221375
aF19.45342493057251
aF16.232078790664673
aF56.635653018951416
aF145.6663739681244
aF42.06522297859192
aF17.308666944503784
aF17.242799997329712
aF72.8509030342102
aF44.42854905128479
aF43.83522295951843
aF42.16392803192139
aF36.29028511047363
aF43.474231004714966
aF20.730448961257935
aF26.810590028762817
aF93.33031487464905
aF51.83137607574463
aF28.847867965698242
aF68.31658601760864
aF21.093360900878906
aF29.030423879623413
aF27.027902126312256
aF29.21239686012268
aF33.38394093513489
aF33.09979009628296
aF36.432717084884644
aF17.4312961101532
aF30.317580938339233
aF19.86114811897278
aF69.56735110282898
aF25.48022198677063
aF22.035387992858887
aF40.768561124801636
aF84.50968313217163
aF16.843708992004395
aF16.0568630695343
aF42.03615212440491
aF301.4512598514557
aF17.740617036819458
aF157.26621913909912
aF15.465065002441406
aF37.33950090408325
aF17.114058017730713
aF22.76809287071228
aF31.56342911720276
aF16.184452056884766
aF26.060166120529175
aF19.83425784111023
aF18.216974020004272
aF18.1440269947052
aF17.125175952911377
aF31.664922952651978
aF25.210301160812378
aF18.366037130355835
aF15.700809001922607
aF15.856644868850708
aF41.87639594078064
aF56.44084405899048
aF63.89904189109802
aF38.195456981658936
aF27.620649099349976
aF78.57850289344788
aF27.1129150390625
aF24.353471040725708
aF30.950019121170044
aF36.56463003158569
aF24.773699045181274
aF48.98223400115967
aF16.003756999969482
aF55.82940196990967
aF26.957803964614868
aF37.015493869781494
aF15.948837041854858
aF38.55179476737976
aF32.829468965530396
aF18.231486082077026
aF19.82171893119812
aF18.47910189628601
aF136.42395901679993
aF16.283933877944946
aF15.353852033615112
aF51.83139395713806
aF92.52435803413391
aF59.4004921913147
aF17.295487880706787
aF21.086253881454468
aF17.209022998809814
aF22.973852157592773
aF19.010751008987427
aF40.97919797897339
aF49.2457320690155
aF25.760972023010254
aF17.629605054855347
aF16.024136066436768
aF41.169795989990234
aF17.052061080932617
aF14.644554853439331
aF38.39454221725464
aF169.46018886566162
aF70.97987699508667
aF21.339120864868164
aF174.8577160835266
aF78.07073497772217
aF36.87504696846008
aF44.13912105560303
aF44.65855693817139
aF26.847124099731445
aF17.372883796691895
aF19.742339849472046
aF38.4832489490509
aF17.80017614364624
aF23.375786066055298
aF36.03659009933472
aF16.0661301612854
aF17.84959387779236
aF17.023879051208496
aF23.427043914794922
aF27.93741798400879
aF29.077517986297607
aF27.116310834884644
aF16.320063829421997
aF17.21961212158203
aF43.411134004592896
aF64.39680504798889
aF51.60976505279541
aF41.45606184005737
aF46.01639413833618
aF16.67719793319702
aF43.38906383514404
aF84.19215607643127
aF18.612497091293335
aF26.86766219139099
aF21.173115968704224
aF25.196337938308716
aF47.88158106803894
aF24.146087884902954
aF17.75844407081604
aF75.62772703170776
aF16.732372999191284
aF28.390871047973633
aF42.85137581825256
aF47.667118072509766
aF37.190997838974
aF24.907206058502197
aF42.538848876953125
aF41.297959089279175
aF25.33077597618103
aF55.59266400337219
aF63.07078194618225
aF18.137320041656494
aF25.271612882614136
aF37.20287489891052
aF58.789700984954834
aF20.09836483001709
aF33.69557499885559
aF148.21300292015076
aF58.73680305480957
aF26.286271810531616
aF35.024397134780884
aF16.137387990951538
aF20.35042691230774
aF18.843106031417847
aF40.7668240070343
aF38.92430400848389
aF17.83453893661499
aF187.21441197395325
aF39.47017002105713
aF39.31480598449707
aF38.55959987640381
aF69.75447678565979
aF66.09550786018372
aF40.78984212875366
aF45.92144203186035
aF22.528214931488037
aF18.512855052947998
aF29.73326301574707
aF18.61562705039978
aF71.22515988349915
aF18.377192974090576
aF39.56222200393677
aF17.07129216194153
aF26.30958390235901
aF61.89090299606323
aF24.480675220489502
aF14.789990901947021
aF24.5655620098114
aF66.16439580917358
aF99.24117398262024
aF18.06392192840576
aF29.844661951065063
aF27.410009145736694
aF79.9777901172638
aF17.4127459526062
aF40.89584994316101
aF27.016018867492676
aF17.158457040786743
aF20.350882053375244
aF25.1076979637146
aF15.851024866104126
aF37.6047101020813
aF38.521121978759766
aF17.28594994544983
aF17.808188915252686
aF47.34015488624573
aF103.87803888320923
aF17.200642824172974
aF17.046106100082397
aF115.4129638671875
aF31.766286849975586
aF85.96231603622437
aF44.03764986991882
aF179.65821313858032
aF20.893094062805176
aF150.72987699508667
aF124.32962393760681
aF42.39504790306091
aF61.82310700416565
aF32.304659843444824
aF16.577024936676025
aF53.13873600959778
aF37.88683080673218
aF17.293395042419434
aF127.85630822181702
aF19.136208057403564
aF38.213305950164795
aF30.844123125076294
aF36.70385503768921
aF17.32815909385681
aF16.323852062225342
aF24.401920080184937
aF41.71584916114807
aF15.154281854629517
aF21.262951850891113
aF16.923535108566284
aF38.1655330657959
aF37.362370014190674
aF44.20481300354004
aF17.514572143554688
aF55.50534009933472
aF25.390705823898315
aF19.38602113723755
aF24.830111026763916
aF47.158823013305664
aF27.095540046691895
aF40.27315592765808
aF21.1859929561615
aF19.527825117111206
aF15.676527976989746
aF39.99763894081116
aF53.76821994781494
aF37.949405908584595
aF24.788765907287598
aF37.62125611305237
aF15.537713050842285
aF52.0526340007782
aF60.62331795692444
aF37.047611951828
aF84.3277440071106
aF17.558270931243896
aF55.650912046432495
aF35.07132887840271
aF23.20517110824585
aF18.291471004486084
aF43.903242111206055
aF37.2846200466156
aF23.32967495918274
aF36.73761200904846
aF16.204272031784058
aF15.913158893585205
aF49.76696991920471
aF27.08458685874939
aF37.101227045059204
aF35.82920813560486
aF16.364301919937134
aF24.731495141983032
aF20.298495054244995
aF60.93510103225708
aF20.197072982788086
aF17.18733811378479
aF23.52096700668335
aF33.24070906639099
aF26.055583000183105
aF25.943459033966064
aF16.805962085723877
aF20.261456966400146
aF32.349879026412964
aF17.48665714263916
aF17.99028205871582
aF56.62431788444519
aF44.2137770652771
aF62.757932901382446
aF48.03760099411011
aF26.36927890777588
aF17.457987070083618
aF18.31687903404236
aF20.170106887817383
aF28.164042949676514
aF46.768357038497925
aF51.71196389198303
aF61.46437907218933
aF139.1476800441742
aF34.516692876815796
aF19.12761116027832
aF30.341473817825317
aF75.0916109085083
aF19.210137128829956
aF17.163365125656128
aF17.299463987350464
aF24.64689588546753
aF16.789241075515747
aF92.88523411750793
aF36.15700101852417
aF68.31486296653748
aF17.657624006271362
aF16.28698492050171
aF27.581072092056274
aF24.788000106811523
aF17.666122913360596
aF40.117347955703735
aF116.58965706825256
aF16.691852807998657
aF58.21317100524902
aF66.22596001625061
aF86.6421639919281
aF26.786223888397217
aF17.73669195175171
aF40.9559588432312
aF51.67023301124573
aF17.945214986801147
aF16.40209197998047
aF19.907711029052734
aF24.954637050628662
aF112.50732207298279
aF46.48089909553528
aF18.213755130767822
aF19.202931880950928
aF16.780670881271362
aF18.988120079040527
aF70.15525794029236
aF44.36201286315918
aF41.8502140045166
aF38.09261202812195
aF43.763407945632935
aF59.68394994735718
aF24.599008083343506
aF40.15513205528259
aF29.891386032104492
aF111.24855780601501
aF38.75759410858154
aF25.812040090560913
aF17.799463987350464
aF16.627427101135254
aF67.21647906303406
aF27.13472890853882
aF27.669053077697754
aF87.36733388900757
aF28.36319398880005
aF47.00077295303345
aF33.71388483047485
aF15.784627914428711
aF37.946985960006714
aF44.59446907043457
aF16.795243978500366
aF43.28457999229431
aF16.866202116012573
aF76.70954298973083
aF42.96289014816284
aF64.03010201454163
aF75.99567985534668
aF38.66636610031128
aF31.249933004379272
aF16.509866952896118
aF43.509697914123535
aF30.820842027664185
aF41.67542815208435
aF62.23915505409241
aF26.1010479927063
aF42.40399098396301
aF170.93404698371887
aF36.686022996902466
aF38.79335284233093
aF15.651602983474731
aF26.6808500289917
aF39.72132205963135
aF24.025202989578247
aF25.012460947036743
aF44.17104506492615
aF37.83408308029175
aF27.45289897918701
aF39.79341387748718
aF25.67555809020996
aF32.21477293968201
aF19.70154094696045
aF28.750303030014038
aF20.386250019073486
aF18.130417108535767
aF88.41021299362183
aF75.01506805419922
aF109.29169201850891
aF30.146213054656982
aF19.544830083847046
aF62.9318630695343
aF22.507417917251587
aF44.58108186721802
aF105.0572600364685
aF27.30269503593445
aF27.339471101760864
aF17.651752948760986
aF37.3760621547699
aF24.718907833099365
aF24.76017999649048
aF38.232933044433594
aF41.8108069896698
aF16.9265239238739
aF22.606404066085815
aF75.32662320137024
aF17.559809923171997
aF19.57250189781189
aF56.27496385574341
aF20.267611026763916
aF17.401929140090942
aF26.04278802871704
aF17.96501588821411
aF19.535062789916992
aF19.016634941101074
aF57.46285891532898
aF46.42037487030029
aF16.186962127685547
aF17.082306146621704
aF63.00619888305664
aF18.27464509010315
aF15.582975149154663
aF15.64388108253479
aF63.35884189605713
aF301.86793398857117
aF20.33385682106018
aF57.70984601974487
aF38.167742013931274
aF17.771777868270874
aF43.593677043914795
aF21.584429025650024
aF27.123464107513428
aF18.052562952041626
aF86.79286003112793
aF22.793477058410645
aF30.423954010009766
aF50.35268306732178
aF17.529994010925293
aF20.89972186088562
aF43.13975811004639
aF23.775799036026
aF26.903904914855957
aF25.13048791885376
aF17.242927074432373
aF16.71795105934143
aF15.705733060836792
aF36.53309392929077
aF21.631359100341797
aF18.9403657913208
aF17.852210998535156
aF16.92825412750244
aF37.80480408668518
aF37.903724193573
aF51.11004900932312
aF37.5832040309906
aF17.953296184539795
aF17.63626503944397
aF17.848900079727173
aF17.13966703414917
aF79.60839486122131
aF48.784045934677124
aF29.88836693763733
aF26.438879013061523
aF17.91152000427246
aF36.517582178115845
aF42.87273812294006
aF29.154717922210693
aF50.593992948532104
aF23.494436025619507
aF25.606982946395874
aF15.669591903686523
aF16.49254083633423
aF16.636759042739868
aF38.15197682380676
aF27.22151517868042
aF36.60098695755005
aF36.0356810092926
aF39.7050039768219
aF38.67309880256653
aF16.953449010849
aF122.51867413520813
aF26.678810834884644
aF28.571383953094482
aF18.25734806060791
aF37.548238039016724
aF16.21638798713684
aF21.63948702812195
aF141.15025186538696
aF36.90829086303711
aF50.025644063949585
aF46.048779010772705
aF25.41779398918152
aF39.975038051605225
aF25.667034149169922
aF33.55467915534973
aF17.902141094207764
aF43.925891160964966
aF139.11170387268066
aF60.82655096054077
aF17.958048105239868
aF25.09179186820984
aF41.84255886077881
aF21.505048036575317
aF17.327550172805786
aF27.387303829193115
aF166.61096215248108
aF37.93036198616028
aF55.598973989486694
aF17.756349086761475
aF29.420547008514404
aF70.33202719688416
aF17.334126949310303
aF27.142314195632935
aF41.07326602935791
aF151.38636183738708
aF44.7254798412323
aF304.24553513526917
aF30.5992169380188
aF121.61773681640625
aF26.08875012397766
aF18.980415105819702
aF33.27850413322449
aF17.543215036392212
aF44.13191795349121
aF17.018987894058228
aF81.11166405677795
aF34.625510931015015
aF64.56016516685486
aF16.31182312965393
aF130.51432013511658
aF44.9209668636322
aF36.55971717834473
aF17.50124192237854
aF16.53908395767212
aF28.695557117462158
aF16.62232494354248
aF16.96126079559326
aF75.93606185913086
aF35.91229200363159
aF16.130887985229492
aF17.771568059921265
aF42.846047163009644
aF101.00512886047363
aF32.679813861846924
aF21.837775945663452
aF18.915966033935547
aF51.64799690246582
aF36.767863035202026
aF38.80825996398926
aF81.06356191635132
aF30.928451776504517
aF18.769901990890503
aF17.650707006454468
aF47.19120788574219
aF20.669056177139282
aF15.786231994628906
aF21.44372296333313
aF46.89541506767273
aF46.678343057632446
aF41.73389506340027
aF19.648504972457886
aF17.067561864852905
aF38.67763686180115
aF16.219081163406372
aF32.03766393661499
aF26.273397207260132
aF36.30900287628174
aF47.51423001289368
aF17.082607984542847
aF18.629276990890503
aF100.73657584190369
aF19.081221103668213
aF40.441855907440186
aF25.399286031723022
aF17.715543031692505
aF20.59653902053833
aF39.68103909492493
aF115.3111298084259
aF21.33661699295044
aF28.370485067367554
aF33.98207998275757
aF42.24533796310425
aF17.36289620399475
aF46.393101930618286
aF45.16189122200012
aF61.89989185333252
aF15.84327483177185
aF78.31853008270264
aF61.56171703338623
aF23.548763036727905
aF95.5732958316803
aF16.623033046722412
aF36.21247911453247
aF36.56394290924072
aF24.79905104637146
aF39.85955619812012
aF51.11266303062439
aF36.58696794509888
aF71.09740495681763
aF27.4870388507843
aF15.652829885482788
aF39.88385510444641
aF38.25312399864197
aF17.680238008499146
aF25.070410013198853
aF28.441187858581543
aF56.47456097602844
aF26.621788024902344
aF23.294512033462524
aF21.56192708015442
aF27.7809841632843
aF30.755629062652588
aF27.09079122543335
aF84.6828088760376
aF61.253137826919556
aF16.06147003173828
aF38.54157090187073
aF34.75635385513306
aF25.970580101013184
aF56.83705806732178
aF18.762902975082397
aF23.524761199951172
aF136.33342599868774
aF115.9632019996643
aF25.05025601387024
aF32.43360495567322
aF27.60739493370056
aF57.300467014312744
aF24.93449091911316
aF31.63977289199829
aF18.801602125167847
aF42.34710192680359
aF62.348947048187256
aF31.889580011367798
aF19.259371995925903
aF20.660940885543823
aF21.81915307044983
aF40.77167320251465
aF175.58938002586365
aF47.644001960754395
aF37.614253997802734
aF18.102146863937378
aF16.12981390953064
aF17.00723695755005
aF36.77762007713318
aF84.89513301849365
aF60.12450408935547
aF37.95944380760193
aF80.32090210914612
aF189.9811191558838
aF17.747778177261353
aF16.609453916549683
aF59.46540307998657
aF16.575749158859253
aF43.871394872665405
aF23.369806051254272
aF26.381829023361206
aF27.000239849090576
aF23.61780595779419
aF18.89180588722229
aF25.661382913589478
aF79.92393898963928
aF92.81372690200806
aF30.45332098007202
aF40.475714921951294
aF38.871330976486206
aF89.95207715034485
aF23.441204071044922
aF108.70023894309998
aF39.95785999298096
aF110.24931311607361
aF30.139904022216797
aF49.082303047180176
aF44.011516094207764
aF15.862269878387451
aF60.63143801689148
aF28.030848026275635
aF17.446667194366455
aF18.85964798927307
aF15.955666065216064
aF16.64018702507019
aF39.89657020568848
aF18.208638906478882
aF27.025291919708252
aF17.69872283935547
aF30.094324827194214
aF69.65335178375244
aF41.639209032058716
aF14.94657301902771
aF17.031872987747192
aF25.219470024108887
aF36.5433030128479
aF56.12422800064087
aF93.13309288024902
aF49.30524802207947
aF56.21365404129028
aF15.73838186264038
aF23.41094708442688
aF29.875694036483765
aF16.26997399330139
aF72.242516040802
aF16.0187771320343
aF40.20197296142578
aF15.98556113243103
aF161.850191116333
aF67.97825217247009
aF35.88294792175293
aF40.59335994720459
aF42.98351192474365
aF35.089853048324585
aF18.28795099258423
aF27.17730689048767
aF29.745427131652832
aF38.81682205200195
aF82.05171298980713
aF98.584233045578
aF16.77074408531189
aF42.17294502258301
aF38.00507998466492
aF18.095265865325928
aF17.67453408241272
aF98.80668091773987
aF88.81103491783142
aF19.631957054138184
aF29.18011713027954
aF146.2668809890747
aF18.8138210773468
aF41.461862087249756
aF38.542449951171875
aF32.12737703323364
aF104.6841368675232
aF68.74435710906982
aF162.41799592971802
aF19.3888418674469
aF24.832634925842285
aF24.867228031158447
aF40.39438986778259
aF19.166332006454468
aF19.034512042999268
aF27.218275785446167
aF62.7701849937439
aF27.47098207473755
aF37.29487109184265
aF27.889671087265015
aF92.44808602333069
aF21.338003873825073
aF17.974903106689453
aF44.249531984329224
aF23.724901914596558
aF21.398078203201294
aF33.225008964538574
aF31.86194109916687
aF32.918354988098145
aF17.628311157226562
aF90.29731297492981
aF17.157193899154663
aF56.36257791519165
aF112.13993000984192
aF19.97057008743286
aF35.65393400192261
aF17.507585048675537
aF19.37814211845398
aF40.86967086791992
aF48.82044219970703
aF31.086862087249756
aF26.030865907669067
aF36.68600106239319
aF39.28884410858154
aF20.786802053451538
aF39.4531729221344
aF19.171349048614502
aF19.569668769836426
aF33.8053560256958
aF17.146238088607788
aF19.43143105506897
aF40.833077907562256
aF15.444350957870483
aF21.148607969284058
aF125.63304400444031
aF20.226879119873047
aF19.69453001022339
aF27.764862060546875
aF36.93617010116577
aF27.32481813430786
aF35.96136713027954
aF22.190575122833252
aF41.5771849155426
aF17.07391905784607
aF33.12152886390686
aF40.529585123062134
aF17.2776939868927
aF64.5750880241394
aF15.995990991592407
aF136.25968289375305
aF31.10458278656006
aF16.618276119232178
aF16.343272924423218
aF39.184566020965576
aF38.64206099510193
aF25.922539949417114
aF24.52064800262451
aF84.69996380805969
aF20.054544925689697
aF21.774625062942505
aF15.526655912399292
aF16.58094096183777
aF20.541194915771484
aF44.862908124923706
aF23.33067512512207
aF18.93198299407959
aF19.187680959701538
aF61.33060002326965
aF37.36245393753052
aF51.42370796203613
aF32.822800159454346
aF27.470767974853516
aF43.694278955459595
aF35.611461877822876
aF25.61866593360901
aF24.904267072677612
aF15.740149021148682
aF15.688843011856079
aF80.36942791938782
aF17.638273000717163
aF36.522891998291016
aF17.270771980285645
aF57.68786096572876
aF52.0881609916687
aF95.47118616104126
aF108.72550988197327
aF38.63512897491455
aF17.693734169006348
aF19.772523880004883
aF37.062620878219604
aF46.038516998291016
aF38.555121183395386
aF19.677642107009888
aF19.63704204559326
aF36.42900514602661
aF18.71778392791748
aF76.52775597572327
aF72.03544187545776
aF17.199049949645996
aF82.95845484733582
aF60.34445381164551
aF17.346149921417236
aF45.47121620178223
aF19.169227123260498
aF27.194838047027588
aF22.35801100730896
aF52.27125811576843
aF97.1028938293457
aF16.864634037017822
aF15.83221697807312
aF33.91685509681702
aF27.17996621131897
aF17.091518878936768
aF40.32203507423401
aF45.1784610748291
aF31.442166805267334
aF124.91930103302002
aF16.36003017425537
aF23.154603004455566
aF17.212913036346436
aF41.511800050735474
aF73.44909405708313
aF24.751342058181763
aF301.1672477722168
aF63.03866791725159
aF19.529897928237915
aF27.41523003578186
aF33.833948850631714
aF35.69920802116394
aF20.23750591278076
aF27.521388053894043
aF17.33783721923828
aF68.86569786071777
aF17.08306097984314
aF18.164777994155884
aF65.90457797050476
aF26.97192096710205
aF46.486557960510254
aF16.62461805343628
aF53.96049499511719
aF38.91913318634033
aF26.81331491470337
aF24.822672128677368
aF17.453540086746216
aF16.07020115852356
aF17.81106209754944
aF67.17644381523132
aF45.083614110946655
aF35.80159091949463
aF40.5202579498291
aF19.494620084762573
aF71.50823593139648
aF55.29926013946533
aF25.346713066101074
aF25.929851055145264
aF38.13333201408386
aF15.256290197372437
aF17.519025087356567
aF38.87615990638733
aF40.76682710647583
aF19.099375009536743
aF18.61833095550537
aF103.913409948349
aF27.44351816177368
aF65.94409584999084
aF19.003313779830933
aF47.98681998252869
aF35.74587917327881
aF37.27079701423645
aF50.01903200149536
aF16.499871969223022
aF17.154128074645996
aF20.363315105438232
aF18.13583493232727
aF73.79535293579102
aF38.21354699134827
aF54.777631998062134
aF81.48838591575623
aF59.736231088638306
aF35.848609924316406
aF40.34873294830322
aF41.779512882232666
aF19.746521949768066
aF16.957785844802856
aF16.072429180145264
aF17.797903060913086
aF16.072302103042603
aF19.199300050735474
aF24.515655994415283
aF33.45258092880249
aF16.195940017700195
aF53.99310803413391
aF24.623583793640137
aF93.81845188140869
aF28.229753017425537
aF18.917832136154175
aF24.50980496406555
aF30.254991054534912
aF34.614476919174194
aF44.548048973083496
aF72.85994005203247
aF33.5566840171814
aF33.85861301422119
aF24.664729833602905
aF18.227696895599365
aF36.877734899520874
aF19.4129421710968
aF29.10762095451355
aF99.51578211784363
aF51.927648067474365
aF26.77089500427246
aF15.978620052337646
aF18.88159990310669
aF15.780967950820923
aF27.110448122024536
aF28.440207958221436
aF35.47805094718933
aF17.76780104637146
aF41.42036509513855
aF252.40434885025024
aF33.5171000957489
aF21.06102991104126
aF17.94419288635254
aF16.47362494468689
aF18.33924889564514
aF23.504882097244263
aF37.552469968795776
aF21.455294132232666
aF29.967754125595093
aF14.662844896316528
aF16.907755136489868
aF129.31583404541016
aF19.793431043624878
aF27.69384789466858
aF15.7518789768219
aF17.128588914871216
aF23.78231406211853
aF52.789121866226196
aF26.571221828460693
aF142.59266686439514
aF16.679239988327026
aF31.574132919311523
aF17.688171863555908
aF21.997974157333374
aF46.174360036849976
aF16.156323194503784
aF16.761735200881958
aF38.14466309547424
aF15.16189694404602
aF22.150784015655518
aF16.2053279876709
aF29.21792507171631
aF29.428389072418213
aF18.424094915390015
aF26.453389167785645
aF16.88022208213806
aF59.16591286659241
aF35.61935114860535
aF16.795827865600586
aF18.24009394645691
aF17.48053812980652
aF302.5794780254364
aF21.967483043670654
aF23.480682849884033
aF68.26819920539856
aF17.131118059158325
aF17.546080112457275
aF24.86862301826477
aF18.70539879798889
aF26.060317039489746
aF16.056041955947876
aF17.55385184288025
aF18.98911690711975
aF103.43488502502441
aF41.63937592506409
aF19.207793951034546
aF16.83906888961792
aF16.85721707344055
aF20.162997007369995
aF31.11870002746582
aF26.000439882278442
aF19.197751998901367
aF51.940190076828
aF33.66512203216553
aF124.5566189289093
aF44.25081491470337
aF69.51435899734497
aF20.032957077026367
aF38.40097999572754
aF36.93120288848877
aF61.82007718086243
aF16.602057933807373
aF37.63415598869324
aF38.97275495529175
aF17.067726850509644
aF17.70284605026245
aF35.69303297996521
aF29.98449397087097
aF17.23359203338623
aF39.41394114494324
aF38.7159628868103
aF136.85421586036682
aF17.839938163757324
aF22.233957052230835
aF45.09099507331848
aF213.98716402053833
aF31.03706407546997
aF16.949692964553833
aF70.12513303756714
aF31.356751918792725
aF26.102378129959106
aF16.984174013137817
aF17.49607801437378
aF32.66676688194275
aF40.64811301231384
aF46.5753390789032
aF25.261852025985718
aF79.45769786834717
aF34.574284076690674
aF34.15881395339966
aF20.99955701828003
aF67.8108720779419
aF27.614203929901123
aF19.67357587814331
aF64.09253597259521
aF42.51302194595337
aF16.654195070266724
aF103.85193490982056
aF19.31119394302368
aF52.31950616836548
aF18.86997699737549
aF30.79884099960327
aF18.008470058441162
aF128.16448402404785
aF31.754646062850952
aF19.699801921844482
aF15.466431140899658
aF19.559471130371094
aF34.361369132995605
aF18.53398084640503
aF19.016576051712036
aF21.361963987350464
aF25.682053089141846
aF18.25075888633728
aF25.3536319732666
aF22.183713912963867
aF42.54589295387268
aF19.66594099998474
aF19.280564069747925
aF30.602762937545776
aF17.477845907211304
aF23.48278284072876
aF37.05280303955078
aF19.700826168060303
aF38.917876958847046
aF92.12885093688965
aF21.19920301437378
aF21.98425817489624
aF24.06809091567993
aF17.43307614326477
aF40.13657093048096
aF40.05311393737793
aF37.66485810279846
aF167.12115597724915
aF27.297868013381958
aF36.122661113739014
aF103.5406060218811
aF117.53956484794617
aF19.165271997451782
aF47.72320914268494
aF17.13737201690674
aF39.88387608528137
aF16.21352195739746
aF37.370476961135864
aF18.05703902244568
aF27.617284059524536
aF36.56491303443909
aF49.975663900375366
aF15.772775888442993
aF65.76461005210876
aF18.846966981887817
aF16.263480186462402
aF47.39237999916077
aF32.729511976242065
aF26.541553020477295
aF45.78125500679016
aF33.98602294921875
aF74.85596704483032
aF35.50462102890015
aF18.591928958892822
aF18.57160496711731
aF148.52386116981506
aF27.49206781387329
aF18.51591396331787
aF20.31279492378235
aF18.32498812675476
aF302.66736698150635
aF74.0862238407135
aF15.347858905792236
aF17.81642198562622
aF27.746329069137573
aF27.256211042404175
aF36.65534281730652
aF49.5739631652832
aF62.51284098625183
aF37.45461297035217
aF26.69613790512085
aF16.204174995422363
aF157.54860091209412
aF57.73502016067505
aF36.38861393928528
aF155.86257481575012
aF35.55039596557617
aF36.558115005493164
aF37.470813035964966
aF37.98162889480591
aF65.99774503707886
aF137.27809810638428
aF17.76328182220459
aF38.34296202659607
aF27.172439098358154
aF15.651171922683716
aF16.586670875549316
aF17.59894895553589
aF18.610612869262695
aF75.37348890304565
aF21.90726613998413
aF36.53405499458313
aF22.0202898979187
aF16.384912967681885
aF64.3603880405426
aF28.935603857040405
aF17.191085815429688
aF245.8402280807495
aF81.072429895401
aF25.798542022705078
aF26.453568935394287
aF37.093562841415405
aF18.240756034851074
aF56.842140197753906
aF25.31701397895813
aF208.5601658821106
aF47.784528970718384
aF171.61734294891357
aF17.311094045639038
aF61.1462779045105
aF85.131343126297
aF19.13054585456848
aF104.87199521064758
aF31.289243936538696
aF82.80603003501892
aF20.24553918838501
aF208.81377005577087
aF17.09715700149536
aF52.456230878829956
aF26.069844961166382
aF22.733194828033447
aF21.774904012680054
aF45.716150999069214
aF15.71045207977295
aF18.387475967407227
aF86.89516496658325
aF26.810389041900635
aF18.257638931274414
aF26.217614889144897
aF25.01061201095581
aF27.44182801246643
aF18.797760009765625
aF18.44718885421753
aF45.41751408576965
aF26.569674015045166
aF36.982722997665405
aF31.463599920272827
aF17.42015504837036
aF19.652870893478394
aF20.693081855773926
aF69.70929908752441
aF40.9666690826416
aF26.31057906150818
aF25.163624048233032
aF65.39328789710999
aF44.75706100463867
aF112.49946403503418
aF120.81027817726135
aF17.320924997329712
aF25.06354784965515
aF17.623629093170166
aF17.20084309577942
aF35.387742042541504
aF59.164024114608765
aF24.037108898162842
aF39.11462998390198
aF19.433357000350952
aF30.47702693939209
aF38.36780595779419
aF26.311575889587402
aF33.651155948638916
aF28.96549105644226
aF51.71181011199951
aF146.7269151210785
aF81.36283302307129
aF30.563419818878174
aF53.75320219993591
aF39.2085440158844
aF42.59474492073059
aF49.36633491516113
aF23.937973976135254
aF18.186625003814697
aF17.161216974258423
aF23.616458892822266
aF27.01805806159973
aF39.68629002571106
aF15.94923996925354
aF18.63995909690857
aF28.180248975753784
aF47.232779026031494
aF39.78538799285889
aF50.904747009277344
aF47.76117396354675
aF39.96460008621216
aF28.99509310722351
aF23.20410394668579
aF38.853384017944336
aF67.06124305725098
aF19.309507846832275
aF37.97023797035217
aF53.948281049728394
aF16.55212903022766
aF24.881122827529907
aF44.50160479545593
aF35.70928192138672
aF73.23218297958374
aF19.200772047042847
aF33.699602127075195
aF18.26734185218811
aF25.61605715751648
aF37.59500813484192
aF17.441859006881714
aF118.79745984077454
aF54.119149923324585
aF32.74483013153076
aF65.3194088935852
aF115.64523196220398
aF40.71480202674866
aF16.622730016708374
aF16.50409483909607
aF94.58344602584839
aF173.25500416755676
aF85.71987104415894
aF39.89678692817688
aF73.06470704078674
aF16.28370499610901
aF18.700578927993774
aF67.66117787361145
aF37.10250401496887
aF29.28629994392395
aF34.06598401069641
aF16.769622087478638
aF24.86414098739624
aF16.882606983184814
aF24.142672061920166
aF32.769943952560425
aF25.02003502845764
aF29.845386028289795
aF18.250731945037842
aF17.719658851623535
aF17.794384002685547
aF29.632112979888916
aF94.60511994361877
aF90.60120391845703
aF79.09396195411682
aF24.40388298034668
aF38.56450915336609
aF37.09504413604736
aF119.91373801231384
aF43.126749992370605
aF17.293982982635498
aF61.91097903251648
aF19.152980089187622
aF19.35687494277954
aF18.799875020980835
aF74.66516089439392
aF93.95911478996277
aF17.310808897018433
aF18.548621892929077
aF198.1662561893463
aF38.401589155197144
aF16.01213002204895
aF21.75053310394287
aF38.703134059906006
aF24.637778997421265
aF16.819434881210327
aF56.49394392967224
aF304.1181528568268
aF39.96741604804993
aF16.987332105636597
aF19.09010887145996
aF35.31400418281555
aF64.9963788986206
aF41.61404895782471
aF25.968179941177368
aF54.7131609916687
aF51.87696290016174
aF17.924586057662964
aF16.139132022857666
aF39.0921950340271
aF27.679145097732544
aF15.817298173904419
aF41.54623889923096
aF52.14249801635742
aF25.848037004470825
aF40.4887809753418
aF30.604135036468506
aF59.36432409286499
aF72.08755087852478
aF15.977370023727417
aF45.19987893104553
aF26.577219009399414
aF26.19042205810547
aF30.98500680923462
aF16.853734970092773
aF44.97394108772278
aF17.153656005859375
aF45.62269401550293
aF74.32800889015198
aF29.10593891143799
aF74.32748603820801
aF198.30797696113586
aF41.98837113380432
aF16.406158924102783
aF42.58057498931885
aF25.082463026046753
aF26.045794010162354
aF55.30637192726135
aF15.996864080429077
aF126.23829007148743
aF27.89515709877014
aF17.260207891464233
aF138.63419103622437
aF17.008625030517578
aF29.89402985572815
aF26.783255100250244
aF16.431558847427368
aF19.71692395210266
aF26.182917833328247
aF21.77754497528076
aF17.42619800567627
aF76.39125919342041
aF68.59849381446838
aF30.799563884735107
aF27.539472103118896
aF23.62203812599182
aF21.650987148284912
aF169.2389509677887
aF31.865478992462158
aF108.92970895767212
aF55.19265604019165
aF17.36402702331543
aF39.84386897087097
aF17.503583908081055
aF43.13571095466614
aF24.891791105270386
aF17.09527897834778
aF18.91735315322876
aF27.44149398803711
aF39.57130789756775
aF33.419824838638306
aF26.054243087768555
aF33.793986082077026
aF17.697778940200806
aF17.450365781784058
aF17.15363597869873
aF16.459789991378784
aF18.686931848526
aF27.592870950698853
aF39.18463206291199
aF61.24313688278198
aF18.254770040512085
aF20.584777116775513
aF36.97074818611145
aF17.46968698501587
aF34.79442501068115
aF26.994871139526367
aF16.22975206375122
aF55.51866006851196
aF28.16515302658081
aF15.62802791595459
aF37.450275182724
aF18.12125015258789
aF25.93069815635681
aF16.339762926101685
aF32.685786962509155
aF18.14907693862915
aF15.92255711555481
aF44.89732503890991
aF28.35556697845459
aF186.0660970211029
aF25.280539989471436
aF57.09036588668823
aF38.76759600639343
aF17.685923099517822
aF66.29895496368408
aF17.542948961257935
aF18.66155695915222
aF19.959646940231323
aF37.34437394142151
aF19.619959115982056
aF27.472645044326782
aF15.638183832168579
aF20.49412703514099
aF17.691347122192383
aF17.994184017181396
aF17.635191917419434
aF19.151929140090942
aF37.23944807052612
aF19.36436104774475
aF31.09769296646118
aF16.884396076202393
aF45.38482594490051
aF17.39714288711548
aF36.780340909957886
aF19.953343152999878
aF19.30034589767456
aF137.63965702056885
aF18.062010049819946
aF17.169515132904053
aF26.28697395324707
as.