(dp0
S'successes'
p1
(lp2
I01
aI00
aI01
aI00
aI01
aI01
aI01
aI01
aI01
aI01
aI01
aI01
aI01
aI01
aI01
aI01
aI01
aI01
aI01
aI01
aI01
aI01
aI01
aI01
aI01
aI01
aI01
aI01
aI01
aI01
aI01
aI01
aI01
aI01
aI01
aI01
aI01
aI01
aI00
aI00
aI01
aI00
aI01
aI01
aI01
aI01
aI01
aI01
aI01
aI01
aI01
aI01
aI01
aI01
aI01
aI01
aI01
aI01
aI01
aI01
aI01
aI01
aI01
aI00
aI01
aI01
aI01
aI01
aI00
aI01
aI01
aI01
aI00
aI01
aI01
aI01
aI00
aI01
aI01
aI01
aI01
aI01
aI00
aI00
aI01
aI01
aI01
aI01
aI01
aI01
aI01
aI01
aI01
aI01
aI01
aI01
aI01
aI01
aI01
aI01
aI01
aI01
aI01
aI01
aI01
aI01
aI01
aI01
aI01
aI01
aI01
aI01
aI01
aI01
aI01
aI01
aI01
aI01
aI01
aI01
aI01
aI00
aI01
aI01
aI01
aI01
aI01
aI01
aI01
aI01
aI01
aI00
aI00
aI01
aI00
aI01
aI01
aI01
aI01
aI01
aI01
aI01
aI01
aI01
aI01
aI01
aI01
aI01
aI01
aI01
aI01
aI01
aI01
aI01
aI01
aI00
aI01
aI01
aI01
aI01
aI00
aI01
aI01
aI01
aI01
aI01
aI01
aI00
aI01
aI01
aI01
aI01
aI00
aI01
aI01
aI01
aI01
aI01
aI01
aI01
aI01
aI01
aI01
aI01
aI01
aI01
aI01
aI00
aI01
aI00
aI01
aI01
aI00
aI01
aI01
aI01
aI01
aI01
aI01
aI01
aI01
aI01
aI01
aI01
aI01
aI01
aI01
aI01
aI01
aI01
aI01
aI01
aI01
aI00
aI01
aI01
aI01
aI01
aI01
aI01
aI01
aI01
aI00
aI01
aI01
aI01
aI01
aI01
aI01
aI01
aI00
aI01
aI01
aI01
aI01
aI00
aI01
aI00
aI01
aI01
aI01
aI01
aI00
aI00
aI00
aI01
aI01
aI01
aI01
aI01
aI01
aI01
aI01
aI01
aI01
aI01
aI01
aI01
aI01
aI01
aI01
aI01
aI00
aI01
aI01
aI01
aI01
aI01
aI01
aI01
aI01
aI00
aI01
aI01
aI01
aI01
aI01
aI01
aI01
aI01
aI00
aI01
aI01
aI00
aI01
aI00
aI01
aI00
aI01
aI01
aI01
aI00
aI00
aI01
aI01
aI01
aI01
aI01
aI01
aI01
aI01
aI01
aI01
aI01
aI01
aI01
aI01
aI01
aI01
aI01
aI01
aI01
aI01
aI01
aI01
aI01
aI01
aI01
aI01
aI01
aI01
aI01
aI01
aI01
aI01
aI01
aI01
aI01
aI01
aI00
aI00
aI00
aI01
aI01
aI01
aI00
aI01
aI01
aI01
aI01
aI01
aI01
aI01
aI01
aI01
aI01
aI01
aI01
aI01
aI01
aI01
aI01
aI01
aI01
aI01
aI01
aI01
aI01
aI01
aI00
aI01
aI01
aI01
aI01
aI01
aI01
aI01
aI00
aI01
aI00
aI01
aI01
aI00
aI01
aI01
aI01
aI01
aI01
aI01
aI01
aI00
aI01
aI01
aI01
aI01
aI01
aI01
aI01
aI01
aI01
aI00
aI00
aI01
aI01
aI01
aI01
aI01
aI00
aI01
aI01
aI01
aI01
aI00
aI01
aI01
aI01
aI01
aI01
aI01
aI01
aI01
aI01
aI01
aI01
aI01
aI01
aI01
aI01
aI01
aI01
aI01
aI01
aI00
aI01
aI01
aI01
aI01
aI01
aI00
aI01
aI01
aI01
aI01
aI01
aI01
aI00
aI01
aI00
aI01
aI01
aI01
aI01
aI01
aI01
aI01
aI01
aI01
aI01
aI01
aI01
aI01
aI01
aI01
aI01
aI00
aI00
aI01
aI01
aI01
aI01
aI01
aI01
aI01
aI01
aI01
aI01
aI01
aI01
aI01
aI01
aI01
aI01
aI01
aI01
aI01
aI01
aI01
aI00
aI01
aI01
aI01
aI00
aI01
aI01
aI01
aI01
aI01
aI01
aI01
aI01
aI01
aI01
aI01
aI01
aI01
aI01
aI01
aI01
aI00
aI01
aI01
aI01
aI01
aI01
aI01
aI01
aI00
aI01
aI01
aI01
aI00
aI01
aI01
aI01
aI01
aI01
aI01
aI01
aI01
aI01
aI01
aI01
aI01
aI01
aI01
aI01
aI01
aI01
aI01
aI01
aI01
aI01
aI01
aI00
aI01
aI01
aI01
aI01
aI01
aI01
aI01
aI01
aI01
aI01
aI01
aI01
aI01
aI01
aI01
aI00
aI00
aI00
aI00
aI00
aI01
aI01
aI01
aI01
aI01
aI01
aI01
aI00
aI01
aI01
aI01
aI00
aI01
aI01
aI00
aI01
aI01
aI01
aI00
aI01
aI01
aI01
aI01
aI01
aI01
aI01
aI01
aI01
aI01
aI01
aI01
aI01
aI00
aI01
aI01
aI01
aI01
aI01
aI01
aI00
aI01
aI01
aI01
aI01
aI00
aI00
aI00
aI01
aI01
aI01
aI01
aI01
aI01
aI01
aI01
aI00
aI01
aI01
aI01
aI01
aI01
aI01
aI00
aI01
aI01
aI00
aI01
aI01
aI01
aI01
aI01
aI01
aI01
aI01
aI01
aI01
aI01
aI01
aI01
aI01
aI00
aI01
aI01
aI01
aI01
aI01
aI01
aI01
aI01
aI01
aI01
aI01
aI01
aI00
aI01
aI01
aI01
aI01
aI01
aI01
aI00
aI01
aI01
aI00
aI01
aI01
aI01
aI01
aI00
aI01
aI01
aI01
aI01
aI01
aI01
aI01
aI01
aI01
aI01
aI01
aI01
aI01
aI01
aI00
aI01
aI01
aI01
aI01
aI01
aI01
aI01
aI01
aI01
aI01
aI01
aI01
aI01
aI01
aI01
aI01
aI01
aI01
aI01
aI01
aI01
aI01
aI01
aI01
aI01
aI01
aI01
aI01
aI01
aI01
aI00
aI01
aI00
aI01
aI01
aI00
aI01
aI01
aI01
aI01
aI01
aI01
aI01
aI01
aI01
aI01
aI01
aI01
aI01
aI01
aI01
aI01
aI01
aI01
aI01
aI01
aI01
aI01
aI01
aI01
aI01
aI01
aI01
aI01
aI01
aI01
aI01
aI01
aI01
aI01
aI01
aI00
aI01
aI00
aI01
aI01
aI01
aI00
aI01
aI01
aI01
aI01
aI00
aI01
aI01
aI01
aI01
aI00
aI01
aI00
aI01
aI01
aI01
aI01
aI01
aI01
aI01
aI01
aI00
aI01
aI01
aI00
aI01
aI01
aI01
aI01
aI01
aI01
aI01
aI01
aI01
aI01
aI01
aI01
aI00
aI01
aI01
aI00
aI01
aI01
aI01
aI01
aI01
aI01
aI01
aI01
aI01
aI01
aI01
aI01
aI01
aI01
aI01
aI01
aI01
aI01
aI01
aI01
aI01
aI01
aI01
aI01
aI01
aI01
aI01
aI00
aI01
aI01
aI00
aI01
aI01
aI01
aI01
aI00
aI01
aI01
aI01
aI01
aI01
aI00
aI01
aI01
aI01
aI01
aI01
aI00
aI01
aI01
aI01
aI01
aI01
aI01
aI01
aI01
aI00
aI01
aI01
aI01
aI01
aI01
aI01
aI01
aI01
aI01
aI01
aI01
aI01
aI01
aI01
aI01
aI01
aI00
aI01
aI01
aI01
aI00
aI01
aI01
aI01
aI01
aI01
aI01
aI01
aI01
aI01
aI01
aI01
aI01
aI01
aI01
aI01
aI01
aI01
aI01
aI01
aI01
aI01
aI00
aI01
aI01
aI01
aI01
aI01
aI01
aI01
aI01
aI01
aI01
aI01
aI01
aI01
aI01
aI00
aI01
aI01
aI01
aI01
aI01
aI01
aI01
aI01
aI01
aI01
aI01
aI01
aI01
aI01
aI01
aI01
aI01
aI01
aI01
aI01
aI01
aI01
aI01
aI01
aI01
aI00
aI01
aI01
aI01
aI01
aI00
aI01
aI01
aI01
aI01
aI01
aI00
aI01
aI01
aI01
aI00
aI01
aI01
aI01
aI00
aI01
aI01
aI01
aI00
aI01
aI00
aI01
aI01
aI01
aI00
aI01
aI01
aI01
aI01
aI01
aI01
aI01
aI01
aI01
aI01
aI01
aI01
aI01
aI00
aI01
aI01
aI00
aI01
aI01
aI00
aI01
aI01
aI01
aI01
aI01
aI01
aI00
aI01
aI01
aI01
aI01
aI01
aI00
aI01
aI01
aI01
aI01
aI01
aI01
aI01
aI01
aI01
aI01
aI00
aI01
aI01
aI01
aI01
aI01
aI01
aI01
aI01
aI01
aI01
aI01
aI01
aI01
aI01
aI01
aI01
aI01
aI01
aI01
aI01
aI01
aI01
aI01
aI01
aI01
aI01
aI01
aI01
aI01
aI01
aI01
aI01
aI00
aI01
aI01
aI01
aI01
aI00
aI01
aI00
aI01
aI01
aI01
aI01
aI01
aI01
aI01
aI01
aI01
aI01
aI01
aI01
aI00
aI01
aI01
aI01
aI01
aI01
aI01
aI01
aI00
aI01
aI01
aI01
aI00
aI01
aI01
aI01
aI01
aI01
aI01
aI01
aI00
aI01
aI01
aI01
aI01
aI01
aI01
aI01
aI01
aI01
aI01
aI01
aI01
aI01
aI00
aI01
aI01
aI01
aI01
aI01
aI01
aI00
aI01
aI01
aI01
aI01
aI01
aI01
aI01
aI00
aI01
aI01
aI01
aI01
aI01
aI01
aI00
aI01
aI01
aI01
aI01
aI01
aI01
aI01
aI01
aI00
aI01
aI01
aI01
aI01
aI01
aI01
aI01
aI01
aI01
aI01
aI01
aI01
aI00
aI01
aI01
aI01
aI01
aI01
aI01
aI01
aI01
aI01
aI01
aI01
aI01
aI01
aI01
aI01
aI01
aI01
aI01
aI01
aI01
aI01
aI00
aI01
aI01
aI01
aI01
aI01
aI01
aI01
aI01
aI01
aI01
aI00
aI00
aI01
aI01
aI01
aI01
aI01
aI01
aI01
aI01
aI01
aI01
aI01
aI01
aI01
aI01
aI00
aI00
aI01
aI01
aI01
aI01
aI01
aI01
aI01
aI01
aI01
aI01
aI01
aI01
aI01
aI00
aI00
aI01
aI01
aI01
aI01
aI01
aI01
aI01
aI01
aI01
aI01
aI01
aI01
aI01
aI01
aI01
aI01
aI01
aI01
aI01
aI01
aI01
aI01
aI01
aI01
aI01
aI01
aI01
aI01
aI01
aI01
aI01
aI01
aI01
aI01
aI00
aI01
aI01
aI01
aI01
aI01
aI01
aI01
aI01
aI01
aI01
aI01
aI01
aI01
aI00
aI01
aI01
aI01
aI00
aI01
aI01
aI01
aI00
aI00
aI01
aI01
aI01
aI01
aI01
aI01
aI01
aI01
aI01
aI01
aI01
aI01
aI00
aI01
aI01
aI00
aI01
aI01
aI01
aI00
aI01
aI01
aI01
aI01
aI01
aI00
aI01
aI00
aI00
aI01
aI01
aI00
aI00
aI01
aI01
aI01
aI01
aI01
aI01
aI01
aI01
aI01
aI01
aI01
aI01
aI01
aI01
aI00
aI01
aI00
aI01
aI01
aI01
aI01
aI01
aI01
aI01
aI01
aI01
aI01
aI01
aI01
aI01
aI01
aI01
aI00
aI01
aI00
aI01
aI01
aI00
aI01
aI01
aI01
aI01
aI00
aI01
aI01
aI01
aI01
aI01
aI01
aI01
aI01
aI01
aI01
aI01
aI01
aI01
aI01
aI01
aI01
aI01
aI01
aI01
aI01
aI01
aI01
aI01
aI01
aI01
aI00
aI01
aI01
aI01
aI01
aI01
aI01
aI01
aI01
aI00
aI01
aI00
aI01
aI01
aI01
aI01
aI01
aI00
aI01
aI01
aI01
aI01
aI00
aI01
aI01
aI01
aI01
aI01
aI01
aI01
aI01
aI01
aI01
aI01
aI01
aI01
aI01
aI01
aI01
aI01
aI01
aI01
aI01
aI01
aI01
aI01
aI00
aI01
aI01
aI01
aI01
aI01
aI01
aI01
aI01
aI01
aI01
aI01
aI01
aI01
aI00
aI01
aI00
aI01
aI01
aI01
aI00
aI01
aI01
aI01
aI01
aI01
aI00
aI01
aI01
aI01
aI00
aI01
aI00
aI01
aI01
aI01
aI01
aI01
aI01
aI01
aI01
aI00
aI01
aI01
aI00
aI01
aI01
aI00
aI00
aI01
aI01
aI01
aI01
aI01
aI01
aI01
aI01
aI01
aI01
aI00
aI01
aI01
aI01
aI01
aI01
aI01
aI01
aI01
aI01
aI00
aI01
aI00
aI01
aI00
aI01
aI01
aI01
aI01
aI00
aI01
aI00
aI00
aI01
aI01
aI01
aI01
aI01
aI01
aI01
aI01
aI00
aI01
aI01
aI01
aI01
aI01
aI00
aI01
aI01
aI01
aI01
aI01
aI01
aI01
aI01
aI01
aI01
aI01
aI01
aI01
aI01
aI01
aI01
aI01
aI01
aI01
aI01
aI01
aI01
aI01
aI01
aI01
aI01
aI00
aI01
aI01
aI01
aI01
aI01
aI01
aI01
aI01
aI01
aI00
aI01
aI01
aI01
aI01
aI01
aI01
aI01
aI00
aI01
aI01
aI01
aI01
aI01
aI01
aI01
aI01
aI01
aI01
aI01
aI01
aI01
aI01
aI01
aI01
aI01
aI00
aI01
aI01
aI01
aI01
aI01
aI01
aI01
aI01
aI01
aI01
aI01
aI01
aI01
aI00
aI01
aI01
aI00
aI01
aI01
aI01
aI01
aI01
aI00
aI01
aI01
aI01
aI01
aI01
aI01
aI01
aI01
aI01
aI01
aI01
aI01
aI01
aI00
aI01
aI01
aI01
aI01
aI01
aI01
aI01
aI00
aI01
aI01
aI01
aI01
aI01
aI00
aI00
aI01
aI01
aI01
aI01
aI01
aI01
aI01
aI01
aI01
aI00
aI01
aI00
aI01
aI01
aI01
aI01
aI01
aI01
aI01
aI01
aI01
aI01
aI01
aI01
aI01
aI00
aI01
aI01
aI01
aI01
aI01
aI01
aI01
aI01
aI01
aI01
aI01
aI01
aI00
aI01
aI01
aI01
aI01
aI01
aI01
aI01
aI01
aI01
aI01
aI01
aI01
aI01
aI01
aI01
aI01
aI01
aI01
aI01
aI01
aI01
aI01
aI01
aI01
aI01
aI01
aI01
aI01
aI01
aI01
aI01
aI01
aI01
aI01
aI01
aI01
aI01
aI01
aI01
aI01
aI01
aI01
aI01
aI01
aI01
aI01
aI00
aI01
aI01
aI01
aI01
aI01
aI00
aI01
aI01
aI01
aI01
aI01
aI01
aI00
aI00
aI01
aI01
aI01
aI01
aI01
aI00
aI00
aI01
aI01
aI01
aI01
aI01
aI01
aI01
aI01
aI01
aI01
aI01
aI01
aI01
aI01
aI01
aI01
aI01
aI01
aI01
aI01
aI01
aI01
aI01
aI01
aI01
aI01
aI01
aI01
aI01
aI00
aI00
aI01
aI00
aI00
aI00
aI01
aI01
aI01
aI01
aI01
aI01
aI01
aI01
aI00
aI01
aI01
aI00
aI01
aI01
aI01
aI01
aI01
aI01
aI01
aI01
aI01
aI01
aI01
aI01
aI01
aI01
aI01
aI01
aI01
aI01
aI01
aI01
aI01
aI01
aI01
aI01
aI01
aI01
aI01
aI01
aI01
aI01
aI01
aI01
aI01
aI01
aI00
aI01
aI01
aI01
aI01
aI01
aI01
aI01
aI01
aI01
aI00
aI01
aI01
aI01
aI01
aI01
aI01
aI00
aI01
aI00
aI01
aI01
aI01
aI00
aI01
aI01
aI01
aI01
aI01
aI01
aI01
aI01
aI01
aI00
aI01
aI00
aI01
aI01
aI01
aI01
aI01
aI01
aI01
aI01
aI01
aI01
aI01
aI01
aI01
aI01
aI01
aI01
aI01
aI01
aI01
aI01
aI01
aI01
aI01
aI01
aI01
aI01
aI01
aI01
aI01
aI00
aI01
aI01
aI01
aI01
aI01
aI01
aI00
aI01
aI01
aI01
aI01
aI01
aI01
aI01
aI01
aI01
aI01
aI01
aI01
aI01
aI01
aI00
aI01
aI01
aI01
aI00
aI00
aI01
aI01
aI01
aI01
aI01
aI01
aI01
aI01
aI01
aI01
aI01
aI01
aI01
aI01
aI01
aI01
aI01
aI01
aI01
aI01
aI01
aI00
aI01
aI00
aI01
aI01
aI01
aI01
aI01
aI01
aI01
aI01
aI01
aI01
aI01
aI01
aI01
aI01
aI01
aI01
aI01
aI01
aI01
aI01
aI01
aI01
aI01
aI01
aI01
aI00
aI01
aI01
aI01
aI01
aI00
aI01
aI01
aI01
aI01
aI01
aI01
aI01
aI01
aI01
aI01
aI01
aI01
aI01
aI01
aI01
aI01
aI01
aI01
aI01
aI00
aI01
aI01
aI01
aI01
aI01
aI01
aI01
aI01
aI01
aI01
aI01
aI01
aI01
aI01
aI01
aI01
aI01
aI01
aI01
aI01
aI01
aI01
aI01
aI01
aI01
aI01
aI01
aI01
aI01
aI01
aI00
aI01
aI01
aI01
aI01
aI01
aI01
aI00
aI01
aI01
aI01
aI01
aI01
aI01
aI01
aI01
aI01
aI01
aI01
aI01
aI01
aI01
aI01
aI01
aI01
aI01
aI00
aI00
aI01
aI01
aI01
aI01
aI01
aI01
aI01
aI01
aI01
aI01
aI01
aI01
aI01
aI01
aI01
aI01
aI01
aI01
aI01
aI01
aI00
aI01
aI01
aI00
aI01
aI00
aI01
aI01
aI01
aI01
aI01
aI01
aI01
aI01
aI00
aI01
aI01
aI01
aI00
aI01
aI01
aI00
aI01
aI00
aI01
aI00
aI01
aI01
aI01
aI01
aI01
aI01
aI01
aI01
aI00
aI01
aI01
aI01
aI01
aI01
aI01
aI01
aI01
aI01
aI01
aI01
aI01
aI01
aI01
aI01
aI01
aI01
aI01
aI01
aI01
aI01
aI01
aI01
aI01
aI01
aI01
aI01
aI01
aI01
aI01
aI00
aI01
aI01
aI01
aI01
aI01
aI01
aI01
aI01
aI01
aI01
aI01
aI01
aI01
aI01
aI01
aI01
aI01
aI01
aI01
aI01
aI01
aI01
aI01
aI01
aI01
aI01
aI01
aI01
aI01
aI01
aI01
aI01
aI01
aI01
aI01
aI01
aI01
aI01
aI01
aI01
aI01
aI00
aI01
aI01
aI01
aI01
aI01
aI01
aI01
aI01
aI01
aI01
aI01
aI01
aI01
aI01
aI01
aI01
aI01
aI01
aI00
aI01
aI01
aI01
aI01
aI01
aI01
aI01
aI01
aI01
aI01
aI01
aI01
aI01
aI01
aI01
aI01
aI00
aI01
aI00
aI01
aI01
aI01
aI01
aI01
aI01
aI01
aI01
aI01
aI00
aI01
aI00
aI00
aI01
aI01
aI01
aI01
aI00
aI01
aI01
aI01
aI01
aI00
aI01
aI01
aI01
aI01
aI00
aI01
aI01
aI00
aI01
aI01
aI00
aI01
aI01
aI01
aI00
aI01
aI01
aI01
aI01
aI01
aI00
aI01
aI01
aI01
aI01
aI01
aI01
aI01
aI01
aI01
aI01
aI01
aI01
aI01
aI01
aI01
aI01
aI01
aI01
aI00
aI01
aI01
aI00
aI01
aI01
aI01
aI01
aI01
aI01
aI01
aI00
aI01
aI01
aI01
aI01
aI01
aI01
aI01
aI01
aI01
aI01
aI01
aI01
aI01
aI01
aI01
aI01
aI01
aI01
aI01
aI01
aI01
aI01
aI01
aI01
aI01
aI01
aI01
aI01
aI01
aI01
aI01
aI01
aI01
aI01
aI01
aI01
aI00
aI01
aI01
aI01
aI01
aI01
aI01
aI01
aI01
aI01
aI01
aI00
aI01
aI01
aI01
aI01
aI01
aI01
aI01
aI01
aI01
aI01
aI01
aI00
aI01
aI01
aI01
aI01
aI01
aI01
aI01
aI01
aI01
aI01
aI01
aI00
aI00
aI01
aI01
aI01
aI01
aI01
aI01
aI01
aI01
aI01
aI01
aI01
aI01
aI01
aI01
aI01
aI01
aI01
aI01
aI01
aI01
aI01
aI01
aI01
aI01
aI01
aI00
aI01
aI01
aI01
aI01
aI01
aI01
aI01
aI01
aI01
aI01
aI00
aI01
aI01
aI01
aI01
aI00
aI01
aI01
aI01
aI01
aI01
aI01
aI01
aI01
aI01
aI01
aI01
aI01
aI01
aI01
aI01
aI01
aI01
aI00
aI01
aI01
aI01
aI00
aI01
aI01
aI01
aI01
aI01
aI01
aI01
aI01
aI01
aI01
asS'num_nodes'
p3
(lp4
I1
aI17
aI1
aI17
aI3
aI34
aI3
aI1
aI11
aI1
aI1
aI10
aI1
aI37
aI1
aI3
aI22
aI1
aI20
aI1
aI1
aI46
aI25
aI8
aI1
aI1
aI1
aI3
aI14
aI3
aI1
aI16
aI3
aI16
aI3
aI38
aI1
aI3
aI17
aI17
aI1
aI17
aI1
aI1
aI3
aI19
aI3
aI1
aI5
aI21
aI3
aI1
aI1
aI5
aI1
aI1
aI5
aI7
aI3
aI6
aI1
aI1
aI4
aI17
aI1
aI5
aI1
aI7
aI17
aI3
aI1
aI25
aI17
aI57
aI1
aI1
aI17
aI26
aI1
aI3
aI3
aI1
aI17
aI31
aI1
aI73
aI3
aI3
aI33
aI16
aI1
aI17
aI3
aI1
aI1
aI6
aI1
aI1
aI3
aI4
aI1
aI1
aI1
aI28
aI21
aI1
aI3
aI5
aI1
aI4
aI16
aI1
aI27
aI1
aI1
aI3
aI33
aI3
aI4
aI7
aI27
aI17
aI1
aI5
aI16
aI17
aI1
aI14
aI1
aI5
aI6
aI17
aI17
aI2
aI17
aI3
aI24
aI5
aI1
aI42
aI1
aI5
aI1
aI20
aI1
aI1
aI3
aI1
aI1
aI20
aI18
aI46
aI1
aI1
aI1
aI17
aI7
aI1
aI1
aI1
aI17
aI20
aI1
aI30
aI3
aI1
aI1
aI17
aI1
aI3
aI3
aI1
aI17
aI1
aI31
aI27
aI1
aI5
aI3
aI6
aI30
aI19
aI1
aI4
aI17
aI63
aI21
aI17
aI21
aI17
aI1
aI1
aI17
aI1
aI11
aI1
aI19
aI1
aI3
aI3
aI32
aI1
aI1
aI7
aI7
aI1
aI1
aI3
aI3
aI5
aI3
aI1
aI1
aI17
aI1
aI66
aI10
aI2
aI9
aI5
aI39
aI1
aI17
aI33
aI1
aI3
aI1
aI1
aI16
aI1
aI17
aI3
aI1
aI11
aI1
aI17
aI3
aI17
aI3
aI76
aI3
aI5
aI17
aI17
aI17
aI1
aI3
aI62
aI32
aI1
aI19
aI64
aI26
aI1
aI1
aI27
aI17
aI1
aI1
aI19
aI1
aI1
aI17
aI6
aI1
aI5
aI42
aI3
aI17
aI3
aI29
aI17
aI1
aI1
aI1
aI22
aI5
aI1
aI1
aI1
aI17
aI3
aI1
aI45
aI27
aI17
aI5
aI17
aI3
aI5
aI46
aI17
aI17
aI1
aI33
aI1
aI5
aI3
aI1
aI12
aI1
aI29
aI1
aI3
aI32
aI3
aI28
aI1
aI1
aI3
aI10
aI44
aI3
aI1
aI33
aI3
aI50
aI26
aI1
aI1
aI1
aI6
aI3
aI33
aI1
aI3
aI1
aI3
aI1
aI17
aI95
aI17
aI1
aI1
aI86
aI17
aI3
aI9
aI1
aI17
aI1
aI27
aI2
aI52
aI1
aI74
aI69
aI29
aI1
aI6
aI5
aI6
aI36
aI1
aI17
aI5
aI7
aI14
aI28
aI17
aI1
aI3
aI3
aI5
aI1
aI13
aI1
aI17
aI3
aI17
aI3
aI1
aI17
aI1
aI1
aI1
aI38
aI1
aI5
aI3
aI17
aI1
aI8
aI3
aI1
aI35
aI1
aI1
aI34
aI11
aI17
aI17
aI1
aI9
aI1
aI51
aI3
aI17
aI6
aI1
aI1
aI3
aI17
aI3
aI2
aI11
aI1
aI3
aI1
aI1
aI1
aI1
aI46
aI4
aI54
aI1
aI2
aI5
aI1
aI27
aI10
aI21
aI17
aI23
aI24
aI1
aI1
aI1
aI17
aI6
aI29
aI5
aI3
aI1
aI1
aI94
aI5
aI17
aI3
aI3
aI7
aI1
aI1
aI21
aI4
aI1
aI1
aI6
aI3
aI1
aI1
aI7
aI3
aI1
aI17
aI17
aI1
aI1
aI24
aI1
aI7
aI1
aI3
aI1
aI1
aI1
aI15
aI3
aI18
aI3
aI3
aI1
aI1
aI3
aI1
aI1
aI11
aI17
aI4
aI1
aI1
aI17
aI53
aI1
aI18
aI6
aI3
aI1
aI1
aI1
aI3
aI1
aI12
aI12
aI6
aI31
aI1
aI26
aI17
aI32
aI1
aI3
aI1
aI1
aI1
aI1
aI17
aI3
aI1
aI15
aI17
aI7
aI1
aI1
aI3
aI3
aI25
aI1
aI50
aI5
aI3
aI1
aI36
aI3
aI5
aI7
aI26
aI1
aI5
aI3
aI31
aI1
aI1
aI17
aI13
aI1
aI1
aI1
aI1
aI1
aI44
aI5
aI20
aI1
aI1
aI1
aI1
aI1
aI14
aI17
aI17
aI17
aI17
aI17
aI31
aI3
aI1
aI1
aI1
aI17
aI2
aI17
aI4
aI4
aI1
aI17
aI1
aI3
aI17
aI1
aI1
aI49
aI31
aI6
aI3
aI3
aI20
aI3
aI12
aI1
aI1
aI10
aI42
aI1
aI10
aI6
aI17
aI1
aI5
aI1
aI4
aI1
aI4
aI17
aI1
aI7
aI6
aI1
aI17
aI17
aI17
aI4
aI1
aI38
aI1
aI3
aI3
aI12
aI3
aI17
aI50
aI7
aI3
aI1
aI1
aI3
aI17
aI1
aI13
aI80
aI5
aI1
aI28
aI1
aI3
aI5
aI20
aI1
aI3
aI1
aI3
aI1
aI1
aI71
aI17
aI26
aI11
aI1
aI1
aI5
aI1
aI6
aI3
aI1
aI1
aI85
aI1
aI17
aI40
aI77
aI1
aI29
aI3
aI3
aI17
aI1
aI1
aI17
aI3
aI3
aI6
aI1
aI17
aI1
aI3
aI4
aI1
aI1
aI1
aI3
aI5
aI10
aI1
aI1
aI1
aI17
aI3
aI17
aI3
aI66
aI39
aI49
aI3
aI7
aI1
aI1
aI1
aI64
aI18
aI3
aI1
aI1
aI28
aI1
aI1
aI5
aI1
aI30
aI19
aI3
aI17
aI1
aI3
aI3
aI7
aI1
aI23
aI1
aI17
aI1
aI17
aI1
aI3
aI17
aI1
aI3
aI1
aI1
aI7
aI1
aI9
aI12
aI1
aI3
aI24
aI1
aI17
aI3
aI1
aI3
aI1
aI1
aI3
aI5
aI1
aI38
aI1
aI1
aI11
aI26
aI1
aI5
aI1
aI1
aI1
aI1
aI1
aI20
aI1
aI17
aI5
aI17
aI17
aI5
aI1
aI17
aI1
aI1
aI1
aI1
aI17
aI1
aI1
aI5
aI6
aI45
aI21
aI17
aI3
aI27
aI1
aI7
aI7
aI7
aI1
aI6
aI17
aI5
aI6
aI17
aI21
aI3
aI3
aI4
aI1
aI1
aI21
aI1
aI3
aI3
aI17
aI1
aI17
aI5
aI17
aI17
aI30
aI3
aI1
aI1
aI1
aI16
aI1
aI16
aI1
aI1
aI3
aI9
aI12
aI1
aI25
aI1
aI1
aI1
aI1
aI3
aI31
aI8
aI5
aI1
aI6
aI9
aI1
aI17
aI3
aI1
aI17
aI3
aI2
aI3
aI1
aI17
aI3
aI17
aI31
aI1
aI1
aI17
aI24
aI3
aI1
aI1
aI3
aI17
aI3
aI1
aI40
aI1
aI1
aI1
aI1
aI8
aI17
aI1
aI2
aI1
aI43
aI75
aI99
aI11
aI1
aI21
aI1
aI5
aI7
aI17
aI1
aI1
aI3
aI17
aI13
aI5
aI3
aI17
aI6
aI10
aI23
aI3
aI1
aI17
aI11
aI18
aI1
aI8
aI1
aI3
aI19
aI23
aI7
aI7
aI5
aI3
aI15
aI11
aI17
aI17
aI20
aI3
aI6
aI47
aI1
aI1
aI4
aI19
aI1
aI1
aI24
aI30
aI1
aI1
aI59
aI1
aI1
aI3
aI6
aI1
aI26
aI12
aI1
aI4
aI3
aI10
aI1
aI4
aI16
aI1
aI1
aI1
aI6
aI1
aI1
aI3
aI33
aI1
aI7
aI6
aI17
aI13
aI1
aI7
aI1
aI17
aI1
aI3
aI1
aI3
aI3
aI17
aI1
aI13
aI1
aI17
aI1
aI14
aI1
aI17
aI14
aI1
aI1
aI17
aI7
aI17
aI1
aI74
aI13
aI17
aI1
aI9
aI1
aI7
aI4
aI5
aI1
aI21
aI49
aI4
aI21
aI1
aI1
aI17
aI3
aI41
aI17
aI3
aI7
aI17
aI31
aI6
aI68
aI3
aI1
aI33
aI17
aI3
aI17
aI3
aI1
aI1
aI17
aI4
aI23
aI5
aI3
aI3
aI3
aI1
aI3
aI83
aI3
aI17
aI3
aI3
aI21
aI42
aI9
aI4
aI1
aI9
aI69
aI1
aI3
aI9
aI27
aI1
aI1
aI10
aI1
aI3
aI3
aI3
aI43
aI39
aI1
aI3
aI1
aI24
aI15
aI1
aI3
aI3
aI1
aI5
aI17
aI3
aI1
aI5
aI1
aI31
aI5
aI17
aI16
aI5
aI1
aI1
aI1
aI30
aI1
aI7
aI24
aI21
aI1
aI33
aI17
aI1
aI3
aI1
aI1
aI1
aI1
aI10
aI17
aI36
aI1
aI3
aI17
aI48
aI16
aI11
aI3
aI1
aI1
aI25
aI17
aI1
aI10
aI3
aI3
aI1
aI5
aI37
aI3
aI3
aI1
aI24
aI1
aI8
aI17
aI1
aI3
aI6
aI3
aI25
aI3
aI17
aI2
aI4
aI21
aI7
aI3
aI3
aI84
aI17
aI3
aI12
aI11
aI17
aI8
aI1
aI17
aI34
aI4
aI1
aI1
aI1
aI1
aI17
aI1
aI17
aI1
aI1
aI1
aI21
aI30
aI7
aI1
aI13
aI3
aI6
aI6
aI1
aI17
aI1
aI1
aI1
aI15
aI3
aI1
aI8
aI31
aI1
aI1
aI1
aI32
aI3
aI1
aI4
aI16
aI3
aI3
aI1
aI19
aI1
aI17
aI6
aI3
aI1
aI94
aI1
aI7
aI19
aI1
aI17
aI1
aI17
aI17
aI64
aI1
aI40
aI3
aI3
aI3
aI6
aI1
aI17
aI22
aI1
aI17
aI4
aI5
aI17
aI17
aI1
aI1
aI1
aI1
aI1
aI1
aI7
aI32
aI1
aI1
aI3
aI11
aI5
aI17
aI17
aI8
aI18
aI3
aI19
aI27
aI6
aI1
aI45
aI1
aI33
aI12
aI1
aI7
aI1
aI3
aI21
aI6
aI1
aI1
aI4
aI15
aI3
aI14
aI1
aI3
aI1
aI21
aI15
aI80
aI1
aI11
aI14
aI1
aI1
aI17
aI3
aI3
aI1
aI1
aI4
aI20
aI5
aI1
aI20
aI1
aI43
aI9
aI1
aI17
aI5
aI1
aI1
aI17
aI2
aI1
aI36
aI99
aI17
aI7
aI37
aI6
aI1
aI12
aI1
aI1
aI1
aI1
aI1
aI1
aI1
aI17
aI1
aI1
aI17
aI1
aI1
aI1
aI17
aI15
aI26
aI1
aI1
aI31
aI17
aI3
aI17
aI17
aI14
aI5
aI17
aI17
aI4
aI51
aI3
aI1
aI1
aI77
aI3
aI5
aI1
aI1
aI16
aI17
aI1
aI1
aI17
aI1
aI17
aI1
aI3
aI3
aI14
aI1
aI1
aI1
aI1
aI1
aI1
aI1
aI16
aI1
aI3
aI1
aI17
aI7
aI17
aI1
aI24
aI17
aI1
aI29
aI3
aI3
aI17
aI9
aI5
aI8
aI1
aI1
aI21
aI1
aI17
aI1
aI1
aI1
aI5
aI1
aI7
aI3
aI10
aI16
aI67
aI3
aI5
aI1
aI1
aI8
aI3
aI7
aI17
aI3
aI5
aI1
aI1
aI1
aI4
aI3
aI55
aI17
aI1
aI17
aI1
aI26
aI30
aI1
aI1
aI17
aI1
aI53
aI16
aI1
aI17
aI3
aI1
aI51
aI3
aI1
aI22
aI1
aI17
aI24
aI5
aI1
aI6
aI3
aI3
aI25
aI16
aI1
aI9
aI1
aI5
aI3
aI1
aI1
aI17
aI5
aI21
aI4
aI3
aI45
aI1
aI9
aI3
aI3
aI1
aI1
aI1
aI3
aI17
aI3
aI17
aI5
aI3
aI1
aI81
aI1
aI1
aI20
aI1
aI1
aI95
aI6
aI4
aI1
aI17
aI3
aI106
aI1
aI1
aI30
aI1
aI1
aI8
aI5
aI1
aI17
aI3
aI29
aI17
aI1
aI3
aI17
aI17
aI1
aI3
aI5
aI3
aI1
aI6
aI1
aI1
aI13
aI11
aI17
aI10
aI3
aI19
aI1
aI1
aI2
aI12
aI20
aI1
aI17
aI21
aI17
aI3
aI17
aI10
aI1
aI1
aI3
aI17
aI1
aI17
aI17
aI1
aI4
aI1
aI30
aI31
aI3
aI13
aI1
aI17
aI3
aI3
aI3
aI18
aI1
aI17
aI3
aI7
aI1
aI1
aI1
aI1
aI1
aI1
aI17
aI1
aI3
aI7
aI3
aI21
aI3
aI1
aI1
aI56
aI7
aI1
aI4
aI75
aI4
aI3
aI1
aI5
aI17
aI3
aI1
aI1
aI1
aI17
aI1
aI1
aI1
aI3
aI17
aI1
aI5
aI11
aI1
aI13
aI5
aI1
aI17
aI3
aI3
aI13
aI1
aI1
aI4
aI3
aI1
aI3
aI1
aI3
aI22
aI5
aI5
aI3
aI17
aI20
aI17
aI3
aI1
aI67
aI1
aI17
aI1
aI8
aI4
aI1
aI1
aI1
aI1
aI1
aI17
aI1
aI8
aI17
aI28
aI9
aI16
aI1
aI1
aI17
aI3
aI44
aI11
aI17
aI1
aI1
aI1
aI1
aI1
aI27
aI25
aI3
aI12
aI17
aI8
aI1
aI36
aI1
aI6
aI33
aI1
aI17
aI17
aI1
aI3
aI1
aI5
aI17
aI17
aI3
aI1
aI1
aI1
aI3
aI20
aI3
aI3
aI1
aI17
aI3
aI31
aI1
aI24
aI1
aI6
aI4
aI12
aI1
aI5
aI1
aI1
aI1
aI1
aI34
aI17
aI1
aI1
aI1
aI1
aI1
aI1
aI3
aI1
aI21
aI3
aI27
aI1
aI17
aI3
aI1
aI5
aI27
aI5
aI1
aI1
aI1
aI3
aI6
aI1
aI3
aI16
aI1
aI1
aI4
aI1
aI3
aI17
aI1
aI23
aI3
aI1
aI63
aI28
aI1
aI26
aI17
aI7
aI1
aI1
aI1
aI1
aI1
aI1
aI1
aI5
aI1
aI3
aI3
aI1
aI1
aI5
aI17
aI1
aI1
aI17
aI51
aI3
aI22
aI1
aI1
aI17
aI1
aI5
aI7
aI1
aI28
aI1
aI17
aI17
aI1
aI1
aI5
aI12
aI1
aI17
aI17
aI1
aI28
aI1
aI1
aI1
aI20
aI1
aI5
aI32
aI7
aI4
aI1
aI10
aI1
aI7
aI7
aI1
aI3
aI3
aI1
aI1
aI1
aI1
aI1
aI6
aI13
aI17
aI23
aI2
aI17
aI100
aI9
aI17
aI17
aI17
aI6
aI1
aI3
aI37
aI5
aI27
aI1
aI3
aI17
aI1
aI1
aI31
aI1
aI5
aI1
aI1
aI12
aI1
aI1
aI16
aI14
aI7
aI1
aI28
aI19
aI1
aI1
aI1
aI1
aI3
aI31
aI1
aI55
aI1
aI1
aI1
aI1
aI3
aI34
aI1
aI1
aI3
aI23
aI34
aI6
aI1
aI17
aI8
aI1
aI1
aI40
aI1
aI3
aI42
aI9
aI1
aI17
aI20
aI12
aI1
aI1
aI26
aI1
aI17
aI1
aI17
aI1
aI17
aI3
aI17
aI3
aI21
aI3
aI15
aI1
aI5
aI1
aI33
aI1
aI17
aI1
aI17
aI1
aI3
aI3
aI1
aI2
aI1
aI16
aI1
aI1
aI20
aI1
aI3
aI3
aI3
aI5
aI4
aI1
aI19
aI5
aI1
aI1
aI27
aI1
aI3
aI1
aI1
aI28
aI4
aI32
aI17
aI17
aI1
aI2
aI1
aI3
aI8
aI17
aI1
aI3
aI21
aI23
aI8
aI3
aI38
aI31
aI1
aI1
aI1
aI5
aI36
aI36
aI17
aI7
aI1
aI3
aI17
aI17
aI9
aI1
aI6
aI4
aI3
aI16
aI1
aI23
aI1
aI1
aI5
aI3
aI1
aI1
aI1
aI1
aI1
aI22
aI9
aI1
aI1
aI17
aI8
aI17
aI1
aI1
aI1
aI5
aI1
aI43
aI22
aI3
aI3
aI1
aI3
aI1
aI1
aI3
aI19
aI21
aI3
aI22
aI7
aI14
aI9
aI10
aI1
aI1
aI5
aI17
aI1
aI17
aI10
aI1
aI17
aI7
aI1
aI1
aI60
aI63
aI1
aI1
aI6
aI28
aI1
aI1
aI32
aI9
aI1
aI7
aI3
aI1
aI3
aI1
aI75
aI1
aI1
aI3
aI90
aI5
aI3
aI17
aI3
aI1
aI3
aI1
aI1
aI1
aI3
aI3
aI1
aI6
aI3
aI1
aI1
aI43
aI3
aI14
aI1
aI2
aI1
aI1
aI6
aI28
aI3
aI17
aI1
aI1
aI3
aI6
aI18
aI3
aI17
aI15
aI50
aI11
aI5
aI1
aI1
aI1
aI12
aI1
aI21
aI1
aI3
aI3
aI1
aI3
aI4
aI3
aI1
aI17
aI17
aI20
aI25
aI1
aI1
aI1
aI1
aI3
aI42
aI3
aI1
aI5
aI3
aI12
aI33
aI7
aI9
aI7
aI20
aI1
aI3
aI17
aI1
aI3
aI17
aI8
aI17
aI1
aI1
aI1
aI1
aI3
aI3
aI1
aI3
aI17
aI1
aI1
aI3
aI31
aI5
aI18
aI17
aI3
aI17
aI16
aI17
aI3
aI3
aI7
aI1
aI7
aI10
aI1
aI1
aI17
aI70
aI5
aI1
aI1
aI1
aI7
aI3
aI27
aI7
aI34
aI7
aI1
aI17
aI1
aI3
aI1
aI20
aI1
aI17
aI1
aI17
aI23
aI5
aI13
aI7
aI5
aI26
aI1
aI3
aI3
aI17
aI5
aI1
aI1
aI15
aI1
aI35
aI1
aI13
aI29
aI33
aI7
aI7
aI1
aI6
aI1
aI1
aI38
aI1
aI8
aI1
aI3
aI7
aI28
aI5
aI1
aI1
aI21
aI1
aI3
aI1
aI1
aI1
aI3
aI1
aI5
aI16
aI3
aI4
aI1
aI1
aI1
aI17
aI1
aI3
aI5
aI1
aI4
aI27
aI18
aI9
aI1
aI19
aI5
aI3
aI3
aI8
aI1
aI24
aI1
aI4
aI17
aI1
aI7
aI1
aI3
aI3
aI1
aI3
aI1
aI8
aI21
aI36
aI1
aI1
aI5
aI1
aI16
aI17
aI41
aI17
aI1
aI8
aI5
aI5
aI1
aI6
aI1
aI8
aI3
aI17
aI36
aI17
aI17
aI1
aI9
aI24
aI1
aI17
aI16
aI3
aI1
aI1
aI17
aI3
aI56
aI13
aI1
aI17
aI1
aI1
aI17
aI3
aI1
aI17
aI5
aI48
aI3
aI17
aI14
aI7
aI19
aI1
aI23
aI17
aI5
aI1
aI5
aI1
aI26
aI1
aI3
aI21
aI30
aI2
aI1
aI1
aI1
aI8
aI1
aI7
aI34
aI8
aI17
aI38
aI20
aI17
aI1
aI15
aI1
aI3
aI3
aI3
aI1
aI45
aI17
aI1
aI13
aI26
aI5
aI1
aI3
aI1
aI1
aI3
aI3
aI1
aI8
aI3
aI11
aI1
aI19
aI50
aI1
aI26
aI3
aI3
aI1
aI4
aI3
aI1
aI3
aI15
aI2
aI5
aI5
aI1
aI3
aI1
aI1
aI3
aI17
aI66
aI3
aI1
aI26
aI1
aI1
aI3
aI1
aI15
aI3
aI17
aI3
aI3
aI3
aI2
aI1
aI1
aI1
aI1
aI1
aI3
aI19
aI17
aI23
aI1
aI7
aI1
aI1
aI7
aI1
aI1
aI3
aI1
aI1
aI17
aI17
aI3
aI1
aI3
aI5
aI3
aI1
aI10
aI3
aI11
aI5
aI1
aI3
aI33
aI1
aI33
aI1
aI3
aI1
aI67
aI5
aI1
aI1
aI1
aI1
aI1
aI17
aI4
aI20
aI3
aI20
aI7
aI1
aI3
aI1
aI1
aI39
aI17
aI4
aI1
aI1
aI1
aI17
aI1
aI1
aI17
aI1
aI1
aI1
aI3
aI1
aI17
aI1
aI1
aI1
aI1
aI1
aI1
aI21
aI1
aI17
aI1
aI5
aI1
aI17
aI1
aI6
aI7
aI1
aI1
aI71
aI1
aI13
aI3
aI1
asS'times'
p5
(lp6
F16.23896813392639
aF35.740947008132935
aF16.703691959381104
aF40.301352977752686
aF23.782593965530396
aF104.69995522499084
aF27.063978910446167
aF15.897799968719482
aF42.112492084503174
aF15.704298973083496
aF19.43116807937622
aF47.09018516540527
aF22.5278959274292
aF117.92385697364807
aF17.007247924804688
aF27.425796031951904
aF100.46281886100769
aF18.361720085144043
aF59.139756202697754
aF25.207154989242554
aF16.28811502456665
aF154.92491102218628
aF82.34757781028748
aF49.07237005233765
aF17.539350032806396
aF18.116219997406006
aF21.7875919342041
aF27.64963984489441
aF85.41174411773682
aF26.64438796043396
aF17.09482979774475
aF70.74157094955444
aF24.955908060073853
aF69.65097498893738
aF26.23732089996338
aF105.87175393104553
aF17.67531681060791
aF25.94233798980713
aF43.02814817428589
aF36.71670079231262
aF16.21619701385498
aF46.23587107658386
aF15.987059116363525
aF19.335949182510376
aF27.77177596092224
aF58.59086585044861
aF29.028976917266846
aF28.510279893875122
aF39.83428502082825
aF65.1733078956604
aF28.00366497039795
aF21.337120056152344
aF27.475273847579956
aF36.480847120285034
aF19.135583877563477
aF19.22882390022278
aF33.39796018600464
aF38.56491208076477
aF24.4806809425354
aF38.75180101394653
aF26.06306290626526
aF19.429041862487793
aF33.4195990562439
aF37.92037105560303
aF18.228142976760864
aF29.180747985839844
aF18.72460103034973
aF39.00985598564148
aF36.12202501296997
aF26.91745400428772
aF17.992025136947632
aF77.76865100860596
aF43.557295083999634
aF175.12094807624817
aF16.986734867095947
aF15.953724145889282
aF44.0558397769928
aF93.4257001876831
aF18.768046140670776
aF31.52016282081604
aF24.613996028900146
aF14.926849842071533
aF33.722909927368164
aF68.07659196853638
aF17.21390700340271
aF200.34496402740479
aF25.638468027114868
aF24.957201957702637
aF101.23723196983337
aF68.73306798934937
aF16.35667109489441
aF58.051207065582275
aF26.430377960205078
aF20.021133184432983
aF16.365154027938843
aF38.167052030563354
aF20.837241172790527
aF16.165805101394653
aF23.24599289894104
aF29.682826042175293
aF17.988625049591064
aF18.516287088394165
aF16.730483055114746
aF79.8442280292511
aF67.77190589904785
aF16.22241711616516
aF26.48862099647522
aF40.57667684555054
aF17.11759114265442
aF32.64456391334534
aF53.533451080322266
aF17.771785974502563
aF86.9560899734497
aF25.75081491470337
aF19.759861946105957
aF27.781894207000732
aF118.43143510818481
aF27.184140920639038
aF36.37825894355774
aF33.99538016319275
aF84.33465313911438
aF39.57842803001404
aF24.744906902313232
aF34.19066095352173
aF49.374289989471436
aF56.63010001182556
aF15.937639951705933
aF48.92491579055786
aF16.06963014602661
aF31.728936910629272
aF36.706154108047485
aF39.14892387390137
aF43.111133098602295
aF22.684778928756714
aF41.75459098815918
aF27.94082808494568
aF76.61244797706604
aF38.27371788024902
aF17.955541133880615
aF108.33622789382935
aF19.713431119918823
aF38.60142993927002
aF18.216477870941162
aF81.0422580242157
aF18.020771980285645
aF16.060847997665405
aF26.07378101348877
aF17.744770050048828
aF15.347622871398926
aF73.89276695251465
aF83.01031422615051
aF155.43189001083374
aF17.09112000465393
aF17.987631797790527
aF17.79701805114746
aF44.0123450756073
aF38.94584798812866
aF19.13419485092163
aF16.638684034347534
aF17.974689960479736
aF35.441823959350586
aF65.44475412368774
aF25.348415851593018
aF90.8915798664093
aF26.56236982345581
aF17.254917860031128
aF16.104026079177856
aF43.17101001739502
aF19.62092399597168
aF23.158290147781372
aF26.180819034576416
aF15.058771848678589
aF44.87764501571655
aF20.466781854629517
aF111.12556791305542
aF85.06670498847961
aF19.916154861450195
aF33.96671485900879
aF24.97403597831726
aF41.14634609222412
aF116.57491207122803
aF71.93415999412537
aF19.189250946044922
aF31.88371205329895
aF51.2501060962677
aF191.38348293304443
aF92.49388194084167
aF35.78116416931152
aF74.72750306129456
aF41.87794780731201
aF17.502701997756958
aF23.30229902267456
aF42.57962107658386
aF16.208473920822144
aF48.61710500717163
aF17.28818702697754
aF61.37083983421326
aF18.50982403755188
aF34.88506102561951
aF23.161805152893066
aF107.65315103530884
aF16.235105991363525
aF16.44697403907776
aF41.64899706840515
aF39.63816595077515
aF17.882390022277832
aF17.01779580116272
aF21.79614281654358
aF24.40411400794983
aF33.85389018058777
aF27.226108074188232
aF17.653337955474854
aF16.520838022232056
aF40.87508702278137
aF18.407544136047363
aF210.43678092956543
aF48.1015989780426
aF26.683865070343018
aF66.56501007080078
aF31.605024099349976
aF115.21536493301392
aF17.002532958984375
aF44.46738815307617
aF87.58512806892395
aF18.650376796722412
aF26.881378173828125
aF17.67491102218628
aF18.321517944335938
aF66.11770009994507
aF17.502893924713135
aF41.264792919158936
aF24.500110149383545
aF18.029839038848877
aF47.659034967422485
aF16.801927089691162
aF38.289544105529785
aF27.875570058822632
aF38.69219994544983
aF50.653908014297485
aF230.5208649635315
aF25.110836029052734
aF35.98271703720093
aF37.954160928726196
aF36.86513590812683
aF38.09799098968506
aF20.33485698699951
aF24.402987957000732
aF153.96031308174133
aF95.3665030002594
aF22.31091809272766
aF60.49903893470764
aF208.64603900909424
aF82.55325198173523
aF17.213683128356934
aF15.629302978515625
aF88.55831289291382
aF54.33850884437561
aF19.005819082260132
aF16.979996919631958
aF61.22311592102051
aF19.35327410697937
aF17.731518983840942
aF34.92320513725281
aF34.9580180644989
aF20.79317283630371
aF31.35361409187317
aF148.70718693733215
aF27.929432153701782
aF61.22572302818298
aF23.210754871368408
aF101.11385703086853
aF35.913979053497314
aF21.478767156600952
aF15.74683403968811
aF16.482505083084106
aF75.94801998138428
aF33.31651496887207
aF20.80813193321228
aF16.994782209396362
aF30.310646057128906
aF39.45237493515015
aF24.675944805145264
aF19.2263240814209
aF84.06311702728271
aF101.89771699905396
aF39.363627910614014
aF36.21111798286438
aF38.22514986991882
aF25.103814840316772
aF47.54433798789978
aF111.9582588672638
aF41.17216086387634
aF43.02812218666077
aF23.64411687850952
aF99.6916069984436
aF21.924020051956177
aF33.908255100250244
aF28.1647629737854
aF18.21982192993164
aF58.01151204109192
aF16.532480001449585
aF75.22008800506592
aF17.40419888496399
aF25.6929349899292
aF92.88865804672241
aF25.441616773605347
aF97.725417137146
aF17.953204870224
aF14.193835020065308
aF21.08133292198181
aF43.0600221157074
aF148.081533908844
aF25.748076915740967
aF17.376816034317017
aF84.68085408210754
aF27.64829397201538
aF147.04772806167603
aF114.52177619934082
aF16.54649806022644
aF16.053428888320923
aF15.156364917755127
aF44.94286894798279
aF26.92280912399292
aF112.06130385398865
aF15.330437898635864
aF23.41832709312439
aF20.41820001602173
aF25.62023687362671
aF15.723212957382202
aF44.88709592819214
aF302.453106880188
aF36.74321794509888
aF17.15630006790161
aF18.20666193962097
aF220.49643206596375
aF39.59672784805298
aF27.925389051437378
aF43.100769996643066
aF28.606873989105225
aF99.490473985672
aF17.188410997390747
aF75.23063206672668
aF21.551113843917847
aF153.62116503715515
aF17.5935001373291
aF187.62382698059082
aF196.97533082962036
aF83.447096824646
aF16.756223917007446
aF38.812122106552124
aF32.65496611595154
aF35.46648907661438
aF121.86394691467285
aF21.64404296875
aF55.91452598571777
aF35.24519896507263
aF43.638777017593384
aF55.774630069732666
aF97.13896489143372
aF42.42465305328369
aF15.618710041046143
aF26.12058997154236
aF26.023422956466675
aF39.33385109901428
aF16.44254493713379
aF68.37386107444763
aF19.283282041549683
aF39.67953896522522
aF29.675716876983643
aF32.6719491481781
aF21.461931943893433
aF19.695024967193604
aF40.010995864868164
aF17.460908889770508
aF15.916522979736328
aF19.567713975906372
aF107.02062797546387
aF16.481562852859497
aF38.16267490386963
aF23.917103052139282
aF41.46324396133423
aF15.859730005264282
aF40.5471830368042
aF22.912817001342773
aF15.213379144668579
aF84.3237521648407
aF20.576269149780273
aF15.883826971054077
aF110.13285803794861
aF54.49341797828674
aF37.73582100868225
aF34.611809968948364
aF18.30490207672119
aF48.46160101890564
aF17.564439058303833
aF141.06506896018982
aF24.483874082565308
aF37.405576944351196
aF42.03524899482727
aF19.893431901931763
aF18.2816059589386
aF22.588119983673096
aF44.89972996711731
aF27.30816102027893
aF22.665998935699463
aF51.432666063308716
aF20.27041006088257
aF25.577823877334595
aF17.154824018478394
aF15.336540222167969
aF15.914735078811646
aF24.388322114944458
aF113.32358908653259
aF41.76735210418701
aF163.1177659034729
aF34.9688720703125
aF23.751839876174927
aF35.31769585609436
aF15.671666145324707
aF86.88647603988647
aF41.50981783866882
aF101.75207805633545
aF37.77546000480652
aF74.25424695014954
aF91.00222706794739
aF17.889641046524048
aF17.337599992752075
aF16.39669394493103
aF39.81947302818298
aF34.19437503814697
aF75.84794592857361
aF35.14286279678345
aF25.302147150039673
aF17.924649953842163
aF18.13440704345703
aF301.7969880104065
aF37.43195390701294
aF44.20375394821167
aF27.21767497062683
aF23.62407898902893
aF45.05320906639099
aF19.42214798927307
aF16.37654685974121
aF62.40910196304321
aF35.44904899597168
aF15.016520023345947
aF17.767269134521484
aF57.16817808151245
aF24.452799081802368
aF16.793075799942017
aF17.141622066497803
aF43.05512189865112
aF27.584741830825806
aF18.68403911590576
aF34.35897397994995
aF38.8139910697937
aF19.700608015060425
aF16.247308015823364
aF74.9321608543396
aF17.180330991744995
aF43.0746328830719
aF19.244521141052246
aF25.417007207870483
aF16.02717113494873
aF19.06687903404236
aF20.209146976470947
aF57.39664006233215
aF23.223554849624634
aF53.36561894416809
aF23.10491394996643
aF29.252686023712158
aF15.963449954986572
aF19.851646900177002
aF24.07959008216858
aF17.57608985900879
aF18.482640981674194
aF55.42499399185181
aF41.39684987068176
aF26.04363703727722
aF21.089635848999023
aF16.608675003051758
aF45.135782957077026
aF136.40530109405518
aF18.3230140209198
aF55.2245090007782
aF40.53159189224243
aF25.95988392829895
aF17.268598794937134
aF17.485172033309937
aF17.34326982498169
aF28.932805061340332
aF20.256713151931763
aF40.29355001449585
aF79.06201004981995
aF36.37593603134155
aF83.55138993263245
aF16.69635796546936
aF99.59086298942566
aF38.15680813789368
aF117.69626593589783
aF18.947282075881958
aF31.67761492729187
aF18.944996118545532
aF17.281787157058716
aF17.86956810951233
aF18.29543900489807
aF38.86574101448059
aF24.441812992095947
aF16.433155059814453
aF57.37041997909546
aF37.88249206542969
aF45.692352056503296
aF17.671329021453857
aF16.706511974334717
aF29.19978404045105
aF24.69921898841858
aF84.18768382072449
aF18.092204809188843
aF143.72449493408203
aF33.21070885658264
aF33.17432618141174
aF17.083425045013428
aF111.40783381462097
aF25.27956795692444
aF32.29016184806824
aF47.22180914878845
aF120.883455991745
aF21.12201189994812
aF41.58880305290222
aF26.210489988327026
aF89.93556094169617
aF16.333844900131226
aF19.574427127838135
aF41.29584789276123
aF51.82787799835205
aF18.245450019836426
aF19.032020092010498
aF16.795330047607422
aF21.924983024597168
aF19.18138098716736
aF132.06977200508118
aF39.68120813369751
aF69.50038194656372
aF17.577883005142212
aF18.298743963241577
aF17.3856098651886
aF16.970083951950073
aF19.13208293914795
aF60.802424907684326
aF41.96419382095337
aF42.028810024261475
aF41.601665019989014
aF41.7750940322876
aF38.87312293052673
aF110.59121203422546
aF25.29821515083313
aF52.693979024887085
aF31.328500986099243
aF22.19903302192688
aF58.304829120635986
aF27.543527126312256
aF39.26422691345215
aF32.35923480987549
aF35.056020975112915
aF17.962687969207764
aF39.554587841033936
aF17.36883306503296
aF25.709758043289185
aF37.437204122543335
aF16.234435081481934
aF17.71248197555542
aF164.39630508422852
aF63.78079605102539
aF43.60409116744995
aF26.087714910507202
aF27.286678075790405
aF73.93580389022827
aF30.008320808410645
aF62.600602865219116
aF15.655627012252808
aF18.608537912368774
aF43.091033935546875
aF117.49575805664062
aF17.54005002975464
aF42.297383069992065
aF36.463226079940796
aF37.782480001449585
aF15.04790186882019
aF31.333581924438477
aF17.874194860458374
aF27.255994081497192
aF17.189231157302856
aF24.70938992500305
aF44.63302993774414
aF21.957618951797485
aF44.70188307762146
aF43.35224199295044
aF27.25405216217041
aF38.96616196632385
aF39.38705110549927
aF39.276822090148926
aF28.176409006118774
aF15.717959880828857
aF146.82461500167847
aF28.485464096069336
aF24.869650840759277
aF24.851776838302612
aF43.394428968429565
aF29.661821126937866
aF44.65131187438965
aF151.98178887367249
aF49.19630002975464
aF25.84517192840576
aF15.743629217147827
aF19.92400884628296
aF27.341334104537964
aF41.06508803367615
aF25.797639846801758
aF69.04953908920288
aF302.1873381137848
aF31.856932878494263
aF20.959512948989868
aF107.54660701751709
aF30.588740825653076
aF27.044123888015747
aF39.51357102394104
aF56.25793099403381
aF35.28566598892212
aF26.84897494316101
aF20.07458782196045
aF25.758559942245483
aF18.476009130477905
aF16.403401851654053
aF247.08771514892578
aF36.1019651889801
aF94.96553301811218
aF43.00497579574585
aF16.854241132736206
aF21.921102046966553
aF28.06900691986084
aF19.688922882080078
aF44.33732986450195
aF22.79893708229065
aF15.899588823318481
aF17.691032886505127
aF234.63736701011658
aF15.582157850265503
aF38.03235387802124
aF99.16873598098755
aF196.68201303482056
aF18.970617055892944
aF120.13228988647461
aF26.562441110610962
aF27.644827842712402
aF46.09423613548279
aF18.11927604675293
aF17.766475915908813
aF35.82327604293823
aF24.718162059783936
aF22.412927865982056
aF49.168911933898926
aF17.743474006652832
aF41.583821058273315
aF17.51100993156433
aF23.447337865829468
aF27.505865812301636
aF16.86978793144226
aF17.84186291694641
aF20.04999303817749
aF26.44894790649414
aF38.484885931015015
aF56.39178013801575
aF20.064653873443604
aF18.042525053024292
aF17.747289180755615
aF100.39964509010315
aF25.813203811645508
aF47.442888021469116
aF32.23500895500183
aF167.64290404319763
aF156.8335690498352
aF134.38014793395996
aF26.582818031311035
aF47.679949045181274
aF17.626904010772705
aF19.44877815246582
aF19.485562086105347
aF199.04629397392273
aF73.08207893371582
aF33.176624059677124
aF16.045252084732056
aF17.021020889282227
aF93.36266303062439
aF19.042134046554565
aF15.553807973861694
aF32.36534309387207
aF15.041939973831177
aF85.48280620574951
aF74.53245401382446
aF28.645405054092407
aF60.632619857788086
aF34.152527809143066
aF26.750797986984253
aF26.480338096618652
aF49.98501491546631
aF18.595090866088867
aF89.8134069442749
aF21.057002067565918
aF35.39354109764099
aF22.485370874404907
aF37.06991100311279
aF16.83197808265686
aF22.607234001159668
aF42.17047309875488
aF21.94112801551819
aF24.975605010986328
aF19.266042947769165
aF17.881398916244507
aF36.40265393257141
aF22.851260900497437
aF44.76800489425659
aF42.74486804008484
aF17.635483026504517
aF25.678481101989746
aF117.3844211101532
aF20.991294860839844
aF51.61678194999695
aF30.329031944274902
aF15.844995975494385
aF26.251556158065796
aF19.49223303794861
aF29.285371780395508
aF25.21442699432373
aF46.243956089019775
aF17.419088125228882
aF113.00611090660095
aF17.334141969680786
aF17.184262990951538
aF57.397456884384155
aF82.45870804786682
aF16.29878282546997
aF36.0590980052948
aF21.597642183303833
aF19.57588505744934
aF15.602288007736206
aF17.05710792541504
aF15.870535135269165
aF61.863656997680664
aF18.647634983062744
aF41.46344304084778
aF29.67262291908264
aF34.38817501068115
aF54.36586904525757
aF36.7618088722229
aF18.089285135269165
aF34.78450083732605
aF17.782773971557617
aF18.214776039123535
aF17.64939308166504
aF16.863168001174927
aF40.666308879852295
aF17.736935138702393
aF16.747514963150024
aF38.789783000946045
aF35.72687101364136
aF100.69227600097656
aF86.5343611240387
aF40.285521030426025
aF26.609730005264282
aF109.61587810516357
aF16.830511808395386
aF48.01484489440918
aF47.55123996734619
aF45.45724701881409
aF18.155144929885864
aF37.061630964279175
aF38.576701164245605
aF32.8706259727478
aF39.56396198272705
aF41.27465009689331
aF75.99861598014832
aF22.387362957000732
aF25.737436056137085
aF25.77803897857666
aF16.3764750957489
aF16.286254167556763
aF83.2740330696106
aF16.45013999938965
aF21.250618934631348
aF29.297656059265137
aF56.330374002456665
aF20.088291883468628
aF37.1512770652771
aF31.806862115859985
aF79.31855607032776
aF36.0312180519104
aF102.1500289440155
aF29.19801902770996
aF17.177007913589478
aF19.62090492248535
aF17.96777319908142
aF52.78680396080017
aF17.459057807922363
aF64.26259207725525
aF18.689264059066772
aF20.873584985733032
aF23.441160917282104
aF41.99380111694336
aF55.17813301086426
aF18.39636993408203
aF83.53793406486511
aF31.913233041763306
aF17.4930579662323
aF21.570586919784546
aF20.240599870681763
aF35.4120090007782
aF101.77536702156067
aF44.190622091293335
aF37.484596967697144
aF53.81935906410217
aF37.01655697822571
aF43.317543029785156
aF19.688093900680542
aF48.234488010406494
aF23.3953959941864
aF17.67311692237854
aF41.6248881816864
aF29.07014298439026
aF32.469436168670654
aF24.56618905067444
aF18.365696907043457
aF43.39006996154785
aF27.788944959640503
aF109.21249604225159
aF81.07807278633118
aF16.69779396057129
aF20.28676199913025
aF34.936397075653076
aF85.65519404411316
aF26.864881992340088
aF18.383057832717896
aF18.030714988708496
aF25.47282600402832
aF39.959306955337524
aF27.230578899383545
aF21.93741011619568
aF119.9495120048523
aF20.098287105560303
aF18.96117901802063
aF18.112430810928345
aF17.427701950073242
aF42.7037239074707
aF46.56033802032471
aF19.120293855667114
aF22.529972076416016
aF18.49991202354431
aF113.17725396156311
aF201.72446703910828
aF258.6671540737152
aF49.479793071746826
aF30.050981998443604
aF77.02953720092773
aF17.432440042495728
aF41.248284101486206
aF40.643965005874634
aF86.37884616851807
aF17.882730960845947
aF19.766525983810425
aF30.26629614830017
aF42.37065410614014
aF85.86857390403748
aF36.54799699783325
aF26.62380599975586
aF46.684998989105225
aF32.14060306549072
aF40.829153060913086
aF76.5149757862091
aF25.254255056381226
aF17.157411098480225
aF59.39748191833496
aF58.402782917022705
aF103.24302005767822
aF17.59218192100525
aF41.56707000732422
aF16.870472192764282
aF31.204272031784058
aF58.69908094406128
aF77.6017119884491
aF49.35788011550903
aF48.87548303604126
aF47.44220519065857
aF26.718276977539062
aF55.525636196136475
aF56.34677791595459
aF84.67919898033142
aF44.06468391418457
aF71.42300605773926
aF26.14209294319153
aF34.210318088531494
aF130.38031315803528
aF17.289494037628174
aF16.68178105354309
aF30.1409010887146
aF61.942237854003906
aF16.96127486228943
aF16.953691959381104
aF78.44348502159119
aF100.14319682121277
aF16.301071882247925
aF25.865036010742188
aF151.4890329837799
aF18.190542936325073
aF17.835406064987183
aF24.358407020568848
aF37.84173607826233
aF18.913755893707275
aF95.27532410621643
aF54.32577705383301
aF21.712410926818848
aF29.531069040298462
aF29.30428695678711
aF36.915210008621216
aF27.575072050094604
aF37.29160404205322
aF70.78955698013306
aF34.49660587310791
aF18.68047308921814
aF17.746835947036743
aF49.5461208820343
aF20.20085883140564
aF16.777229070663452
aF22.61016607284546
aF97.74717807769775
aF18.070164918899536
aF40.45656704902649
aF36.92871713638306
aF43.73435091972351
aF54.72556519508362
aF17.46290111541748
aF44.12626099586487
aF21.42882490158081
aF42.61922883987427
aF17.72011399269104
aF27.728398084640503
aF16.039608001708984
aF27.83162498474121
aF26.11103916168213
aF39.003134965896606
aF15.466736793518066
aF46.02258801460266
aF17.558547019958496
aF38.548399925231934
aF18.197438955307007
aF62.21886491775513
aF19.37429118156433
aF37.52052307128906
aF65.7277021408081
aF18.084161043167114
aF20.567870140075684
aF38.99029207229614
aF47.672423124313354
aF38.82238507270813
aF22.996073007583618
aF232.60572004318237
aF45.96683478355408
aF39.95504093170166
aF16.993912935256958
aF45.232407093048096
aF19.322287797927856
aF40.06452989578247
aF28.57206916809082
aF33.02108597755432
aF15.46381688117981
aF79.31315088272095
aF130.01278400421143
aF32.734261989593506
aF68.30117988586426
aF17.88852596282959
aF16.185450077056885
aF41.20643901824951
aF23.483103036880493
aF127.46923017501831
aF37.92649602890015
aF24.950746059417725
aF33.62608790397644
aF39.0122389793396
aF146.4338719844818
aF41.08764910697937
aF250.69025301933289
aF27.645360946655273
aF15.27652382850647
aF107.44123315811157
aF34.357138872146606
aF27.09123396873474
aF51.527719020843506
aF27.68931293487549
aF16.317211151123047
aF16.875431060791016
aF39.74717712402344
aF29.206995964050293
aF77.5191011428833
aF42.4825439453125
aF45.191001892089844
aF26.865232944488525
aF25.53015398979187
aF21.917649030685425
aF21.692223072052002
aF229.67058992385864
aF23.50000309944153
aF39.49239492416382
aF32.29045391082764
aF27.39618706703186
aF58.31612491607666
aF143.4633378982544
aF53.280635833740234
aF33.20305013656616
aF15.933825969696045
aF42.01168417930603
aF238.34730291366577
aF18.993112087249756
aF24.90675401687622
aF46.229490995407104
aF91.30164790153503
aF19.076783895492554
aF18.171356916427612
aF45.23500108718872
aF18.634150981903076
aF26.23494601249695
aF23.176310062408447
aF24.22022294998169
aF151.9728879928589
aF115.64714694023132
aF19.35416579246521
aF24.246644973754883
aF30.881814002990723
aF98.65277695655823
aF60.80708193778992
aF17.36886191368103
aF27.610322952270508
aF23.133965015411377
aF18.540889024734497
aF36.62804913520813
aF44.38429617881775
aF34.306089878082275
aF17.102510929107666
aF46.7037239074707
aF17.97234296798706
aF61.7502601146698
aF31.63415002822876
aF42.24382710456848
aF65.46121191978455
aF39.963114976882935
aF20.75425100326538
aF22.82456684112549
aF20.482380867004395
aF88.71586012840271
aF16.654661893844604
aF42.05799889564514
aF83.83279800415039
aF83.73689579963684
aF17.376056909561157
aF94.32122111320496
aF38.682015895843506
aF17.950282096862793
aF27.61192798614502
aF15.674556970596313
aF15.256088972091675
aF17.20062494277954
aF22.96784806251526
aF44.84514880180359
aF32.39955997467041
aF96.04425597190857
aF26.643529891967773
aF27.06271195411682
aF37.403144121170044
aF131.47356510162354
aF70.96878910064697
aF54.57271599769592
aF25.46680212020874
aF17.974363088607788
aF16.69325017929077
aF88.51593399047852
aF41.47337508201599
aF16.405477046966553
aF53.198923110961914
aF27.511165142059326
aF26.99803614616394
aF17.833225965499878
aF37.81823420524597
aF113.09217810630798
aF26.27029013633728
aF22.980059146881104
aF21.98300290107727
aF89.05969214439392
aF18.87257194519043
aF44.178438901901245
aF44.19554305076599
aF18.714704990386963
aF33.31360983848572
aF44.53762197494507
aF23.474885940551758
aF97.68985104560852
aF28.043049097061157
aF37.67404818534851
aF24.199538946151733
aF36.30696487426758
aF76.21225309371948
aF57.002654790878296
aF23.43940806388855
aF22.657577991485596
aF276.6436948776245
aF39.127208948135376
aF25.32500910758972
aF49.01917290687561
aF52.85733914375305
aF48.17160391807556
aF44.723528146743774
aF17.856738090515137
aF40.33080196380615
aF119.8672239780426
aF30.48562502861023
aF18.00847601890564
aF18.09611988067627
aF15.821105003356934
aF17.4509539604187
aF64.96612906455994
aF16.869273900985718
aF35.979626178741455
aF16.698365926742554
aF18.816730976104736
aF17.485591888427734
aF80.26897287368774
aF85.08977603912354
aF43.11398196220398
aF17.825767040252686
aF50.560030937194824
aF31.12033486366272
aF32.021677017211914
aF37.00166893005371
aF17.592866897583008
aF45.5798978805542
aF16.126588106155396
aF17.598603010177612
aF31.075906991958618
aF61.13453006744385
aF31.359966039657593
aF31.764339923858643
aF40.858638048172
aF125.6041510105133
aF19.80016016960144
aF17.064368963241577
aF16.172073125839233
aF92.12252497673035
aF23.43276596069336
aF16.62983512878418
aF25.525592803955078
aF83.96478199958801
aF25.583720922470093
aF26.821063995361328
aF17.872031927108765
aF57.22850012779236
aF17.05436396598816
aF40.118687868118286
aF37.915241956710815
aF28.886937856674194
aF15.856213808059692
aF292.25637197494507
aF15.080606937408447
aF55.64655423164368
aF66.56560397148132
aF18.22408699989319
aF61.03869414329529
aF24.435065031051636
aF40.87927603721619
aF42.33515501022339
aF212.10084104537964
aF18.35098695755005
aF105.84971189498901
aF29.35915994644165
aF24.51326012611389
aF24.04728388786316
aF37.064003229141235
aF19.825683116912842
aF51.069339990615845
aF69.45643305778503
aF16.58873987197876
aF89.78479290008545
aF32.203876972198486
aF42.95595908164978
aF37.42044401168823
aF35.22891306877136
aF24.33544397354126
aF17.784614086151123
aF19.500396966934204
aF15.520566940307617
aF16.589678049087524
aF17.680803060531616
aF36.361409187316895
aF97.31770300865173
aF19.48368501663208
aF17.66493797302246
aF29.493921995162964
aF55.52610898017883
aF39.91959595680237
aF41.82668995857239
aF36.14553189277649
aF40.49792981147766
aF53.08108305931091
aF26.75594687461853
aF62.11502480506897
aF88.31851315498352
aF40.242583990097046
aF30.419718027114868
aF121.84570097923279
aF17.97276997566223
aF95.90900897979736
aF56.878865003585815
aF19.668946027755737
aF50.66069197654724
aF25.447622060775757
aF23.85320496559143
aF68.20019602775574
aF30.20313000679016
aF19.657012939453125
aF19.446933031082153
aF24.29786515235901
aF59.48982286453247
aF25.020267009735107
aF58.913416147232056
aF27.715930938720703
aF27.982834100723267
aF18.547533988952637
aF65.47960305213928
aF45.38610887527466
aF191.89807415008545
aF17.72271490097046
aF52.93283700942993
aF56.06422305107117
aF17.626829147338867
aF16.458420991897583
aF42.49470114707947
aF23.767640113830566
aF24.66694188117981
aF22.974841117858887
aF17.908207893371582
aF28.967612981796265
aF68.8745231628418
aF29.499738931655884
aF18.103260040283203
aF66.57258796691895
aF14.692752122879028
aF213.62403202056885
aF56.920000076293945
aF19.565566062927246
aF38.829957008361816
aF38.235032081604004
aF17.475178003311157
aF16.158114910125732
aF39.37788200378418
aF39.31006908416748
aF23.955484867095947
aF136.189355134964
aF303.95090103149414
aF39.993157148361206
aF42.04017400741577
aF116.92323303222656
aF36.80437207221985
aF19.363332986831665
aF48.947479009628296
aF21.229600191116333
aF30.154110193252563
aF18.426923036575317
aF19.094446182250977
aF21.198461055755615
aF26.25460195541382
aF16.9259250164032
aF38.36688709259033
aF17.962220907211304
aF17.370730876922607
aF40.307116985321045
aF15.46440315246582
aF16.496816873550415
aF22.739126920700073
aF40.30106997489929
aF59.171091079711914
aF79.32075190544128
aF20.945663928985596
aF20.973517179489136
aF73.41717410087585
aF42.72847104072571
aF27.78697109222412
aF39.48789310455322
aF35.302826166152954
aF46.39204287528992
aF48.55394196510315
aF42.25983691215515
aF37.05845594406128
aF36.31999588012695
aF168.08905506134033
aF24.963776111602783
aF19.313780069351196
aF17.708750009536743
aF215.48492789268494
aF29.247682094573975
aF39.342767000198364
aF17.178555965423584
aF15.376114130020142
aF67.99756193161011
aF95.53083801269531
aF16.07073998451233
aF16.740259885787964
aF37.253010988235474
aF15.784162998199463
aF41.34030485153198
aF16.426934957504272
aF25.67649793624878
aF24.33625292778015
aF53.83069610595703
aF19.062830924987793
aF19.30135488510132
aF19.621471881866455
aF20.70557689666748
aF16.489423990249634
aF16.456483125686646
aF21.033819913864136
aF57.872600078582764
aF23.426651000976562
aF26.584489107131958
aF19.88790488243103
aF38.28619694709778
aF42.54853296279907
aF37.30460500717163
aF18.035876989364624
aF107.01412105560303
aF34.37539291381836
aF15.909759998321533
aF88.49364495277405
aF26.467237949371338
aF27.85789203643799
aF43.54560089111328
aF50.008508920669556
aF41.58493423461914
aF40.621625900268555
aF16.033348083496094
aF15.610527992248535
aF76.9288489818573
aF17.18983817100525
aF67.51564598083496
aF17.79905414581299
aF17.329756021499634
aF19.406352996826172
aF36.913055181503296
aF17.680103063583374
aF44.49758791923523
aF30.96134090423584
aF49.14257597923279
aF48.03121614456177
aF241.41229104995728
aF25.143035888671875
aF41.23172307014465
aF18.361948013305664
aF19.458055019378662
aF52.4599449634552
aF27.568187952041626
aF40.28646802902222
aF41.42525386810303
aF24.774878978729248
aF37.95291185379028
aF19.757558822631836
aF19.718097925186157
aF21.78724193572998
aF33.007832050323486
aF39.69280695915222
aF272.8349721431732
aF36.96129107475281
aF19.402554035186768
aF35.84417700767517
aF18.32210111618042
aF103.60943508148193
aF90.03202104568481
aF18.23807692527771
aF17.139725923538208
aF43.5824248790741
aF31.725876092910767
aF136.0195610523224
aF53.11422896385193
aF17.843618154525757
aF44.25492286682129
aF24.141177892684937
aF19.036473035812378
aF202.4374589920044
aF26.98463010787964
aF21.987597942352295
aF76.83649587631226
aF16.9385929107666
aF53.2468318939209
aF72.24251294136047
aF41.3096969127655
aF17.08562207221985
aF39.26605415344238
aF30.335711002349854
aF33.72908091545105
aF91.55736303329468
aF52.95778799057007
aF17.023473024368286
aF44.81643295288086
aF18.26631784439087
aF35.59342980384827
aF27.680824995040894
aF15.744271993637085
aF17.722408771514893
aF36.50748801231384
aF42.50775909423828
aF80.38316798210144
aF25.05445384979248
aF38.35879397392273
aF103.58888506889343
aF16.379930019378662
aF44.37799406051636
aF27.48460102081299
aF25.865644931793213
aF17.227725982666016
aF16.912517070770264
aF16.038856983184814
aF47.549410820007324
aF38.01418709754944
aF24.715137004852295
aF38.29700303077698
aF41.3110990524292
aF26.96590304374695
aF32.024129152297974
aF304.20384907722473
aF16.94071316719055
aF20.337517023086548
aF62.3172128200531
aF19.01851511001587
aF26.56372880935669
aF301.50369000434875
aF47.17364501953125
aF27.292593955993652
aF19.264572858810425
aF35.095311880111694
aF24.98637890815735
aF303.1782479286194
aF17.316239833831787
aF17.50671911239624
aF104.41648197174072
aF16.998701095581055
aF17.96150803565979
aF40.28729796409607
aF33.56551194190979
aF16.72593879699707
aF39.33005094528198
aF28.304476022720337
aF74.82968807220459
aF37.64930582046509
aF16.81336212158203
aF27.15568208694458
aF37.10189485549927
aF34.211700201034546
aF18.598018884658813
aF24.301727056503296
aF36.06313514709473
aF28.990751028060913
aF17.81738805770874
aF35.32245492935181
aF16.01796007156372
aF17.424774169921875
aF74.34883093833923
aF56.22373390197754
aF35.95151400566101
aF54.87592387199402
aF26.99960207939148
aF65.87326192855835
aF17.99820613861084
aF19.39515495300293
aF36.117875814437866
aF35.84945607185364
aF76.3863639831543
aF17.989785194396973
aF47.07320713996887
aF67.06766200065613
aF44.290220975875854
aF26.337712049484253
aF41.8619430065155
aF47.484524965286255
aF15.712849140167236
aF14.463257074356079
aF26.346034049987793
aF39.39780402183533
aF17.60827112197876
aF42.087342977523804
aF41.39770007133484
aF19.047200202941895
aF25.57899808883667
aF18.808629989624023
aF128.63468098640442
aF107.91407608985901
aF24.502119064331055
aF85.26447105407715
aF19.574724197387695
aF44.91695308685303
aF29.556344985961914
aF29.03404402732849
aF23.819664001464844
aF59.63575887680054
aF22.106566190719604
aF34.259881019592285
aF25.160176038742065
aF42.73539996147156
aF16.92161202430725
aF51.27633881568909
aF29.151833057403564
aF16.012655019760132
aF17.272674083709717
aF20.760579109191895
aF73.83847880363464
aF18.353641986846924
aF25.584348917007446
aF37.875638008117676
aF27.435100078582764
aF81.47796392440796
aF35.75765013694763
aF16.716300010681152
aF29.568613052368164
aF195.23760890960693
aF55.26468896865845
aF26.968797206878662
aF30.03921103477478
aF227.2043261528015
aF42.431499004364014
aF26.878802061080933
aF15.62475299835205
aF36.705326795578
aF45.961199045181274
aF27.767466068267822
aF19.019434928894043
aF17.0541889667511
aF17.362424850463867
aF48.31156301498413
aF18.72044086456299
aF16.634660959243774
aF18.907024145126343
aF26.6091148853302
aF40.05809020996094
aF30.35923409461975
aF34.14929389953613
aF38.660550117492676
aF16.21253800392151
aF67.26003289222717
aF33.538779973983765
aF19.77777409553528
aF41.47439885139465
aF25.009114980697632
aF28.387319803237915
aF49.30886697769165
aF18.95732307434082
aF25.83783197402954
aF29.25296711921692
aF24.302412033081055
aF16.671948194503784
aF35.4368360042572
aF25.730649948120117
aF24.98465585708618
aF74.48664402961731
aF56.6397430896759
aF39.98017907142639
aF26.05888295173645
aF102.29783892631531
aF74.9910819530487
aF37.61097502708435
aF24.65844202041626
aF18.330018997192383
aF151.22563290596008
aF17.430973052978516
aF69.02090001106262
aF20.099848985671997
aF59.288552045822144
aF32.57800507545471
aF26.62381410598755
aF17.788717031478882
aF19.02199387550354
aF17.061950206756592
aF16.578414916992188
aF40.248810052871704
aF27.716102838516235
aF42.47940707206726
aF39.00424909591675
aF102.81566214561462
aF44.29649996757507
aF53.88883399963379
aF17.334741830825806
aF18.957547903060913
aF40.24485778808594
aF25.13524889945984
aF140.40533590316772
aF53.30227303504944
aF51.04073190689087
aF21.367077112197876
aF16.283254146575928
aF17.06130886077881
aF15.601565837860107
aF18.04731297492981
aF93.4173731803894
aF130.7425181865692
aF24.451425075531006
aF41.09174704551697
aF39.20553112030029
aF37.45359802246094
aF14.873923063278198
aF96.55537796020508
aF15.455871105194092
aF35.94471597671509
aF87.39498615264893
aF20.2932710647583
aF39.78569507598877
aF52.16450810432434
aF20.151542901992798
aF27.41209602355957
aF16.124963998794556
aF34.71882390975952
aF37.51969599723816
aF41.03279209136963
aF32.82432794570923
aF18.000665187835693
aF17.197906017303467
aF17.054012775421143
aF24.797131061553955
aF84.62569308280945
aF25.500714778900146
aF24.467759132385254
aF20.12152600288391
aF39.19129395484924
aF26.6044979095459
aF73.91516399383545
aF16.758460998535156
aF92.02848100662231
aF17.978662967681885
aF37.70569109916687
aF29.514266967773438
aF45.03827905654907
aF17.280692100524902
aF36.63901114463806
aF15.72989296913147
aF16.294531106948853
aF17.61200499534607
aF17.860828161239624
aF93.17217803001404
aF38.24349308013916
aF16.07475209236145
aF17.571188926696777
aF15.280202865600586
aF21.700849056243896
aF16.155673027038574
aF19.372703075408936
aF25.785881996154785
aF16.347902059555054
aF68.25962495803833
aF25.315518856048584
aF83.34890699386597
aF18.488199949264526
aF37.31978392601013
aF26.153634071350098
aF17.10402011871338
aF35.57276892662048
aF86.44940090179443
aF36.97806406021118
aF16.54385495185852
aF18.384986877441406
aF17.06826114654541
aF25.06605291366577
aF36.569586992263794
aF21.612502098083496
aF23.140403985977173
aF53.51115894317627
aF17.07463312149048
aF16.700376987457275
aF24.53498411178589
aF16.13839316368103
aF27.048399925231934
aF51.97366499900818
aF16.125334978103638
aF89.65539693832397
aF24.857661962509155
aF18.631165981292725
aF218.41067600250244
aF99.39763498306274
aF18.745113134384155
aF80.69593501091003
aF51.55659794807434
aF45.33317995071411
aF17.131220817565918
aF17.169853925704956
aF21.47525691986084
aF19.498773097991943
aF16.673149824142456
aF16.812269926071167
aF20.180322885513306
aF40.490565061569214
aF20.23346209526062
aF26.36795210838318
aF27.68393301963806
aF17.76722502708435
aF17.920799016952515
aF34.60602283477783
aF58.68062686920166
aF18.608005046844482
aF50.10249590873718
aF33.00922703742981
aF188.2518060207367
aF30.95998191833496
aF77.76964998245239
aF20.44067692756653
aF16.991161108016968
aF39.01522493362427
aF20.252140045166016
aF47.05785894393921
aF44.391217947006226
aF16.226864099502563
aF83.10381007194519
aF16.843533992767334
aF39.73889684677124
aF36.345755100250244
aF16.632192850112915
aF18.19842791557312
aF35.82269096374512
aF48.67313599586487
aF17.478765964508057
aF40.336692094802856
aF39.92519402503967
aF29.49863600730896
aF103.545578956604
aF20.705183029174805
aF14.680379867553711
aF21.46968913078308
aF77.24715089797974
aF22.92945885658264
aF28.446951150894165
aF92.13520193099976
aF41.737229108810425
aF25.38224983215332
aF17.315920114517212
aF54.09834694862366
aF16.983110904693604
aF37.296945095062256
aF39.61711406707764
aF17.0899600982666
aF27.463404178619385
aF26.48561406135559
aF16.480738162994385
aF16.306835889816284
aF16.123329877853394
aF16.794384002685547
aF19.47801899909973
aF33.864530086517334
aF67.30391716957092
aF58.80923414230347
aF77.30125308036804
aF19.903636932373047
aF42.34605693817139
aF300.8702108860016
aF56.26041603088379
aF38.75642395019531
aF38.50895690917969
aF35.88368201255798
aF41.38563585281372
aF19.31570792198181
aF33.406298875808716
aF147.6882209777832
aF42.801125049591064
aF100.85022497177124
aF19.24954390525818
aF24.345919132232666
aF42.396600008010864
aF18.19037103652954
aF17.577306985855103
aF74.41747188568115
aF17.47859811782837
aF34.484760999679565
aF17.696614980697632
aF19.450363159179688
aF67.30917406082153
aF20.884294986724854
aF19.151115894317627
aF55.07460594177246
aF70.73747897148132
aF38.064860105514526
aF18.150776147842407
aF125.1739559173584
aF82.30875706672668
aF16.014696836471558
aF19.319108963012695
aF15.689558982849121
aF21.155395030975342
aF24.70061707496643
aF104.5775499343872
aF16.341655015945435
aF151.59622502326965
aF18.377193927764893
aF17.180483102798462
aF18.976603984832764
aF24.059890031814575
aF25.06413197517395
aF135.82211804389954
aF29.54568910598755
aF18.08099102973938
aF26.002787113189697
aF84.52484917640686
aF85.7336118221283
aF32.30678105354309
aF16.82220697402954
aF41.85369682312012
aF39.68813109397888
aF19.636538982391357
aF19.93817400932312
aF132.09204506874084
aF18.537245988845825
aF25.000991106033325
aF123.3892810344696
aF47.05943489074707
aF21.144647121429443
aF38.52467203140259
aF90.28265810012817
aF60.004233837127686
aF18.86781096458435
aF21.774709224700928
aF103.40540504455566
aF15.395452976226807
aF41.54474377632141
aF16.807590007781982
aF41.471638917922974
aF28.61603307723999
aF75.73463296890259
aF26.347182989120483
aF39.89792609214783
aF28.697472095489502
aF81.0680661201477
aF24.90224814414978
aF58.48317813873291
aF19.585998058319092
aF31.96085500717163
aF19.58724594116211
aF98.2014331817627
aF16.820999145507812
aF38.13059997558594
aF16.043565034866333
aF35.36065602302551
aF16.173915147781372
aF25.53070902824402
aF28.38298511505127
aF16.97270703315735
aF21.881595849990845
aF15.667030811309814
aF63.49090218544006
aF20.056879997253418
aF16.479187965393066
aF59.41943979263306
aF18.05717921257019
aF30.362626791000366
aF32.77918100357056
aF26.96323013305664
aF31.66538405418396
aF27.30174207687378
aF16.98401713371277
aF71.31996011734009
aF33.919265031814575
aF18.1477370262146
aF16.027278900146484
aF67.76792812347412
aF19.494760990142822
aF27.048052072525024
aF17.400673866271973
aF19.395634174346924
aF87.37340688705444
aF27.201658010482788
aF105.22007608413696
aF46.88759207725525
aF61.78744292259216
aF15.392374992370605
aF24.89781904220581
aF30.347310066223145
aF26.586178064346313
aF47.74327087402344
aF38.87557911872864
aF49.62617206573486
aF30.66833209991455
aF62.46536684036255
aF75.58966612815857
aF39.87686610221863
aF26.317461013793945
aF131.89395189285278
aF96.05071496963501
aF16.591248989105225
aF17.156867027282715
aF17.21281409263611
aF27.94605803489685
aF110.97079586982727
aF104.66749882698059
aF35.77650499343872
aF49.90409803390503
aF20.047318935394287
aF27.51801109313965
aF36.49974703788757
aF41.12423896789551
aF49.968137979507446
aF19.478981971740723
aF39.11428117752075
aF33.9432909488678
aF28.41003704071045
aF84.89246010780334
aF16.74032187461853
aF73.65329909324646
aF16.510585069656372
aF17.32703995704651
aF38.571534156799316
aF26.911195039749146
aF15.6805739402771
aF16.86426281929016
aF17.82228112220764
aF20.27975821495056
aF19.203240156173706
aF71.73376798629761
aF51.47152805328369
aF21.90767502784729
aF19.018460988998413
aF40.22520995140076
aF41.263928174972534
aF38.6590940952301
aF22.787796020507812
aF17.031741857528687
aF16.659131050109863
aF34.86717677116394
aF14.99858808517456
aF149.7994167804718
aF69.37542700767517
aF25.93099808692932
aF25.439054012298584
aF18.409921169281006
aF27.521563053131104
aF30.908793926239014
aF18.56323790550232
aF27.352447032928467
aF58.5618839263916
aF70.70831179618835
aF24.62869906425476
aF64.4118070602417
aF41.15944314002991
aF53.4465389251709
aF45.31985306739807
aF57.35228681564331
aF16.074658155441284
aF17.120455026626587
aF32.48878192901611
aF35.25333094596863
aF15.32351803779602
aF81.82631397247314
aF43.042115926742554
aF18.936985969543457
aF37.93681001663208
aF50.64645004272461
aF15.885318994522095
aF19.289897918701172
aF139.91250705718994
aF173.16504192352295
aF21.392030000686646
aF19.44275712966919
aF44.730676889419556
aF93.02252411842346
aF20.368767023086548
aF15.913856983184814
aF115.3743679523468
aF46.28470206260681
aF15.124557971954346
aF49.21474885940552
aF25.982232093811035
aF22.194283962249756
aF24.51671314239502
aF22.068387985229492
aF300.50532388687134
aF15.61920690536499
aF18.893211126327515
aF24.976639986038208
aF217.36664009094238
aF41.163585901260376
aF22.027246952056885
aF55.10984206199646
aF26.89784598350525
aF17.414067029953003
aF27.349807024002075
aF18.55462408065796
aF16.857227087020874
aF27.764222145080566
aF28.640373945236206
aF26.053534030914307
aF19.115821838378906
aF43.696325063705444
aF26.58533000946045
aF18.304259061813354
aF18.397966861724854
aF141.203458070755
aF24.86831021308899
aF53.61951303482056
aF31.33478808403015
aF25.143210887908936
aF22.463742971420288
aF21.2376389503479
aF32.806068897247314
aF79.45389699935913
aF28.56444811820984
aF43.32457995414734
aF17.848159074783325
aF19.70740008354187
aF26.28434991836548
aF35.301198959350586
aF54.41452097892761
aF27.899160146713257
aF50.86169195175171
aF73.15972185134888
aF145.3727719783783
aF61.483426094055176
aF30.814556121826172
aF19.96053385734558
aF15.57741403579712
aF17.330676078796387
aF60.906611919403076
aF15.560501098632812
aF73.67785811424255
aF17.280102014541626
aF26.12809181213379
aF24.965636014938354
aF17.57873511314392
aF24.581177949905396
aF27.176268815994263
aF26.24590492248535
aF17.58985209465027
aF42.13440704345703
aF32.35650086402893
aF68.85384392738342
aF77.22835111618042
aF20.532649040222168
aF30.61100196838379
aF19.44354796409607
aF21.64480710029602
aF25.229727029800415
aF149.02049493789673
aF25.652472972869873
aF18.522312879562378
aF33.50431704521179
aF26.019965887069702
aF41.24115610122681
aF102.80641603469849
aF49.8517370223999
aF41.782313108444214
aF45.85616493225098
aF62.90550708770752
aF19.338051080703735
aF22.166096925735474
aF48.24500584602356
aF17.996122121810913
aF24.637540817260742
aF42.590638875961304
aF41.933781147003174
aF54.95553207397461
aF24.76486587524414
aF16.47555899620056
aF17.121092796325684
aF19.301703929901123
aF24.93652892112732
aF22.311543941497803
aF17.67471194267273
aF27.722153902053833
aF38.282641887664795
aF18.116919994354248
aF15.373075008392334
aF23.49229598045349
aF60.96715688705444
aF45.47535014152527
aF70.20355296134949
aF39.59887886047363
aF22.38049292564392
aF43.45798993110657
aF61.90382385253906
aF41.86988806724548
aF22.371034145355225
aF24.731173038482666
aF47.62025809288025
aF17.883410930633545
aF44.24695611000061
aF52.18734908103943
aF17.874047994613647
aF23.01997208595276
aF36.10922908782959
aF195.83711504936218
aF35.70082902908325
aF16.255343914031982
aF16.173365831375122
aF17.173712968826294
aF44.29780888557434
aF23.65534019470215
aF88.43666791915894
aF39.79183793067932
aF116.01298785209656
aF51.941385984420776
aF19.18948197364807
aF62.509724140167236
aF18.18452000617981
aF25.707770109176636
aF23.379930019378662
aF66.65718102455139
aF16.500362157821655
aF52.686784982681274
aF17.544205904006958
aF58.14659810066223
aF107.06851315498352
aF32.09118294715881
aF53.94534778594971
aF40.86979389190674
aF36.756003856658936
aF72.24137020111084
aF17.11323094367981
aF25.98641800880432
aF25.978260040283203
aF44.64332890510559
aF40.24305605888367
aF15.874317169189453
aF20.37895703315735
aF47.92069697380066
aF18.250735998153687
aF116.17960810661316
aF17.694477796554565
aF54.94573783874512
aF85.38362789154053
aF103.47047591209412
aF37.615482807159424
aF41.41786813735962
aF19.92454695701599
aF35.90757894515991
aF14.289117813110352
aF18.346375942230225
aF112.63850784301758
aF17.40559482574463
aF55.54838681221008
aF17.098005771636963
aF29.94035291671753
aF46.17332696914673
aF90.6300401687622
aF31.82024383544922
aF16.536500930786133
aF16.14492416381836
aF74.62689304351807
aF19.205692052841187
aF24.915812015533447
aF21.97083806991577
aF18.40220880508423
aF17.160303831100464
aF23.206775903701782
aF18.15849494934082
aF36.80624794960022
aF62.77144694328308
aF25.912851095199585
aF29.299973964691162
aF18.514767169952393
aF17.44869589805603
aF17.879663944244385
aF41.19813895225525
aF15.131417036056519
aF25.65814709663391
aF35.25542998313904
aF19.556663036346436
aF24.109132051467896
aF90.55828905105591
aF86.83772015571594
aF46.72167897224426
aF18.659841060638428
aF57.935189962387085
aF44.4538300037384
aF24.443458795547485
aF25.421130895614624
aF43.9218270778656
aF17.927644968032837
aF79.9180850982666
aF25.764867067337036
aF29.453038930892944
aF45.1698100566864
aF17.14283514022827
aF44.68027186393738
aF18.75100612640381
aF24.61599898338318
aF23.373399019241333
aF18.863903045654297
aF31.129334926605225
aF17.16449785232544
aF48.25480604171753
aF62.33213806152344
aF113.47925686836243
aF17.32381010055542
aF17.43100094795227
aF27.382051944732666
aF18.114938020706177
aF57.95397186279297
aF40.99838709831238
aF137.25046300888062
aF41.30777907371521
aF16.10866117477417
aF56.309772968292236
aF38.46894192695618
aF28.906795978546143
aF17.203682899475098
aF33.737128019332886
aF16.608089923858643
aF46.477967977523804
aF27.13144087791443
aF38.69550800323486
aF107.0103530883789
aF42.7071168422699
aF41.00859308242798
aF15.396957874298096
aF42.57989001274109
aF108.89371490478516
aF19.494290828704834
aF34.659245014190674
aF59.1715190410614
aF25.31472396850586
aF17.82758116722107
aF16.10340404510498
aF37.260695934295654
aF24.547546863555908
aF157.25254821777344
aF54.879313230514526
aF15.90245795249939
aF39.00149202346802
aF16.85311508178711
aF15.9049551486969
aF39.96547508239746
aF26.73017191886902
aF15.037589073181152
aF42.55715799331665
aF35.32535696029663
aF196.86659002304077
aF25.86415386199951
aF44.77386498451233
aF39.90121603012085
aF34.6718008518219
aF76.86899900436401
aF16.04927897453308
aF94.250333070755
aF46.994930028915405
aF30.03299117088318
aF20.217176914215088
aF31.032283782958984
aF24.095959901809692
aF109.50705790519714
aF19.575826168060303
aF21.823190212249756
aF89.49515700340271
aF84.13497805595398
aF22.736025094985962
aF30.604480028152466
aF17.434481859207153
aF18.63538908958435
aF43.60344099998474
aF17.015336990356445
aF47.985098123550415
aF112.25975489616394
aF41.038360834121704
aF38.813684940338135
aF139.0593659877777
aF77.87702703475952
aF43.417964935302734
aF17.19253182411194
aF45.413758993148804
aF17.372772932052612
aF24.917164087295532
aF25.891505002975464
aF24.928762912750244
aF17.15737009048462
aF119.94985604286194
aF106.15079092979431
aF16.321992874145508
aF42.05632495880127
aF81.34440112113953
aF31.733064889907837
aF15.597759008407593
aF26.783562898635864
aF18.091153144836426
aF18.215847969055176
aF24.15546703338623
aF26.166275024414062
aF16.206444025039673
aF33.80300498008728
aF26.167157888412476
aF55.537293910980225
aF18.33248281478882
aF61.02282404899597
aF142.59135603904724
aF18.95130205154419
aF73.59583306312561
aF26.60449719429016
aF24.755456924438477
aF21.074695110321045
aF27.931544065475464
aF23.139693021774292
aF21.672510147094727
aF28.326112031936646
aF70.71477198600769
aF26.167843103408813
aF48.480583906173706
aF48.69959282875061
aF18.5533549785614
aF31.406848907470703
aF16.976624011993408
aF18.29204297065735
aF32.0580689907074
aF41.03410506248474
aF174.8136339187622
aF24.527957916259766
aF16.75520610809326
aF93.08528208732605
aF17.287181854248047
aF18.84599494934082
aF25.536303997039795
aF17.102498054504395
aF54.85679507255554
aF25.933701992034912
aF41.417876958847046
aF28.61893892288208
aF27.189311981201172
aF28.40808606147766
aF24.899463891983032
aF17.7619788646698
aF17.533164024353027
aF14.553066968917847
aF17.438488006591797
aF18.576973915100098
aF27.611021995544434
aF58.78536605834961
aF33.436748027801514
aF84.85615801811218
aF17.01024603843689
aF46.31974911689758
aF17.544769048690796
aF19.228382110595703
aF43.7104549407959
aF19.036076068878174
aF16.044774055480957
aF29.595468044281006
aF18.328218936920166
aF17.001692056655884
aF39.432615995407104
aF39.096112966537476
aF27.244719982147217
aF19.18929696083069
aF22.982086896896362
aF38.73963904380798
aF26.425904035568237
aF19.424102067947388
aF42.473495960235596
aF25.59807586669922
aF56.40366291999817
aF40.01495909690857
aF16.816383123397827
aF21.989129781723022
aF88.47258806228638
aF15.688619136810303
aF105.98390007019043
aF18.042651891708374
aF26.74007797241211
aF16.834174871444702
aF179.91491198539734
aF32.91986894607544
aF18.0728440284729
aF16.331804037094116
aF15.866684913635254
aF16.345963954925537
aF19.084018230438232
aF41.29513192176819
aF27.994041919708252
aF79.22635197639465
aF25.16814088821411
aF61.372727155685425
aF39.83798909187317
aF16.833489894866943
aF40.531038999557495
aF18.083868980407715
aF17.67768907546997
aF108.51440906524658
aF37.04435992240906
aF29.59586501121521
aF17.47940492630005
aF17.25251793861389
aF22.138155937194824
aF43.61868906021118
aF18.816831827163696
aF19.861275911331177
aF52.79848790168762
aF27.111593008041382
aF19.882061004638672
aF19.037362098693848
aF26.626590967178345
aF15.083024978637695
aF66.44648313522339
aF16.49498200416565
aF19.984060049057007
aF18.40534496307373
aF20.0273540019989
aF18.01921820640564
aF18.040189027786255
aF67.44352889060974
aF19.15740704536438
aF38.18586015701294
aF18.738536834716797
aF30.330822944641113
aF16.604538202285767
aF44.01795196533203
aF17.18475914001465
aF32.35604000091553
aF39.64829897880554
aF20.98044991493225
aF19.304070949554443
aF220.7682101726532
aF17.849278926849365
aF42.903125047683716
aF26.355385065078735
aF19.829234838485718
as.