(dp0
S'successes'
p1
(lp2
I00
aI00
aI00
aI00
aI00
aI00
aI00
aI00
aI00
aI00
aI00
aI00
aI00
aI00
aI00
aI00
aI00
aI00
aI00
aI00
aI00
aI00
aI00
aI00
aI00
aI00
aI00
aI00
aI00
aI00
aI00
aI00
aI00
aI00
aI00
aI00
aI00
aI00
aI00
aI00
aI00
aI00
aI00
aI00
aI00
aI00
aI00
aI00
aI00
aI00
aI00
aI00
aI00
aI00
aI00
aI00
aI00
aI00
aI00
aI00
aI00
aI00
aI00
aI00
aI00
aI00
aI00
aI00
aI00
aI00
aI00
aI00
aI00
aI00
aI00
aI00
aI00
aI00
aI00
aI00
aI00
aI00
aI00
aI00
aI00
aI00
aI00
aI00
aI00
aI00
aI00
aI00
aI00
aI00
aI00
aI00
aI00
aI00
aI00
aI00
aI00
aI00
aI00
aI00
aI00
aI00
aI00
aI00
aI00
aI00
aI00
aI00
aI00
aI00
aI00
aI00
aI00
aI00
aI00
aI00
aI00
aI00
aI00
aI00
aI00
aI00
aI00
aI00
aI00
aI00
aI00
aI00
aI00
aI00
aI00
aI00
aI00
aI00
aI00
aI00
aI00
aI00
aI00
aI00
aI00
aI00
aI00
aI00
aI00
aI00
aI00
aI00
aI00
aI00
aI00
aI00
aI00
aI00
aI00
aI00
aI00
aI00
aI00
aI00
aI00
aI00
aI00
aI00
aI00
aI00
aI00
aI00
aI00
aI00
aI00
aI00
aI00
aI00
aI00
aI00
aI00
aI00
aI00
aI00
aI00
aI00
aI00
aI00
aI00
aI00
aI00
aI00
aI00
aI00
aI00
aI00
aI00
aI00
aI00
aI00
aI00
aI00
aI00
aI00
aI00
aI00
aI00
aI00
aI00
aI00
aI00
aI00
aI00
aI00
aI00
aI00
aI00
aI00
aI00
aI00
aI00
aI00
aI00
aI00
aI00
aI00
aI00
aI00
aI00
aI00
aI00
aI00
aI00
aI00
aI00
aI00
aI00
aI00
aI00
aI00
aI00
aI00
aI00
aI00
aI00
aI00
aI00
aI00
aI00
aI00
aI00
aI00
aI00
aI00
aI00
aI00
aI00
aI00
aI00
aI00
aI00
aI00
aI00
aI00
aI00
aI00
aI00
aI00
aI00
aI00
aI00
aI00
aI00
aI00
aI00
aI00
aI00
aI00
aI00
aI00
aI00
aI00
aI00
aI00
aI00
aI00
aI00
aI00
aI00
aI00
aI00
aI00
aI00
aI00
aI00
aI00
aI00
aI00
aI00
aI00
aI00
aI00
aI00
aI00
aI00
aI00
aI00
aI00
aI00
aI00
aI00
aI00
aI00
aI00
aI00
aI00
aI00
aI00
aI00
aI00
aI00
aI00
aI00
aI00
aI00
aI00
aI00
aI00
aI00
aI00
aI00
aI00
aI00
aI00
aI00
aI00
aI00
aI00
aI00
aI00
aI00
aI00
aI00
aI00
aI00
aI00
aI00
aI00
aI00
aI00
aI00
aI00
aI00
aI00
aI00
aI00
aI00
aI00
aI00
aI00
aI00
aI00
aI00
aI00
aI00
aI00
aI00
aI00
aI00
aI00
aI00
aI00
aI00
aI00
aI00
aI00
aI00
aI00
aI00
aI00
aI00
aI00
aI00
aI00
aI00
aI00
aI00
aI00
aI00
aI00
aI00
aI00
aI00
aI00
aI00
aI00
aI00
aI00
aI00
aI00
aI00
aI00
aI00
aI00
aI00
aI00
aI00
aI00
aI00
aI00
aI00
aI00
aI00
aI00
aI00
aI00
aI00
aI00
aI00
aI00
aI00
aI00
aI00
aI00
aI00
aI00
aI00
aI00
aI00
aI00
aI00
aI00
aI00
aI00
aI00
aI00
aI00
aI00
aI00
aI00
aI00
aI00
aI00
aI00
aI00
aI00
aI00
aI00
aI00
aI00
aI00
aI00
aI00
asS'pidxs'
p3
(lp4
I20086
aI20021
aI20045
aI20027
aI20059
aI20064
aI20016
aI20081
aI20040
aI20052
aI20001
aI20088
aI20016
aI20090
aI20091
aI20044
aI20046
aI20086
aI20019
aI20044
aI20048
aI20039
aI20040
aI20019
aI20042
aI20049
aI20001
aI20074
aI20064
aI20039
aI20060
aI20058
aI20068
aI20083
aI20009
aI20060
aI20095
aI20021
aI20001
aI20030
aI20011
aI20057
aI20006
aI20040
aI20025
aI20004
aI20052
aI20031
aI20078
aI20038
aI20032
aI20001
aI20095
aI20067
aI20022
aI20089
aI20012
aI20018
aI20003
aI20015
aI20010
aI20005
aI20067
aI20076
aI20033
aI20047
aI20019
aI20025
aI20051
aI20045
aI20091
aI20035
aI20076
aI20094
aI20074
aI20059
aI20064
aI20077
aI20032
aI20015
aI20020
aI20069
aI20042
aI20075
aI20071
aI20094
aI20059
aI20066
aI20020
aI20053
aI20040
aI20034
aI20016
aI20062
aI20038
aI20000
aI20080
aI20050
aI20041
aI20008
aI20036
aI20024
aI20014
aI20076
aI20003
aI20016
aI20072
aI20021
aI20065
aI20080
aI20099
aI20093
aI20099
aI20042
aI20019
aI20072
aI20055
aI20056
aI20047
aI20099
aI20068
aI20023
aI20091
aI20004
aI20019
aI20026
aI20007
aI20033
aI20090
aI20070
aI20037
aI20094
aI20023
aI20075
aI20025
aI20030
aI20061
aI20087
aI20052
aI20080
aI20015
aI20063
aI20046
aI20067
aI20044
aI20051
aI20078
aI20098
aI20039
aI20099
aI20039
aI20088
aI20031
aI20033
aI20054
aI20083
aI20033
aI20053
aI20052
aI20069
aI20058
aI20075
aI20035
aI20081
aI20011
aI20018
aI20029
aI20098
aI20020
aI20008
aI20025
aI20066
aI20017
aI20028
aI20008
aI20014
aI20023
aI20021
aI20058
aI20037
aI20003
aI20088
aI20023
aI20060
aI20010
aI20071
aI20029
aI20030
aI20076
aI20095
aI20004
aI20010
aI20096
aI20003
aI20047
aI20037
aI20041
aI20092
aI20000
aI20084
aI20032
aI20043
aI20043
aI20020
aI20013
aI20030
aI20063
aI20092
aI20028
aI20049
aI20007
aI20062
aI20081
aI20065
aI20044
aI20006
aI20016
aI20093
aI20077
aI20005
aI20048
aI20079
aI20008
aI20080
aI20059
aI20035
aI20066
aI20092
aI20017
aI20012
aI20017
aI20065
aI20051
aI20043
aI20082
aI20089
aI20054
aI20007
aI20032
aI20024
aI20077
aI20050
aI20073
aI20011
aI20035
aI20094
aI20052
aI20008
aI20083
aI20096
aI20050
aI20036
aI20078
aI20048
aI20060
aI20018
aI20048
aI20072
aI20093
aI20097
aI20038
aI20015
aI20004
aI20098
aI20006
aI20013
aI20083
aI20000
aI20078
aI20098
aI20038
aI20047
aI20084
aI20079
aI20026
aI20006
aI20041
aI20090
aI20082
aI20020
aI20002
aI20034
aI20069
aI20048
aI20057
aI20026
aI20013
aI20055
aI20093
aI20097
aI20026
aI20022
aI20056
aI20043
aI20002
aI20027
aI20064
aI20027
aI20044
aI20012
aI20089
aI20097
aI20024
aI20091
aI20014
aI20087
aI20031
aI20000
aI20061
aI20022
aI20097
aI20010
aI20096
aI20084
aI20087
aI20036
aI20045
aI20054
aI20039
aI20002
aI20028
aI20046
aI20040
aI20082
aI20077
aI20073
aI20085
aI20084
aI20036
aI20015
aI20058
aI20057
aI20029
aI20014
aI20050
aI20009
aI20029
aI20070
aI20087
aI20018
aI20051
aI20051
aI20005
aI20027
aI20021
aI20056
aI20038
aI20001
aI20063
aI20075
aI20054
aI20029
aI20061
aI20071
aI20053
aI20063
aI20071
aI20066
aI20002
aI20009
aI20062
aI20006
aI20025
aI20068
aI20034
aI20002
aI20034
aI20042
aI20026
aI20031
aI20000
aI20055
aI20073
aI20092
aI20012
aI20082
aI20049
aI20074
aI20073
aI20014
aI20046
aI20018
aI20027
aI20053
aI20005
aI20095
aI20069
aI20009
aI20089
aI20061
aI20022
aI20004
aI20033
aI20012
aI20042
aI20013
aI20049
aI20074
aI20017
aI20043
aI20023
aI20010
aI20047
aI20065
aI20017
aI20067
aI20031
aI20037
aI20030
aI20003
aI20013
aI20045
aI20070
aI20045
aI20085
aI20057
aI20007
aI20024
aI20050
aI20096
aI20011
aI20037
aI20041
aI20088
aI20041
aI20022
aI20055
aI20079
aI20049
aI20028
aI20085
aI20046
aI20079
aI20086
aI20035
aI20062
aI20005
aI20081
aI20090
aI20034
aI20011
aI20068
aI20009
aI20024
aI20070
aI20032
aI20028
aI20007
aI20085
aI20072
aI20036
aI20056
aI20086
asS'plan_length'
p5
(lp6
sS'num_nodes'
p7
(lp8
I10
aI2
aI16
aI3
aI10
aI13
aI53
aI5
aI8
aI4
aI9
aI15
aI17
aI13
aI4
aI21
aI2
aI8
aI43
aI11
aI4
aI3
aI9
aI17
aI2
aI2
aI5
aI2
aI39
aI12
aI29
aI11
aI10
aI12
aI6
aI12
aI3
aI14
aI10
aI2
aI2
aI18
aI13
aI18
aI6
aI8
aI4
aI4
aI2
aI3
aI21
aI12
aI3
aI5
aI2
aI13
aI7
aI2
aI3
aI4
aI7
aI6
aI7
aI5
aI98
aI6
aI4
aI7
aI2
aI12
aI3
aI5
aI3
aI4
aI6
aI2
aI27
aI3
aI7
aI7
aI6
aI3
aI2
aI8
aI5
aI2
aI2
aI4
aI12
aI18
aI42
aI4
aI20
aI6
aI3
aI6
aI4
aI4
aI5
aI7
aI3
aI2
aI4
aI17
aI3
aI9
aI4
aI4
aI3
aI4
aI2
aI13
aI4
aI2
aI4
aI15
aI3
aI9
aI3
aI2
aI8
aI2
aI3
aI4
aI23
aI17
aI2
aI95
aI7
aI10
aI14
aI2
aI2
aI141
aI8
aI6
aI2
aI13
aI5
aI4
aI7
aI2
aI7
aI9
aI74
aI4
aI4
aI2
aI4
aI2
aI12
aI18
aI11
aI287
aI4
aI33
aI119
aI14
aI6
aI14
aI7
aI18
aI17
aI6
aI4
aI2
aI11
aI2
aI5
aI10
aI9
aI4
aI2
aI8
aI7
aI4
aI9
aI9
aI3
aI4
aI4
aI4
aI2
aI16
aI3
aI3
aI27
aI2
aI10
aI5
aI7
aI3
aI2
aI5
aI4
aI2
aI7
aI5
aI26
aI17
aI5
aI4
aI6
aI8
aI11
aI4
aI4
aI12
aI4
aI2
aI2
aI12
aI4
aI3
aI33
aI10
aI23
aI3
aI17
aI3
aI8
aI4
aI9
aI8
aI2
aI8
aI2
aI8
aI2
aI9
aI2
aI2
aI11
aI5
aI12
aI8
aI3
aI2
aI12
aI2
aI4
aI6
aI12
aI2
aI5
aI2
aI5
aI9
aI12
aI2
aI4
aI6
aI2
aI7
aI14
aI6
aI6
aI2
aI16
aI2
aI5
aI26
aI16
aI4
aI14
aI8
aI5
aI9
aI2
aI2
aI3
aI22
aI2
aI9
aI3
aI14
aI15
aI7
aI8
aI16
aI10
aI4
aI4
aI6
aI2
aI6
aI6
aI6
aI6
aI82
aI4
aI3
aI15
aI5
aI3
aI2
aI42
aI5
aI14
aI9
aI10
aI2
aI2
aI7
aI4
aI14
aI9
aI27
aI2
aI2
aI2
aI3
aI2
aI2
aI7
aI3
aI15
aI4
aI3
aI8
aI11
aI2
aI54
aI9
aI30
aI7
aI2
aI2
aI3
aI4
aI8
aI2
aI5
aI34
aI6
aI13
aI26
aI18
aI6
aI11
aI6
aI11
aI3
aI8
aI4
aI9
aI7
aI10
aI2
aI11
aI8
aI13
aI2
aI16
aI21
aI2
aI6
aI14
aI4
aI6
aI7
aI14
aI10
aI6
aI5
aI4
aI6
aI2
aI2
aI10
aI8
aI7
aI4
aI9
aI5
aI8
aI2
aI2
aI12
aI3
aI2
aI2
aI2
aI21
aI4
aI3
aI3
aI25
aI7
aI2
aI2
aI16
aI175
aI5
aI2
aI17
aI2
aI2
aI2
aI14
aI2
aI6
aI4
aI2
aI2
aI16
aI14
aI12
aI4
aI3
aI4
aI6
aI11
aI17
aI7
aI5
aI8
aI2
aI10
aI2
aI2
aI4
aI4
aI4
aI4
aI2
aI4
aI9
aI2
aI10
aI7
aI15
aI8
aI7
aI4
aI16
aI2
aI2
aI8
aI11
aI2
aI13
aI6
aI6
aI10
aI6
aI8
aI2
aI6
aI9
aI4
aI15
aI3
asS'times'
p9
(lp10
F2835.506647825241
aF12.36371111869812
aF929.465528011322
aF18.177603006362915
aF57.72624492645264
aF3583.297173976898
aF4150.782047986984
aF41.21751809120178
aF465.7674798965454
aF34.954294204711914
aF70.90480303764343
aF952.391019821167
aF128.4767508506775
aF126.68817114830017
aF26.42275309562683
aF582.2389988899231
aF17.80562114715576
aF71.73123407363892
aF4092.1623950004578
aF274.8562469482422
aF27.18511199951172
aF28.51146388053894
aF1238.8095099925995
aF126.4214870929718
aF14.690253973007202
aF12.546985864639282
aF46.5312979221344
aF15.23187780380249
aF5189.387703180313
aF3033.2745609283447
aF1487.135705947876
aF81.59460783004761
aF108.32074189186096
aF150.48766613006592
aF45.04471516609192
aF309.58238101005554
aF16.83702802658081
aF120.13993906974792
aF72.17421507835388
aF15.876298904418945
aF15.570648908615112
aF150.94651889801025
aF204.20808815956116
aF196.2004759311676
aF42.932337045669556
aF182.28318977355957
aF28.07893395423889
aF36.581990003585815
aF19.189157009124756
aF22.00151801109314
aF454.9444761276245
aF82.49760293960571
aF18.94214916229248
aF31.223316192626953
aF13.550394058227539
aF1070.2443099021912
aF41.98518490791321
aF15.080443859100342
aF23.50749897956848
aF28.60144019126892
aF64.09659504890442
aF38.58725881576538
aF109.59088397026062
aF59.334522008895874
aF2980.783700942993
aF52.731653928756714
aF26.395734071731567
aF51.55176591873169
aF16.814850091934204
aF3236.6561880111694
aF23.822113037109375
aF45.34328508377075
aF26.66677188873291
aF25.981768131256104
aF47.80396103858948
aF13.119975090026855
aF1661.1587071418762
aF21.150352954864502
aF45.096641063690186
aF760.5655429363251
aF43.097851037979126
aF25.434902906417847
aF12.784785985946655
aF206.60880279541016
aF67.8799250125885
aF13.678742170333862
aF12.022160053253174
aF20.02324080467224
aF338.10532999038696
aF766.9226920604706
aF1653.1288268566132
aF32.23485493659973
aF245.79777717590332
aF43.21851110458374
aF23.24422311782837
aF54.13336110115051
aF25.49859595298767
aF28.74195408821106
aF35.20996809005737
aF90.70798993110657
aF19.545475006103516
aF14.39565896987915
aF22.725505113601685
aF6593.766964912415
aF28.650885105133057
aF49.685877084732056
aF35.832196950912476
aF27.864726781845093
aF21.731799125671387
aF27.31908392906189
aF11.982316017150879
aF141.43563318252563
aF31.42245602607727
aF8.637529134750366
aF24.977590084075928
aF228.34062910079956
aF24.192049026489258
aF224.60807704925537
aF22.39336895942688
aF14.92933201789856
aF80.71184611320496
aF11.608280181884766
aF16.03551983833313
aF26.18194603919983
aF351.80005383491516
aF179.26918292045593
aF19.402295112609863
aF3669.070755958557
aF80.52526998519897
aF194.52930307388306
aF3587.058116197586
aF13.241168022155762
aF15.506762027740479
aF2626.8490011692047
aF57.3447060585022
aF54.592365026474
aF10.490296840667725
aF778.9449698925018
aF43.14918613433838
aF18.77832794189453
aF39.50250697135925
aF10.073982954025269
aF203.34845495224
aF52.62566804885864
aF3738.096957921982
aF36.97423505783081
aF32.256511926651
aF12.606764793395996
aF30.72243905067444
aF12.346081018447876
aF2714.2623419761658
aF2922.495630979538
aF477.2853379249573
aF2723.4660029411316
aF38.5585560798645
aF554.0675320625305
aF2579.5297272205353
aF321.0634877681732
aF43.30839419364929
aF4516.2319440841675
aF86.61916708946228
aF185.81935000419617
aF285.17918491363525
aF42.79315996170044
aF27.928364992141724
aF13.917399883270264
aF306.23717403411865
aF13.061322927474976
aF33.77831697463989
aF2446.193584918976
aF193.12956500053406
aF25.862059116363525
aF16.071612119674683
aF73.56012296676636
aF61.1515998840332
aF20.245115041732788
aF74.56904911994934
aF63.22715401649475
aF28.94920802116394
aF22.641732931137085
aF35.82774782180786
aF34.293678998947144
aF8.633922815322876
aF2402.957365989685
aF22.741242170333862
aF19.929158926010132
aF1111.712730884552
aF12.294497966766357
aF73.847177028656
aF33.399604082107544
aF53.1795289516449
aF21.593698978424072
aF11.10279107093811
aF37.09251379966736
aF24.22566294670105
aF11.036158084869385
aF44.46438193321228
aF40.078766107559204
aF5517.28428196907
aF961.1827721595764
aF33.725239992141724
aF46.150728940963745
aF44.71697807312012
aF184.43086910247803
aF77.45613813400269
aF29.338003873825073
aF23.439702033996582
aF530.1219069957733
aF25.65972113609314
aF11.299211978912354
aF15.32433009147644
aF251.70380401611328
aF31.246662855148315
aF19.965811014175415
aF496.1119611263275
aF158.56382298469543
aF219.79534602165222
aF20.780197858810425
aF86.76429581642151
aF17.790232181549072
aF62.90089702606201
aF41.866650104522705
aF588.409420967102
aF41.57925605773926
aF12.028588056564331
aF59.92895007133484
aF11.247090816497803
aF223.66783499717712
aF17.956745147705078
aF66.32872796058655
aF16.987622022628784
aF15.382251024246216
aF137.3844118118286
aF36.408406019210815
aF176.84786105155945
aF236.528217792511
aF29.83915901184082
aF14.659831047058105
aF77.86767792701721
aF14.600149869918823
aF34.00076198577881
aF42.740504026412964
aF99.58819913864136
aF15.113760948181152
aF70.8147189617157
aF13.165959119796753
aF32.72368288040161
aF69.42834186553955
aF1739.018313884735
aF14.199044942855835
aF35.54648208618164
aF120.81341910362244
aF14.014204025268555
aF67.14287900924683
aF317.00828790664673
aF50.20444703102112
aF48.38010501861572
aF18.913774967193604
aF99.58359599113464
aF12.782371044158936
aF29.625077962875366
aF1282.362370967865
aF740.1723330020905
aF32.17643094062805
aF780.4629919528961
aF64.06296300888062
aF34.717079877853394
aF67.84635400772095
aF16.355208158493042
aF14.459882974624634
aF23.580920934677124
aF1277.0686700344086
aF13.480479955673218
aF137.32700109481812
aF24.680743932724
aF5820.66929101944
aF747.6268720626831
aF179.01176500320435
aF100.72653603553772
aF146.52339482307434
aF1707.5983929634094
aF32.198461055755615
aF40.17751097679138
aF39.47081685066223
aF14.606303215026855
aF45.6647469997406
aF46.44273614883423
aF64.26893281936646
aF47.298789978027344
aF2444.2441658973694
aF24.12813401222229
aF17.645048141479492
aF2767.562105178833
aF55.99188303947449
aF24.504261016845703
aF13.405102014541626
aF2532.863056898117
aF30.322934865951538
aF188.43040299415588
aF77.80131387710571
aF114.7270519733429
aF11.1456458568573
aF12.516655921936035
aF38.4976909160614
aF23.02964210510254
aF88.52921795845032
aF219.99924683570862
aF2414.4643540382385
aF12.886770963668823
aF14.739931106567383
aF12.483150959014893
aF24.029572010040283
aF13.760277032852173
aF13.293251991271973
aF49.327893018722534
aF18.0327308177948
aF845.2803440093994
aF30.08777904510498
aF26.774972915649414
aF123.24888491630554
aF310.57351517677307
aF19.08389186859131
aF2057.8578491210938
aF117.255450963974
aF363.3249759674072
aF58.484116077423096
aF14.848536968231201
aF14.005075931549072
aF20.73107099533081
aF32.54444193840027
aF81.38165187835693
aF13.774914026260376
aF40.45491409301758
aF3686.9657139778137
aF86.71928691864014
aF697.3836669921875
aF3986.950180053711
aF2614.7149019241333
aF42.44485807418823
aF79.05026292800903
aF51.123425006866455
aF665.5782718658447
aF22.370563983917236
aF48.45588302612305
aF33.11249589920044
aF3458.201071023941
aF59.90054106712341
aF98.81207203865051
aF14.863326072692871
aF113.72206783294678
aF84.70149397850037
aF555.861095905304
aF13.302711009979248
aF1134.5381028652191
aF2033.565045118332
aF11.462284088134766
aF49.98408579826355
aF930.9124331474304
aF30.310243129730225
aF61.18342590332031
aF79.90623497962952
aF887.7730951309204
aF101.38181710243225
aF38.61022686958313
aF40.42519497871399
aF23.5313241481781
aF67.5031750202179
aF14.157199144363403
aF17.210757970809937
aF904.5303130149841
aF167.56994700431824
aF71.08873009681702
aF38.6946280002594
aF66.70249104499817
aF39.21353101730347
aF88.77346611022949
aF13.71620798110962
aF18.1861469745636
aF2710.0497748851776
aF18.823755025863647
aF14.046852111816406
aF14.396980047225952
aF17.197413206100464
aF2496.0189480781555
aF24.294167041778564
aF21.196254014968872
aF20.67581796646118
aF6673.627355098724
aF51.932345151901245
aF12.823892831802368
aF17.386784076690674
aF898.7741248607635
aF4065.959552049637
aF32.84162998199463
aF11.232263088226318
aF1269.8359801769257
aF17.085148096084595
aF15.46180510520935
aF17.486631870269775
aF1716.3578231334686
aF8.54498291015625
aF62.761642932891846
aF32.61496305465698
aF16.836282968521118
aF18.918236017227173
aF231.673681974411
aF219.62441086769104
aF159.55768203735352
aF26.442873001098633
aF23.39074993133545
aF26.725622177124023
aF59.50149202346802
aF174.79955506324768
aF445.5464940071106
aF109.61360812187195
aF29.514323949813843
aF759.5963170528412
aF12.646788120269775
aF195.09783601760864
aF11.898603916168213
aF15.511559009552002
aF36.301140785217285
aF22.81397008895874
aF33.828651905059814
aF27.6365749835968
aF14.258651971817017
aF27.934816122055054
aF66.69990801811218
aF13.709577083587646
aF288.24419116973877
aF48.384028911590576
aF3937.36483502388
aF91.29747986793518
aF381.177206993103
aF30.135677099227905
aF451.4403750896454
aF13.062801122665405
aF13.538411855697632
aF1289.6591258049011
aF130.8387508392334
aF18.623032093048096
aF101.09228420257568
aF68.7409508228302
aF83.30152297019958
aF100.43693995475769
aF40.327210903167725
aF759.6361780166626
aF17.55763292312622
aF51.19103503227234
aF63.60124897956848
aF25.749619007110596
aF450.7138469219208
aF29.790922164916992
as.