(dp0
S'successes'
p1
(lp2
I01
aI01
aI01
aI01
aI00
aI01
aI01
aI01
aI00
aI01
aI01
aI01
aI01
aI01
aI01
aI01
aI01
aI01
aI01
aI01
aI01
aI01
aI01
aI01
aI01
aI00
aI01
aI01
aI01
aI01
aI01
aI01
aI01
aI01
aI01
aI01
aI01
aI01
aI01
aI01
aI01
aI00
aI01
aI01
aI00
aI01
aI01
aI00
aI01
aI01
aI01
aI01
aI01
aI01
aI01
aI01
aI01
aI01
aI01
aI01
aI01
aI01
aI01
aI01
aI01
aI01
aI01
aI00
aI01
aI01
aI01
aI01
aI01
aI01
aI01
aI01
aI01
aI01
aI01
aI00
aI01
aI01
aI01
aI01
aI01
aI01
aI01
aI01
aI00
aI01
aI01
aI01
aI01
aI01
aI01
aI01
aI01
aI01
aI00
aI01
aI01
aI01
aI00
aI01
aI01
aI01
aI01
aI01
aI01
aI01
aI01
aI01
aI01
aI00
aI01
aI01
aI01
aI01
aI01
aI00
aI01
aI01
aI01
aI01
aI01
aI01
aI01
aI01
aI01
aI01
aI01
aI01
aI01
aI01
aI01
aI01
aI01
aI01
aI01
aI01
aI00
aI00
aI01
aI00
aI01
aI00
aI01
aI01
aI00
aI01
aI01
aI01
aI01
aI01
aI01
aI01
aI01
aI01
aI01
aI01
aI01
aI01
aI01
aI01
aI01
aI01
aI01
aI01
aI01
aI01
aI01
aI01
aI01
aI01
aI01
aI00
aI01
aI01
aI01
aI01
aI01
aI01
aI00
aI01
aI01
aI01
aI01
aI01
aI01
aI01
aI01
aI01
aI01
aI01
aI01
aI01
aI01
aI00
aI01
aI00
aI01
aI01
aI01
aI01
aI01
aI01
aI01
aI01
aI01
aI01
aI01
aI01
aI01
aI00
aI01
aI01
aI01
aI01
aI01
aI01
aI01
aI01
aI01
aI01
aI01
aI01
aI01
aI01
aI01
aI01
aI01
aI01
aI00
aI01
aI01
aI01
aI01
aI01
aI01
aI01
aI01
aI01
aI01
aI01
aI01
aI01
aI01
aI00
aI01
aI01
aI00
aI01
aI01
aI01
aI01
aI01
aI01
aI01
aI01
aI01
aI01
aI00
aI01
aI01
aI00
aI01
aI01
aI01
aI01
aI01
aI00
aI01
aI01
aI01
aI01
aI01
aI01
aI01
aI01
aI01
aI01
aI01
aI01
aI01
aI01
aI01
aI01
aI01
aI01
aI01
aI01
aI01
aI01
aI01
aI01
aI01
aI01
aI01
aI01
aI01
aI01
aI01
aI01
aI00
aI01
aI01
aI01
aI00
aI01
aI01
aI01
aI01
aI01
aI01
aI01
aI01
aI00
aI01
aI01
aI01
aI00
aI01
aI01
aI00
aI01
aI00
aI01
aI01
aI01
aI01
aI00
aI01
aI01
aI01
aI01
aI01
aI01
aI01
aI01
aI01
aI01
aI01
aI01
aI01
aI01
aI01
aI01
aI01
aI00
aI00
aI01
aI00
aI01
aI01
aI01
aI00
aI01
aI01
aI01
aI01
aI01
aI01
aI01
aI01
aI01
aI01
aI00
aI01
aI01
aI01
aI01
aI01
aI01
aI01
aI01
aI01
aI01
aI01
aI01
aI01
aI01
aI01
aI00
aI01
aI01
aI01
aI01
aI01
aI01
aI01
aI01
aI01
aI01
aI01
aI01
aI01
aI01
aI00
aI01
aI00
aI01
aI01
aI01
aI01
aI01
aI01
aI01
aI01
aI01
aI00
aI01
aI01
aI01
aI01
aI01
aI01
aI01
aI01
aI01
aI01
aI01
aI01
aI01
aI01
aI01
aI01
aI01
aI01
aI01
aI01
aI01
aI01
aI00
aI01
aI00
aI01
aI01
aI01
aI01
aI01
aI00
aI01
aI00
aI01
aI01
aI00
aI01
aI01
aI00
aI00
aI01
aI01
aI01
aI01
aI01
aI01
aI01
aI01
aI01
aI00
aI01
aI01
aI01
aI01
aI01
aI01
aI01
aI01
aI01
aI01
aI00
aI01
aI00
aI01
aI01
aI01
aI01
aI00
aI01
aI01
aI01
aI01
aI01
aI01
aI00
aI01
aI01
aI01
aI01
aI01
aI01
aI01
aI01
aI01
aI01
aI01
aI01
aI01
aI01
aI01
asS'plan_length'
p3
(lp4
I10
aI4
aI16
aI2
aI2
aI2
aI12
aI12
aI12
aI2
aI4
aI16
aI2
aI2
aI6
aI2
aI6
aI2
aI4
aI8
aI10
aI4
aI2
aI2
aI10
aI10
aI2
aI2
aI8
aI2
aI2
aI8
aI4
aI2
aI10
aI8
aI10
aI2
aI12
aI8
aI8
aI8
aI4
aI4
aI4
aI2
aI8
aI8
aI4
aI10
aI2
aI6
aI2
aI2
aI6
aI2
aI2
aI6
aI6
aI6
aI2
aI4
aI8
aI2
aI2
aI2
aI2
aI2
aI8
aI8
aI6
aI2
aI2
aI6
aI2
aI4
aI8
aI2
aI2
aI2
aI2
aI4
aI2
aI4
aI6
aI2
aI2
aI4
aI4
aI2
aI12
aI2
aI12
aI4
aI8
aI2
aI10
aI16
aI16
aI16
aI2
aI4
aI4
aI2
aI2
aI2
aI8
aI6
aI4
aI2
aI8
aI10
aI4
aI4
aI4
aI16
aI4
aI12
aI4
aI4
aI8
aI2
aI8
aI2
aI4
aI2
aI16
aI2
aI12
aI4
aI4
aI2
aI2
aI4
aI4
aI2
aI10
aI2
aI12
aI16
aI16
aI16
aI4
aI4
aI2
aI2
aI12
aI4
aI4
aI2
aI8
aI2
aI2
aI4
aI12
aI8
aI2
aI8
aI2
aI2
aI2
aI2
aI6
aI2
aI6
aI12
aI2
aI4
aI14
aI2
aI6
aI4
aI12
aI4
aI4
aI4
aI4
aI2
aI4
aI2
aI4
aI6
aI6
aI4
aI2
aI4
aI2
aI14
aI4
aI2
aI2
aI4
aI10
aI2
aI2
aI4
aI10
aI10
aI4
aI4
aI4
aI2
aI10
aI14
aI6
aI12
aI2
aI8
aI4
aI4
aI2
aI8
aI8
aI8
aI4
aI8
aI8
aI4
aI2
aI10
aI12
aI10
aI2
aI10
aI2
aI2
aI2
aI4
aI2
aI10
aI10
aI4
aI4
aI10
aI2
aI2
aI2
aI4
aI10
aI6
aI2
aI2
aI8
aI2
aI16
aI4
aI2
aI2
aI4
aI2
aI2
aI2
aI4
aI2
aI12
aI10
aI2
aI6
aI10
aI10
aI12
aI12
aI8
aI6
aI6
aI4
aI4
aI8
aI2
aI2
aI2
aI10
aI2
aI2
aI2
aI4
aI2
aI4
aI4
aI2
aI4
aI4
aI2
aI2
aI16
aI2
aI12
aI2
aI2
aI2
aI12
aI4
aI14
aI2
aI6
aI2
aI14
aI6
aI8
aI10
aI12
aI8
aI12
aI12
aI12
aI4
aI4
aI4
aI8
aI2
aI6
aI2
aI8
aI8
aI4
aI2
aI2
aI2
aI4
aI2
aI2
aI10
aI2
aI2
aI4
aI4
aI12
aI6
aI6
aI12
aI12
aI2
aI8
aI2
aI8
aI2
aI12
aI6
aI2
aI12
aI2
aI2
aI2
aI14
aI4
aI4
aI4
aI6
aI6
aI6
aI2
aI2
aI4
aI10
aI2
aI2
aI2
aI8
aI2
aI8
aI2
aI2
aI4
aI6
aI2
aI2
aI2
aI2
aI14
aI2
aI2
aI2
aI2
aI12
aI4
aI10
aI2
aI4
aI8
aI4
aI12
aI2
aI2
aI2
aI2
aI2
aI2
aI2
aI6
aI4
aI4
aI4
aI4
aI6
aI6
aI2
aI12
aI12
aI2
aI2
aI8
aI10
aI6
aI2
aI2
aI2
aI6
aI14
aI4
aI4
aI2
aI8
aI4
aI2
aI12
aI4
aI2
aI4
aI2
aI2
aI2
aI8
aI4
aI2
aI4
aI6
aI2
aI2
aI8
aI2
aI8
aI10
aI10
aI2
aI2
aI12
aI2
aI6
aI4
aI2
aI2
aI12
aI12
aI6
aI4
aI4
aI2
aI8
aI8
aI8
aI2
aI2
aI2
aI2
aI4
aI2
aI14
aI8
aI12
aI12
aI2
aI4
aI10
aI2
aI4
aI8
aI4
aI2
aI8
aI4
aI4
aI2
aI2
aI2
aI12
aI2
aI2
aI2
aI10
aI2
aI2
aI10
aI4
aI2
aI2
aI2
aI2
aI2
aI4
aI2
aI4
aI2
aI2
aI6
aI12
aI6
aI12
aI2
aI4
aI12
asS'num_nodes'
p5
(lp6
I11
aI2
aI8
aI1
aI14
aI1
aI6
aI17
aI6
aI1
aI2
aI8
aI1
aI1
aI3
aI1
aI3
aI1
aI2
aI4
aI5
aI2
aI1
aI1
aI5
aI28
aI1
aI1
aI4
aI1
aI1
aI4
aI2
aI1
aI8
aI4
aI10
aI1
aI6
aI4
aI4
aI6
aI2
aI2
aI8
aI1
aI4
aI23
aI2
aI5
aI1
aI3
aI1
aI1
aI3
aI1
aI1
aI3
aI3
aI3
aI1
aI2
aI4
aI1
aI1
aI1
aI1
aI7
aI4
aI4
aI3
aI1
aI1
aI3
aI1
aI2
aI4
aI1
aI1
aI9
aI1
aI2
aI1
aI2
aI3
aI1
aI1
aI2
aI23
aI1
aI6
aI1
aI13
aI2
aI10
aI1
aI26
aI24
aI38
aI10
aI1
aI2
aI53
aI1
aI1
aI1
aI4
aI3
aI2
aI1
aI7
aI5
aI2
aI15
aI2
aI8
aI2
aI6
aI2
aI12
aI4
aI1
aI4
aI1
aI2
aI1
aI8
aI1
aI6
aI2
aI2
aI1
aI1
aI2
aI2
aI1
aI5
aI1
aI6
aI34
aI41
aI123
aI2
aI17
aI1
aI8
aI9
aI2
aI10
aI1
aI4
aI1
aI12
aI2
aI6
aI4
aI1
aI4
aI1
aI1
aI1
aI1
aI7
aI1
aI3
aI6
aI1
aI2
aI14
aI1
aI3
aI2
aI18
aI2
aI2
aI8
aI2
aI1
aI8
aI1
aI2
aI3
aI8
aI2
aI1
aI2
aI1
aI9
aI2
aI1
aI1
aI2
aI10
aI1
aI1
aI2
aI5
aI8
aI2
aI9
aI2
aI1
aI5
aI7
aI3
aI6
aI1
aI4
aI2
aI2
aI1
aI10
aI4
aI10
aI2
aI4
aI4
aI2
aI1
aI5
aI8
aI9
aI1
aI7
aI1
aI1
aI1
aI2
aI1
aI5
aI5
aI2
aI31
aI5
aI1
aI1
aI1
aI2
aI5
aI3
aI1
aI1
aI4
aI1
aI9
aI2
aI1
aI7
aI2
aI1
aI7
aI1
aI2
aI1
aI8
aI8
aI1
aI3
aI6
aI6
aI6
aI31
aI4
aI3
aI107
aI2
aI2
aI4
aI1
aI1
aI98
aI5
aI1
aI1
aI1
aI14
aI1
aI2
aI2
aI1
aI2
aI2
aI1
aI1
aI26
aI1
aI16
aI1
aI1
aI1
aI8
aI2
aI7
aI1
aI3
aI1
aI7
aI3
aI4
aI14
aI6
aI4
aI6
aI7
aI9
aI2
aI2
aI10
aI4
aI1
aI3
aI1
aI4
aI4
aI2
aI1
aI5
aI1
aI2
aI1
aI9
aI5
aI1
aI10
aI2
aI7
aI6
aI3
aI3
aI6
aI36
aI1
aI4
aI1
aI4
aI1
aI6
aI3
aI1
aI8
aI1
aI1
aI1
aI7
aI2
aI10
aI2
aI3
aI54
aI73
aI1
aI8
aI2
aI5
aI1
aI7
aI1
aI10
aI1
aI4
aI1
aI1
aI2
aI3
aI1
aI1
aI78
aI1
aI9
aI1
aI1
aI1
aI1
aI13
aI2
aI33
aI1
aI2
aI4
aI2
aI8
aI1
aI10
aI1
aI1
aI1
aI1
aI1
aI3
aI2
aI2
aI2
aI2
aI3
aI3
aI1
aI41
aI38
aI1
aI9
aI4
aI6
aI3
aI1
aI1
aI1
aI16
aI9
aI2
aI79
aI1
aI17
aI2
aI1
aI6
aI2
aI1
aI2
aI1
aI1
aI1
aI11
aI2
aI1
aI2
aI3
aI1
aI1
aI9
aI1
aI4
aI5
aI34
aI1
aI39
aI6
aI1
aI3
aI2
aI1
aI8
aI9
aI13
aI3
aI2
aI57
aI1
aI4
aI66
aI13
aI1
aI1
aI1
aI1
aI2
aI1
aI7
aI11
aI10
aI8
aI1
aI2
aI5
aI1
aI2
aI4
aI2
aI1
aI4
aI2
aI102
aI1
aI9
aI1
aI38
aI1
aI1
aI8
aI9
aI1
aI1
aI5
aI2
aI1
aI15
aI1
aI1
aI1
aI2
aI1
aI2
aI1
aI1
aI3
aI10
aI3
aI30
aI1
aI2
aI6
asS'times'
p7
(lp8
F120.63609409332275
aF14.79091191291809
aF600.2555201053619
aF5.5878729820251465
aF445.16576194763184
aF7.0427000522613525
aF48.09941482543945
aF115.57851696014404
aF470.64753103256226
aF5.761940956115723
aF9.79977798461914
aF95.47760605812073
aF6.022187948226929
aF6.683827877044678
aF14.034981966018677
aF7.153419017791748
aF20.841423988342285
aF6.391287803649902
aF10.32111406326294
aF30.39487385749817
aF32.96237397193909
aF11.40147089958191
aF6.344956159591675
aF4.982834815979004
aF31.977160930633545
aF341.5632379055023
aF6.505619049072266
aF6.146841049194336
aF20.13351011276245
aF4.680164098739624
aF6.808996915817261
aF36.64063906669617
aF10.559576988220215
aF8.568937063217163
aF63.63019585609436
aF20.235755920410156
aF127.1563229560852
aF7.1812660694122314
aF79.37759208679199
aF37.95496106147766
aF34.933067083358765
aF934.1797561645508
aF9.656188011169434
aF23.62267804145813
aF520.8426489830017
aF5.83715295791626
aF19.674456119537354
aF512.2356100082397
aF11.069298028945923
aF50.16923904418945
aF5.298642873764038
aF21.335741996765137
aF5.052321910858154
aF4.347241163253784
aF24.536420822143555
aF7.446113109588623
aF9.403888940811157
aF21.99624013900757
aF18.703012943267822
aF17.944594144821167
aF5.591881036758423
aF13.277068853378296
aF29.642373085021973
aF5.04040002822876
aF4.101494789123535
aF7.80488920211792
aF7.363245964050293
aF547.2179100513458
aF28.07267689704895
aF19.240097045898438
aF30.629411935806274
aF4.138122081756592
aF4.142019987106323
aF14.78302812576294
aF6.180299997329712
aF10.495944023132324
aF17.666873931884766
aF4.948691129684448
aF7.018154144287109
aF616.6612730026245
aF7.202919006347656
aF13.518462896347046
aF5.89672589302063
aF14.896606922149658
aF25.188238859176636
aF5.574540138244629
aF5.710139036178589
aF16.119821786880493
aF729.7762269973755
aF6.372751951217651
aF76.96164107322693
aF4.83398699760437
aF118.79161500930786
aF12.35508418083191
aF127.1144790649414
aF6.477112054824829
aF281.10046792030334
aF576.3786590099335
aF307.34638595581055
aF526.6658039093018
aF3.0575790405273438
aF13.91241979598999
aF448.1223440170288
aF3.4161431789398193
aF6.301537990570068
aF5.375014066696167
aF28.209409952163696
aF21.484133005142212
aF14.40716814994812
aF4.477587938308716
aF58.95874500274658
aF51.92265200614929
aF12.867520093917847
aF425.2791180610657
aF12.380537033081055
aF400.284863948822
aF11.875510931015015
aF331.1570029258728
aF20.85094904899597
aF642.4772801399231
aF31.992555856704712
aF6.0612030029296875
aF45.037261962890625
aF7.052070140838623
aF13.347726106643677
aF4.291179895401001
aF301.6859929561615
aF3.5725560188293457
aF53.47785711288452
aF12.334152936935425
aF20.97356390953064
aF4.7106170654296875
aF7.136555194854736
aF9.723275899887085
aF13.348362922668457
aF6.508088111877441
aF36.381805181503296
aF4.744121074676514
aF60.21231198310852
aF506.3654189109802
aF564.7178580760956
aF499.57569193840027
aF13.609987020492554
aF601.5652258396149
aF5.293169021606445
aF400.81536412239075
aF55.913848876953125
aF10.558099031448364
aF815.4157149791718
aF5.070850133895874
aF22.88858199119568
aF6.905680894851685
aF71.44709897041321
aF9.21707797050476
aF156.19156694412231
aF31.77548098564148
aF5.998289108276367
aF47.42990684509277
aF9.360322952270508
aF3.305483102798462
aF8.218421936035156
aF6.453881025314331
aF49.8449821472168
aF6.308852910995483
aF20.70743203163147
aF86.03381490707397
aF3.0599210262298584
aF15.151968002319336
aF214.64387202262878
aF7.076255798339844
aF13.593724966049194
aF11.364418029785156
aF369.6159288883209
aF12.596937894821167
aF13.87059211730957
aF1298.7229750156403
aF13.122059106826782
aF4.884986162185669
aF67.64199686050415
aF6.535547971725464
aF22.609008073806763
aF25.37745499610901
aF490.5348320007324
aF8.96300220489502
aF5.043134927749634
aF13.587749004364014
aF5.816293954849243
aF207.60931587219238
aF13.043548107147217
aF5.327283143997192
aF6.1738121509552
aF10.387404203414917
aF65.37991499900818
aF4.076575994491577
aF5.812477111816406
aF10.016003131866455
aF41.65279793739319
aF473.0893108844757
aF9.512241840362549
aF469.3995759487152
aF12.501793146133423
aF6.773091077804565
aF46.58450794219971
aF345.77552914619446
aF19.567646980285645
aF60.67085909843445
aF6.2579779624938965
aF66.33603596687317
aF16.58040690422058
aF10.885889053344727
aF5.0875020027160645
aF178.78517699241638
aF28.556716918945312
aF874.4519460201263
aF9.13077688217163
aF31.49996304512024
aF31.209578037261963
aF14.13774585723877
aF5.9613049030303955
aF45.75375699996948
aF168.99322199821472
aF66.73316597938538
aF8.589417934417725
aF45.211766958236694
aF5.705440998077393
aF7.026148080825806
aF5.181751012802124
aF8.509814977645874
aF3.954591989517212
aF45.918455839157104
aF47.828351974487305
aF12.789472818374634
aF335.9958620071411
aF22.875322103500366
aF5.478738069534302
aF4.993229150772095
aF4.074126958847046
aF15.756155014038086
aF38.28794598579407
aF23.529794931411743
aF7.418884992599487
aF5.166269779205322
aF25.968093872070312
aF7.016052961349487
aF433.6188509464264
aF10.27106499671936
aF3.328566074371338
aF558.8224849700928
aF10.225612878799438
aF6.501671075820923
aF451.84180903434753
aF8.67404317855835
aF18.45707106590271
aF4.872550010681152
aF104.00140404701233
aF81.86096000671387
aF4.661801099777222
aF21.248560905456543
aF60.644155979156494
aF40.18915510177612
aF105.64218282699585
aF362.4741139411926
aF34.19186997413635
aF22.18673801422119
aF301.5073330402374
aF11.488680124282837
aF11.50893497467041
aF107.74171710014343
aF7.69920802116394
aF4.020498991012573
aF306.85677003860474
aF53.08335208892822
aF5.4546098709106445
aF4.971621990203857
aF4.569460153579712
aF85.82186889648438
aF3.016792058944702
aF14.964164972305298
aF9.482860088348389
aF4.277337074279785
aF15.266462087631226
aF18.216772079467773
aF6.7260589599609375
aF4.810229063034058
aF397.0670819282532
aF4.912544012069702
aF149.93905401229858
aF7.338529109954834
aF4.601125955581665
aF7.376093864440918
aF89.06867003440857
aF12.941102027893066
aF358.5338351726532
aF7.401278972625732
aF17.27336096763611
aF3.693042039871216
aF137.00660300254822
aF18.592210054397583
aF24.12117600440979
aF159.22741413116455
aF39.422220945358276
aF26.060770988464355
aF43.956615924835205
aF392.6739180088043
aF90.92910313606262
aF9.141340970993042
aF15.449196815490723
aF899.5243098735809
aF46.31031894683838
aF4.104139804840088
aF19.002496004104614
aF6.937422037124634
aF20.865170001983643
aF78.11889505386353
aF24.011570930480957
aF4.365396022796631
aF745.0874330997467
aF6.59106707572937
aF13.434071063995361
aF3.981829881668091
aF561.6566009521484
aF36.62904715538025
aF3.6424660682678223
aF674.532585144043
aF16.81700301170349
aF636.3232579231262
aF119.89986801147461
aF25.756325006484985
aF24.260720014572144
aF163.04007196426392
aF338.6141929626465
aF4.46639084815979
aF38.28886008262634
aF10.136484146118164
aF41.08247208595276
aF8.855522155761719
aF64.71897292137146
aF23.255250930786133
aF6.672536134719849
aF153.27364683151245
aF6.484556198120117
aF7.183846950531006
aF3.810292959213257
aF64.00208902359009
aF12.510103940963745
aF209.03968596458435
aF29.463152170181274
aF23.35554790496826
aF471.1466498374939
aF725.1228578090668
aF7.020192861557007
aF493.71778893470764
aF19.052218914031982
aF50.391002893447876
aF6.307190179824829
aF586.126874923706
aF4.492159843444824
aF203.11888599395752
aF8.223177194595337
aF39.53257513046265
aF6.885318040847778
aF4.615708827972412
aF11.029019832611084
aF22.999729871749878
aF5.713865041732788
aF5.790008068084717
aF301.95099401474
aF6.009466171264648
aF141.75060510635376
aF10.164408922195435
aF13.007426977157593
aF6.7428929805755615
aF4.192765951156616
aF156.8534390926361
aF10.611857891082764
aF413.56823992729187
aF6.112289905548096
aF9.704493999481201
aF33.99965310096741
aF10.523594856262207
aF52.32222390174866
aF7.5908098220825195
aF838.9931900501251
aF4.527318000793457
aF4.369744062423706
aF6.550286054611206
aF3.3553080558776855
aF4.13081693649292
aF12.253489971160889
aF15.381441831588745
aF11.655164003372192
aF20.171252965927124
aF24.491316080093384
aF20.534652948379517
aF18.725623846054077
aF4.63678503036499
aF228.62112021446228
aF348.21740794181824
aF7.168762922286987
aF805.3437750339508
aF40.80122995376587
aF40.34141492843628
aF18.746506929397583
aF11.50844693183899
aF5.931472063064575
aF2.6779000759124756
aF77.26241612434387
aF117.03761100769043
aF13.329079151153564
aF1144.9870660305023
aF6.495980978012085
aF137.23858308792114
aF12.459975004196167
aF5.5996129512786865
aF143.84734892845154
aF12.556519031524658
aF8.667006969451904
aF12.733742952346802
aF3.8763930797576904
aF7.451800107955933
aF5.970110893249512
aF157.16185402870178
aF15.746031999588013
aF4.248564004898071
aF19.297990798950195
aF22.062722206115723
aF4.2055230140686035
aF5.806464910507202
aF54.78866696357727
aF5.647194862365723
aF23.023502111434937
aF46.23747396469116
aF322.04441499710083
aF7.245314121246338
aF849.1361620426178
aF80.51814079284668
aF6.538319826126099
aF12.69929814338684
aF24.654866933822632
aF7.655267000198364
aF1086.25354886055
aF634.8981459140778
aF312.0401690006256
aF20.67351198196411
aF10.274064779281616
aF455.22445487976074
aF16.790848970413208
aF23.933892011642456
aF664.9138979911804
aF782.0828440189362
aF4.0436999797821045
aF4.9400880336761475
aF3.5309550762176514
aF5.263720989227295
aF11.16185712814331
aF5.797267913818359
aF235.22952795028687
aF54.90239596366882
aF80.1079568862915
aF983.4169619083405
aF8.827098846435547
aF10.504990816116333
aF66.1775290966034
aF7.624524116516113
aF19.738579988479614
aF33.74343204498291
aF22.789756059646606
aF7.012059926986694
aF45.284595012664795
aF19.333451986312866
aF301.32163286209106
aF5.454008102416992
aF339.0431749820709
aF5.993399143218994
aF328.2347638607025
aF5.2720420360565186
aF6.587612152099609
aF783.1265201568604
aF62.02637004852295
aF6.82936692237854
aF5.474640130996704
aF189.22176909446716
aF14.75649118423462
aF8.389833927154541
aF850.4380960464478
aF4.234545946121216
aF4.245807886123657
aF7.282782077789307
aF13.496783018112183
aF11.127599954605103
aF13.594299793243408
aF6.402998924255371
aF6.279721975326538
aF21.69401717185974
aF87.19154000282288
aF21.669888973236084
aF323.4193208217621
aF5.662552118301392
aF11.63835096359253
aF41.66168689727783
as.