(dp0
S'successes'
p1
(lp2
I01
aI01
aI01
aI01
aI01
aI00
aI00
aI01
aI01
aI01
aI01
aI01
aI01
aI01
aI01
aI01
aI01
aI01
aI01
aI01
aI01
aI01
aI01
aI01
aI01
aI01
aI01
aI01
aI01
aI01
aI01
aI01
aI01
aI01
aI01
aI01
aI01
aI01
aI01
aI01
aI01
aI01
aI01
aI00
aI01
aI01
aI01
aI01
aI01
aI01
aI01
aI01
aI00
aI01
aI01
aI01
aI01
aI01
aI00
aI01
aI00
aI01
aI01
aI00
aI00
aI01
aI00
aI01
aI01
aI01
aI00
aI01
aI00
aI00
aI01
aI01
aI01
aI00
aI01
aI01
aI01
aI01
aI01
aI01
aI01
aI01
aI01
aI01
aI01
aI01
aI01
aI01
aI01
aI01
aI01
aI01
aI01
aI01
aI01
aI01
aI01
aI01
aI01
aI01
aI01
aI01
aI01
aI01
aI01
aI01
aI01
aI01
aI01
aI00
aI00
aI01
aI01
aI01
aI01
aI01
aI01
aI01
aI01
aI01
aI01
aI01
aI01
aI00
aI00
aI00
aI01
aI01
aI01
aI01
aI01
aI01
aI01
aI01
aI01
aI01
aI01
aI00
aI00
aI01
aI01
aI01
aI01
aI01
aI00
aI01
aI01
aI01
aI01
aI00
aI00
aI00
aI01
aI00
aI01
aI01
aI01
aI01
aI01
aI00
aI01
aI01
aI01
aI01
aI00
aI01
aI01
aI01
aI01
aI01
aI00
aI00
aI01
aI01
aI01
aI00
aI00
aI00
aI01
aI01
aI01
aI01
aI01
aI01
aI00
aI01
aI01
aI01
aI01
aI01
aI01
aI01
aI00
aI01
aI01
aI01
aI01
aI01
aI01
aI01
aI01
aI01
aI01
aI01
aI01
aI01
aI00
aI00
aI01
aI01
aI01
aI01
aI01
aI01
aI01
aI01
aI01
aI01
aI01
aI01
aI01
aI01
aI01
aI01
aI01
aI01
aI01
aI01
aI01
aI01
aI01
aI01
aI01
aI01
aI01
aI01
aI01
aI01
aI01
aI01
aI01
aI01
aI01
aI01
aI00
aI01
aI01
aI01
aI01
aI01
aI01
aI01
aI01
aI01
aI01
aI00
aI00
aI01
aI01
aI01
aI01
aI01
aI01
aI01
aI01
aI01
aI01
aI01
aI01
aI01
aI01
aI01
aI01
aI01
aI01
aI01
aI00
aI00
aI00
aI01
aI01
aI01
aI01
aI01
aI01
aI01
aI01
aI01
aI01
aI01
aI00
aI01
aI01
aI01
aI01
aI00
aI01
aI01
aI00
aI01
aI00
aI01
aI01
aI01
aI01
aI01
aI01
aI01
aI00
aI01
aI01
aI01
aI01
aI00
aI01
aI01
aI01
aI01
aI01
aI01
aI01
aI01
aI01
aI01
aI01
aI00
aI01
aI01
aI01
aI00
aI01
aI01
aI01
aI01
aI01
aI00
aI01
aI01
aI01
aI01
aI01
aI01
aI01
aI01
aI01
aI00
aI01
aI01
aI01
aI01
aI01
aI01
aI01
aI00
aI01
aI01
aI00
aI00
aI00
aI01
aI01
aI01
aI00
aI01
aI01
aI01
aI01
aI01
aI01
aI01
aI01
aI00
aI01
aI01
aI01
aI01
aI00
aI01
aI01
aI01
aI01
aI01
aI01
aI01
aI01
aI01
aI01
aI01
aI01
aI01
aI00
aI01
aI00
aI01
aI01
asS'num_nodes'
p3
(lp4
I19
aI17
aI19
aI63
aI13
aI180
aI21
aI74
aI127
aI15
aI19
aI29
aI26
aI52
aI14
aI38
aI20
aI49
aI23
aI26
aI20
aI23
aI26
aI18
aI34
aI18
aI17
aI78
aI18
aI37
aI12
aI23
aI18
aI14
aI151
aI33
aI26
aI57
aI19
aI41
aI33
aI23
aI67
aI252
aI16
aI17
aI11
aI68
aI16
aI12
aI11
aI237
aI13
aI14
aI27
aI19
aI16
aI18
aI17
aI25
aI310
aI24
aI20
aI220
aI116
aI18
aI11
aI13
aI14
aI29
aI64
aI18
aI43
aI267
aI11
aI37
aI148
aI207
aI157
aI13
aI60
aI27
aI16
aI11
aI25
aI18
aI182
aI17
aI107
aI23
aI21
aI138
aI40
aI13
aI11
aI22
aI176
aI17
aI24
aI24
aI16
aI15
aI119
aI9
aI53
aI111
aI15
aI44
aI75
aI12
aI9
aI22
aI50
aI89
aI263
aI62
aI42
aI13
aI35
aI31
aI17
aI17
aI13
aI11
aI61
aI13
aI16
aI199
aI276
aI308
aI31
aI72
aI18
aI46
aI16
aI17
aI21
aI18
aI14
aI47
aI39
aI91
aI179
aI20
aI27
aI97
aI218
aI31
aI20
aI60
aI22
aI82
aI32
aI223
aI18
aI104
aI12
aI153
aI15
aI10
aI14
aI40
aI134
aI463
aI10
aI18
aI54
aI15
aI132
aI22
aI14
aI23
aI27
aI23
aI116
aI15
aI12
aI51
aI48
aI15
aI87
aI48
aI10
aI24
aI10
aI16
aI67
aI15
aI41
aI105
aI26
aI13
aI15
aI33
aI12
aI21
aI392
aI29
aI20
aI11
aI15
aI13
aI19
aI13
aI24
aI22
aI178
aI27
aI54
aI132
aI97
aI275
aI37
aI38
aI96
aI18
aI27
aI48
aI60
aI31
aI23
aI14
aI17
aI64
aI13
aI16
aI21
aI16
aI59
aI21
aI41
aI23
aI28
aI34
aI37
aI36
aI19
aI23
aI38
aI15
aI26
aI30
aI25
aI23
aI112
aI38
aI52
aI34
aI41
aI18
aI14
aI116
aI12
aI15
aI28
aI16
aI21
aI60
aI11
aI36
aI208
aI16
aI12
aI20
aI40
aI37
aI40
aI36
aI25
aI18
aI32
aI19
aI17
aI19
aI18
aI12
aI10
aI34
aI20
aI78
aI25
aI31
aI8
aI313
aI21
aI66
aI41
aI15
aI58
aI35
aI16
aI13
aI45
aI13
aI302
aI21
aI30
aI16
aI22
aI44
aI35
aI23
aI538
aI19
aI164
aI20
aI32
aI27
aI21
aI15
aI11
aI10
aI13
aI37
aI21
aI16
aI41
aI218
aI28
aI17
aI16
aI75
aI16
aI34
aI93
aI83
aI38
aI43
aI23
aI193
aI29
aI103
aI32
aI14
aI20
aI13
aI12
aI43
aI23
aI26
aI20
aI15
aI20
aI50
aI10
aI16
aI16
aI22
aI20
aI261
aI24
aI104
aI28
aI13
aI121
aI45
aI18
aI283
aI21
aI36
aI30
aI12
aI32
aI13
aI12
aI16
aI164
aI13
aI31
aI15
aI127
aI15
aI13
aI9
aI18
aI220
aI14
aI12
aI17
aI66
aI21
aI32
aI46
aI22
aI11
aI22
aI25
aI16
aI20
aI18
aI19
aI16
aI13
aI15
aI477
aI35
aI26
aI8
aI13
asS'times'
p5
(lp6
F200.60506391525269
aF352.8932731151581
aF149.08317494392395
aF649.9885971546173
aF91.75084400177002
aF3765.829159975052
aF4081.1393208503723
aF1319.0684988498688
aF889.0195050239563
aF120.63246202468872
aF171.2874879837036
aF279.8902268409729
aF248.9941918849945
aF897.9059507846832
aF149.73706102371216
aF241.5989909172058
aF148.47895407676697
aF1235.4543070793152
aF301.33209896087646
aF649.595703125
aF366.25710916519165
aF186.5199739933014
aF187.79799008369446
aF118.68264412879944
aF712.9151229858398
aF168.91329407691956
aF136.70471787452698
aF615.1460859775543
aF141.95109391212463
aF946.3724720478058
aF67.44493103027344
aF178.84248399734497
aF161.2121980190277
aF117.6343789100647
aF2492.9196951389313
aF394.01157999038696
aF173.22343397140503
aF750.6624569892883
aF135.6309998035431
aF290.63060092926025
aF656.8680839538574
aF217.05710983276367
aF878.262640953064
aF6114.413724184036
aF383.56413102149963
aF130.1466999053955
aF83.7264358997345
aF416.10103487968445
aF126.60080313682556
aF72.00103497505188
aF69.00950479507446
aF1536.9415621757507
aF105.01666402816772
aF79.76094317436218
aF345.90573382377625
aF140.11195302009583
aF147.47498297691345
aF137.92787909507751
aF112.08542513847351
aF758.1682589054108
aF2404.4104437828064
aF183.13997101783752
aF142.18430995941162
aF2794.315421104431
aF2407.7924818992615
aF158.57266998291016
aF145.04623007774353
aF92.85795998573303
aF144.47498202323914
aF253.06478095054626
aF6887.020582199097
aF115.89262199401855
aF2473.8388929367065
aF2577.1488931179047
aF75.44637298583984
aF276.79779601097107
aF1531.0990951061249
aF3934.5565898418427
aF1264.3287110328674
aF79.89218783378601
aF540.4627921581268
aF229.95289206504822
aF143.38230299949646
aF66.7127799987793
aF185.7379069328308
aF212.36653685569763
aF2412.556986808777
aF143.33759593963623
aF2345.8151099681854
aF167.61912083625793
aF196.26844811439514
aF1086.4887318611145
aF1698.5769619941711
aF80.79715204238892
aF87.3802080154419
aF515.9951310157776
aF2399.076714992523
aF107.99293208122253
aF183.91311407089233
aF141.2788589000702
aF112.71709108352661
aF108.99669790267944
aF2420.569802045822
aF60.688928842544556
aF632.3123779296875
aF913.8664951324463
aF95.1892569065094
aF244.27160596847534
aF679.4893188476562
aF82.76936602592468
aF60.389389991760254
aF406.8134460449219
aF793.9742407798767
aF4969.293269872665
aF4592.2616539001465
aF578.2375509738922
aF795.6507580280304
aF72.3438549041748
aF233.8801028728485
aF1182.6821899414062
aF113.77668881416321
aF117.51989102363586
aF74.28028798103333
aF71.82765579223633
aF2306.7372210025787
aF90.46448397636414
aF117.25695419311523
aF2432.4514589309692
aF2783.6412200927734
aF2595.019497156143
aF194.39935111999512
aF1514.5443949699402
aF164.46556305885315
aF890.196515083313
aF146.61209893226624
aF105.28663897514343
aF155.20883893966675
aF151.90857005119324
aF129.3304340839386
aF849.9967720508575
aF645.8194048404694
aF2826.221044778824
aF1329.2731120586395
aF163.49524188041687
aF176.90910601615906
aF1698.45738697052
aF2034.2656559944153
aF230.57848596572876
aF117.27614688873291
aF1392.7519619464874
aF166.2742178440094
aF1047.0980200767517
aF365.2558009624481
aF2776.385048866272
aF870.6269941329956
aF2406.476541042328
aF81.79116296768188
aF4434.885798931122
aF120.85513615608215
aF80.05540490150452
aF90.76270318031311
aF378.6347680091858
aF1394.8965899944305
aF2455.3329339027405
aF74.61293005943298
aF146.60992193222046
aF505.0432138442993
aF95.28632116317749
aF3371.7416038513184
aF211.01759004592896
aF96.2484610080719
aF181.19710087776184
aF195.34577202796936
aF123.79894304275513
aF3352.193058013916
aF3472.6863310337067
aF78.53847694396973
aF620.3892941474915
aF491.0235550403595
aF3206.95294713974
aF5429.249479055405
aF3205.2893159389496
aF61.40980005264282
aF1291.0143730640411
aF59.26923894882202
aF170.40340304374695
aF1895.6238651275635
aF95.53897786140442
aF2424.091672182083
aF720.4054789543152
aF181.02624011039734
aF96.11638689041138
aF106.23542904853821
aF205.23807406425476
aF87.18195390701294
aF208.53395295143127
aF2510.8148760795593
aF264.1503019332886
aF134.01774096488953
aF67.00835108757019
aF109.00690412521362
aF89.10170102119446
aF115.59093284606934
aF147.9407091140747
aF368.63201117515564
aF251.31006503105164
aF2040.6288061141968
aF160.93254804611206
aF801.8881769180298
aF542.7430150508881
aF3365.792083978653
aF6171.99645113945
aF238.43383812904358
aF184.21648788452148
aF1712.216710805893
aF124.81870698928833
aF155.75690507888794
aF378.67225098609924
aF531.776153087616
aF221.5630178451538
aF213.18330097198486
aF89.05139493942261
aF136.27190017700195
aF625.3717589378357
aF83.74604511260986
aF98.53217911720276
aF126.79156112670898
aF108.23707509040833
aF968.4513349533081
aF155.93564009666443
aF1428.4924228191376
aF208.9191370010376
aF205.83510398864746
aF536.504683971405
aF318.0481379032135
aF432.645525932312
aF133.38916611671448
aF282.30087304115295
aF335.1162757873535
aF97.25452518463135
aF244.35074710845947
aF264.8758819103241
aF744.9681310653687
aF277.28437900543213
aF865.8247377872467
aF541.575756072998
aF554.8591911792755
aF267.5034167766571
aF2706.9058730602264
aF103.8201150894165
aF113.04356503486633
aF1628.7072131633759
aF84.59783697128296
aF110.78499388694763
aF286.45945596694946
aF151.7298140525818
aF161.5048050880432
aF1183.5322470664978
aF77.22035503387451
aF3620.0385689735413
aF2631.778079032898
aF172.47427201271057
aF93.534597158432
aF133.28953003883362
aF496.20638704299927
aF409.69049978256226
aF268.82009100914
aF452.3005681037903
aF177.82674288749695
aF115.898677110672
aF1178.2345128059387
aF154.32440304756165
aF127.84779381752014
aF173.1243109703064
aF379.6979238986969
aF87.34958720207214
aF54.79556608200073
aF193.7220389842987
aF128.34530401229858
aF1028.2010650634766
aF4675.251713037491
aF3967.1087789535522
aF44.631304025650024
aF1619.071699142456
aF159.91362118721008
aF409.29193115234375
aF962.9416680335999
aF98.95559692382812
aF587.0478529930115
aF572.7989249229431
aF91.12487316131592
aF80.11869382858276
aF438.333566904068
aF111.71624708175659
aF2439.361825942993
aF144.9133780002594
aF254.8709099292755
aF94.68390583992004
aF186.31684708595276
aF2443.9495899677277
aF194.16081404685974
aF521.7028000354767
aF5319.609883069992
aF128.12032294273376
aF2668.072958946228
aF163.6438000202179
aF262.3003249168396
aF204.50214791297913
aF141.07106494903564
aF104.28290796279907
aF112.34695196151733
aF70.81907892227173
aF3914.7228050231934
aF424.13704013824463
aF212.55523204803467
aF140.45445489883423
aF685.2157740592957
aF3077.272348880768
aF573.4675030708313
aF238.19355297088623
aF174.96809315681458
aF657.0877349376678
aF141.825679063797
aF268.06324315071106
aF1396.4240939617157
aF1173.6582651138306
aF550.1963348388672
aF406.3890221118927
aF137.50920414924622
aF2616.820381164551
aF467.8410861492157
aF565.9146661758423
aF1107.62446808815
aF2528.5744709968567
aF135.15290808677673
aF95.84551215171814
aF68.37964987754822
aF403.530473947525
aF272.39914417266846
aF2409.37828707695
aF207.90652108192444
aF101.49481081962585
aF238.27560591697693
aF861.8924279212952
aF54.91400504112244
aF493.967973947525
aF101.09452199935913
aF211.58562183380127
aF135.8049008846283
aF2974.9708411693573
aF173.01612210273743
aF1377.7765460014343
aF192.92230916023254
aF91.37499809265137
aF1103.5660800933838
aF1874.442958831787
aF108.79439091682434
aF2401.740026950836
aF175.40314102172852
aF243.7940158843994
aF503.83192014694214
aF2771.2094769477844
aF2592.698307991028
aF84.11137104034424
aF84.70354700088501
aF116.82553100585938
aF3126.330501794815
aF71.91260886192322
aF273.1338710784912
aF98.66740107536316
aF1238.492779970169
aF98.50112199783325
aF106.62506890296936
aF63.69038486480713
aF159.38377380371094
aF2445.01474404335
aF86.22514510154724
aF65.98115801811218
aF103.95383501052856
aF1352.3909590244293
aF1554.5499868392944
aF330.0071830749512
aF362.21636605262756
aF685.2069399356842
aF94.45288705825806
aF1351.194175004959
aF233.62525486946106
aF124.55155491828918
aF156.23130583763123
aF255.5893919467926
aF155.71370697021484
aF118.18939995765686
aF94.137934923172
aF103.98259592056274
aF5413.784275054932
aF329.0410978794098
aF2939.8694610595703
aF60.56465482711792
aF87.82718181610107
as.