(dp0
S'successes'
p1
(lp2
I01
aI01
aI01
aI01
aI01
aI00
aI01
aI01
aI01
aI00
aI01
aI01
aI01
aI01
aI01
aI01
aI01
aI00
aI01
aI01
aI00
aI00
aI01
aI01
aI01
aI01
aI00
aI01
aI01
aI01
aI01
aI01
aI01
aI01
aI01
aI01
aI01
aI01
aI01
aI01
aI01
aI01
aI01
aI01
aI01
aI01
aI01
aI01
aI01
aI01
aI01
aI01
aI01
aI01
aI01
aI01
aI01
aI01
aI01
aI00
aI01
aI01
aI00
aI01
aI01
aI00
aI01
aI01
aI01
aI00
aI01
aI00
aI01
aI01
aI01
aI01
aI01
aI01
aI01
aI01
aI00
aI01
aI01
aI01
aI01
aI01
aI01
aI00
aI01
aI01
aI01
aI01
aI00
aI01
aI01
aI01
aI00
aI01
aI01
aI01
aI01
aI01
aI01
aI00
aI01
aI01
aI01
aI01
aI00
aI01
aI01
aI01
aI01
aI01
aI01
aI01
aI01
aI00
aI01
aI01
aI01
aI01
aI01
aI00
aI01
aI01
aI00
aI01
aI01
aI01
aI01
aI01
aI01
aI01
aI01
aI01
aI01
aI01
aI01
aI01
aI01
aI01
aI01
aI01
aI01
aI01
aI01
aI01
aI01
aI01
aI01
aI01
aI01
aI01
aI01
aI01
aI01
aI01
aI01
aI01
aI01
aI01
aI01
aI01
aI00
aI01
aI01
aI01
aI01
aI01
aI01
aI01
aI01
aI01
aI01
aI01
aI01
aI01
aI01
aI01
aI01
aI01
aI01
aI01
aI01
aI01
aI01
aI01
aI01
aI01
aI01
aI01
aI01
aI01
aI01
aI01
aI01
aI01
aI01
aI01
aI01
aI01
aI01
aI01
aI01
aI01
aI01
aI01
aI01
aI01
aI01
aI01
aI01
aI01
aI01
aI00
aI01
aI01
aI01
aI01
aI01
aI01
aI01
aI01
aI01
aI00
aI00
aI01
aI01
aI01
aI00
aI01
aI01
aI01
aI01
aI01
aI00
aI01
aI00
aI01
aI01
aI01
aI01
aI01
aI01
aI01
aI01
aI01
aI01
aI00
aI01
aI01
aI01
aI01
aI01
aI01
aI01
aI00
aI01
aI01
aI01
aI01
aI01
aI01
aI01
aI01
aI01
aI01
aI00
aI01
aI01
aI01
aI01
aI01
aI01
aI01
aI01
aI01
aI01
aI01
aI00
aI01
aI01
aI01
aI01
aI01
aI01
aI01
aI01
aI01
aI01
aI01
aI01
aI01
aI01
aI01
aI01
aI01
aI01
aI01
aI00
aI01
aI00
aI01
aI01
aI01
aI01
aI01
aI01
aI01
aI01
aI00
aI01
aI01
aI01
aI01
aI01
aI01
aI01
aI00
aI01
aI01
aI01
aI01
aI01
aI01
aI01
aI00
aI01
aI01
aI01
aI01
aI01
aI01
aI01
aI01
aI01
aI01
aI00
aI00
aI00
aI01
aI01
aI01
aI01
aI01
aI01
aI01
aI01
aI01
aI01
aI01
aI01
aI01
aI01
aI01
aI01
aI01
aI01
aI01
aI01
aI00
aI01
aI00
aI01
aI00
aI01
aI01
aI01
aI01
aI01
aI01
aI01
aI01
aI00
aI01
aI00
aI01
aI01
aI01
aI01
aI01
aI00
aI01
aI01
aI01
aI01
aI01
aI01
aI01
aI01
aI01
aI01
aI01
aI01
aI01
aI01
aI01
aI01
aI01
aI01
aI00
aI01
aI01
aI01
aI00
aI01
aI01
aI01
aI01
aI01
aI01
aI01
aI01
aI01
aI01
aI01
aI01
aI01
aI01
aI01
aI01
aI01
aI01
aI00
aI01
aI01
aI00
aI00
aI01
aI01
aI01
aI01
aI01
aI01
aI01
aI01
aI01
aI00
aI01
aI00
aI01
aI00
aI01
aI01
aI01
aI01
aI01
aI01
aI01
aI01
aI01
aI01
aI01
aI01
aI01
aI01
aI01
aI01
aI01
aI01
aI01
aI01
aI01
aI01
aI00
aI01
aI00
aI01
aI01
aI01
aI00
aI01
aI01
aI01
aI01
aI01
aI01
aI01
aI01
aI01
aI01
aI01
aI01
aI01
aI01
aI01
aI01
aI01
aI01
aI01
aI01
aI00
aI01
aI01
aI01
aI01
aI01
aI01
aI01
asS'pidxs'
p3
(lp4
I20086
aI20021
aI20072
aI20045
aI20027
aI20059
aI20097
aI20064
aI20016
aI20081
aI20040
aI20052
aI20001
aI20088
aI20016
aI20090
aI20091
aI20044
aI20046
aI20086
aI20019
aI20044
aI20081
aI20048
aI20039
aI20040
aI20019
aI20042
aI20049
aI20001
aI20074
aI20064
aI20039
aI20060
aI20080
aI20058
aI20068
aI20083
aI20009
aI20060
aI20095
aI20021
aI20001
aI20030
aI20011
aI20057
aI20006
aI20040
aI20057
aI20025
aI20004
aI20052
aI20031
aI20078
aI20038
aI20032
aI20001
aI20095
aI20067
aI20022
aI20089
aI20012
aI20018
aI20003
aI20015
aI20010
aI20005
aI20067
aI20076
aI20033
aI20047
aI20019
aI20025
aI20051
aI20045
aI20091
aI20035
aI20076
aI20094
aI20074
aI20059
aI20064
aI20077
aI20032
aI20015
aI20020
aI20069
aI20042
aI20075
aI20071
aI20064
aI20094
aI20059
aI20066
aI20020
aI20053
aI20065
aI20040
aI20034
aI20016
aI20062
aI20038
aI20000
aI20095
aI20053
aI20080
aI20050
aI20041
aI20008
aI20036
aI20024
aI20014
aI20076
aI20003
aI20016
aI20072
aI20021
aI20065
aI20080
aI20099
aI20093
aI20099
aI20042
aI20019
aI20072
aI20055
aI20056
aI20047
aI20099
aI20068
aI20023
aI20091
aI20004
aI20019
aI20026
aI20007
aI20033
aI20090
aI20070
aI20037
aI20094
aI20023
aI20075
aI20025
aI20030
aI20061
aI20085
aI20087
aI20052
aI20080
aI20015
aI20063
aI20046
aI20067
aI20044
aI20051
aI20078
aI20098
aI20039
aI20099
aI20075
aI20039
aI20088
aI20031
aI20033
aI20054
aI20083
aI20033
aI20053
aI20052
aI20069
aI20058
aI20069
aI20075
aI20035
aI20081
aI20011
aI20018
aI20029
aI20098
aI20020
aI20008
aI20025
aI20090
aI20071
aI20066
aI20017
aI20028
aI20008
aI20014
aI20023
aI20021
aI20058
aI20037
aI20003
aI20088
aI20023
aI20060
aI20010
aI20071
aI20029
aI20030
aI20076
aI20095
aI20004
aI20010
aI20096
aI20003
aI20047
aI20037
aI20041
aI20088
aI20054
aI20092
aI20000
aI20084
aI20032
aI20043
aI20043
aI20020
aI20013
aI20030
aI20063
aI20092
aI20028
aI20049
aI20056
aI20007
aI20062
aI20081
aI20065
aI20044
aI20006
aI20016
aI20093
aI20077
aI20005
aI20048
aI20087
aI20079
aI20008
aI20080
aI20059
aI20035
aI20066
aI20092
aI20017
aI20012
aI20017
aI20065
aI20051
aI20043
aI20082
aI20089
aI20054
aI20007
aI20032
aI20024
aI20077
aI20050
aI20073
aI20011
aI20035
aI20094
aI20052
aI20008
aI20060
aI20079
aI20063
aI20062
aI20083
aI20074
aI20068
aI20094
aI20096
aI20050
aI20036
aI20078
aI20048
aI20060
aI20018
aI20048
aI20072
aI20093
aI20097
aI20038
aI20082
aI20015
aI20004
aI20098
aI20061
aI20006
aI20013
aI20083
aI20000
aI20078
aI20098
aI20038
aI20047
aI20084
aI20079
aI20026
aI20006
aI20041
aI20070
aI20090
aI20082
aI20020
aI20002
aI20034
aI20069
aI20048
aI20057
aI20026
aI20013
aI20055
aI20093
aI20097
aI20026
aI20022
aI20056
aI20043
aI20002
aI20083
aI20027
aI20064
aI20027
aI20044
aI20091
aI20012
aI20089
aI20097
aI20024
aI20091
aI20014
aI20087
aI20031
aI20000
aI20061
aI20022
aI20097
aI20010
aI20096
aI20093
aI20084
aI20087
aI20036
aI20045
aI20054
aI20039
aI20077
aI20002
aI20028
aI20046
aI20055
aI20040
aI20082
aI20077
aI20096
aI20073
aI20085
aI20084
aI20036
aI20015
aI20058
aI20057
aI20029
aI20014
aI20050
aI20009
aI20029
aI20070
aI20087
aI20018
aI20051
aI20051
aI20005
aI20027
aI20021
aI20056
aI20038
aI20001
aI20063
aI20075
aI20054
aI20029
aI20073
aI20061
aI20058
aI20071
aI20053
aI20063
aI20071
aI20066
aI20002
aI20076
aI20009
aI20062
aI20006
aI20025
aI20068
aI20034
aI20002
aI20034
aI20042
aI20026
aI20031
aI20000
aI20055
aI20073
aI20092
aI20012
aI20082
aI20049
aI20074
aI20073
aI20014
aI20046
aI20018
aI20027
aI20053
aI20005
aI20095
aI20069
aI20009
aI20089
aI20061
aI20022
aI20004
aI20033
aI20012
aI20042
aI20089
aI20013
aI20049
aI20074
aI20017
aI20086
aI20043
aI20023
aI20010
aI20047
aI20065
aI20017
aI20067
aI20031
aI20037
aI20030
aI20067
aI20003
aI20013
aI20045
aI20070
aI20045
aI20085
aI20057
aI20007
aI20024
aI20050
aI20096
aI20011
aI20037
aI20041
aI20088
aI20041
aI20022
aI20055
aI20079
aI20049
aI20028
aI20085
aI20059
aI20098
aI20046
aI20092
aI20099
aI20079
aI20086
aI20035
aI20062
aI20005
aI20081
aI20090
aI20034
aI20011
aI20068
aI20009
aI20024
aI20070
aI20032
aI20028
aI20007
aI20084
aI20085
aI20066
aI20072
aI20036
aI20078
aI20056
aI20086
asS'plan_length'
p5
(lp6
I12
aI2
aI8
aI4
aI4
aI4
aI4
aI4
aI4
aI4
aI2
aI4
aI8
aI2
aI4
aI2
aI2
aI2
aI4
aI2
aI2
aI2
aI8
aI12
aI2
aI2
aI2
aI10
aI6
aI4
aI4
aI8
aI2
aI12
aI2
aI8
aI4
aI4
aI6
aI16
aI8
aI2
aI4
aI2
aI4
aI4
aI6
aI4
aI12
aI8
aI12
aI8
aI8
aI6
aI10
aI8
aI14
aI4
aI10
aI10
aI2
aI2
aI2
aI2
aI2
aI2
aI8
aI6
aI4
aI4
aI10
aI10
aI4
aI10
aI6
aI2
aI12
aI4
aI2
aI4
aI4
aI10
aI2
aI8
aI2
aI2
aI2
aI2
aI2
aI2
aI4
aI2
aI2
aI2
aI2
aI14
aI14
aI2
aI8
aI2
aI2
aI10
aI4
aI4
aI8
aI2
aI8
aI6
aI6
aI2
aI8
aI8
aI4
aI2
aI2
aI10
aI2
aI2
aI2
aI2
aI2
aI6
aI12
aI12
aI4
aI2
aI2
aI10
aI2
aI4
aI2
aI2
aI12
aI8
aI10
aI2
aI10
aI2
aI2
aI10
aI2
aI2
aI2
aI8
aI2
aI6
aI4
aI6
aI2
aI2
aI2
aI16
aI6
aI12
aI12
aI4
aI10
aI12
aI2
aI2
aI2
aI2
aI4
aI16
aI16
aI2
aI2
aI8
aI4
aI2
aI2
aI2
aI2
aI2
aI4
aI6
aI4
aI4
aI4
aI6
aI2
aI16
aI4
aI6
aI2
aI2
aI2
aI2
aI8
aI10
aI2
aI2
aI2
aI12
aI2
aI2
aI2
aI6
aI16
aI2
aI10
aI2
aI4
aI4
aI12
aI8
aI8
aI2
aI6
aI6
aI2
aI2
aI2
aI4
aI4
aI4
aI6
aI2
aI2
aI2
aI2
aI2
aI4
aI4
aI4
aI4
aI4
aI2
aI2
aI2
aI2
aI12
aI10
aI2
aI2
aI2
aI2
aI12
aI12
aI8
aI12
aI2
aI16
aI4
aI2
aI4
aI2
aI2
aI2
aI2
aI4
aI2
aI4
aI2
aI2
aI2
aI4
aI4
aI4
aI8
aI4
aI14
aI2
aI2
aI4
aI6
aI10
aI12
aI12
aI2
aI2
aI6
aI4
aI2
aI6
aI14
aI2
aI6
aI12
aI10
aI10
aI16
aI8
aI2
aI10
aI10
aI12
aI2
aI14
aI4
aI6
aI14
aI2
aI2
aI12
aI6
aI6
aI10
aI14
aI10
aI10
aI10
aI10
aI2
aI2
aI2
aI4
aI2
aI2
aI8
aI2
aI2
aI4
aI2
aI2
aI8
aI2
aI12
aI10
aI10
aI4
aI2
aI2
aI8
aI4
aI4
aI4
aI4
aI4
aI2
aI2
aI4
aI10
aI6
aI12
aI8
aI8
aI4
aI4
aI4
aI4
aI12
aI6
aI2
aI10
aI8
aI2
aI16
aI2
aI2
aI2
aI2
aI2
aI10
aI2
aI2
aI6
aI4
aI4
aI4
aI2
aI2
aI2
aI2
aI2
aI2
aI12
aI12
aI4
aI8
aI8
aI2
aI6
aI8
aI8
aI14
aI14
aI4
aI2
aI12
aI8
aI4
aI4
aI2
aI2
aI8
aI2
aI4
aI2
aI2
aI12
aI14
aI2
aI10
aI2
aI2
aI10
aI2
aI4
aI6
aI4
aI4
aI2
aI4
aI12
aI12
aI6
aI4
aI2
aI6
aI4
aI2
aI4
aI10
aI4
aI6
aI12
aI6
aI12
aI4
aI4
aI4
aI4
aI2
aI2
aI2
aI10
aI10
aI10
aI12
aI2
aI12
aI2
aI2
aI4
aI4
aI2
aI2
aI2
aI2
aI2
aI16
aI16
aI2
aI6
aI6
aI8
aI2
aI4
aI2
aI4
aI8
aI2
aI8
aI2
aI4
aI2
aI12
aI12
aI10
aI2
aI8
aI2
aI8
aI2
aI2
aI2
aI2
aI4
aI2
aI2
aI2
aI4
aI8
aI4
aI2
aI6
aI8
aI12
aI2
aI4
aI8
aI2
aI4
aI2
aI4
aI8
aI4
aI2
aI4
aI2
aI2
aI2
aI2
aI2
aI4
aI2
aI12
aI4
aI2
asS'num_nodes'
p7
(lp8
I38
aI1
aI4
aI14
aI2
aI7
aI2
aI2
aI2
aI7
aI1
aI2
aI4
aI1
aI2
aI1
aI1
aI66
aI2
aI1
aI14
aI31
aI4
aI41
aI1
aI1
aI13
aI8
aI3
aI2
aI2
aI4
aI1
aI9
aI1
aI4
aI2
aI2
aI16
aI8
aI17
aI1
aI2
aI1
aI2
aI2
aI3
aI2
aI6
aI4
aI17
aI4
aI7
aI3
aI33
aI4
aI14
aI2
aI5
aI73
aI1
aI1
aI9
aI1
aI1
aI15
aI4
aI3
aI2
aI34
aI5
aI13
aI2
aI5
aI3
aI1
aI18
aI2
aI1
aI2
aI10
aI9
aI1
aI4
aI1
aI1
aI1
aI9
aI1
aI1
aI2
aI1
aI23
aI1
aI1
aI7
aI123
aI1
aI4
aI1
aI1
aI11
aI2
aI10
aI4
aI1
aI4
aI3
aI9
aI1
aI4
aI4
aI2
aI1
aI1
aI5
aI1
aI102
aI1
aI1
aI1
aI3
aI6
aI7
aI2
aI1
aI6
aI5
aI1
aI2
aI1
aI1
aI9
aI10
aI5
aI1
aI5
aI1
aI1
aI5
aI1
aI1
aI1
aI4
aI1
aI3
aI2
aI3
aI1
aI1
aI1
aI8
aI3
aI6
aI30
aI2
aI7
aI6
aI1
aI1
aI1
aI1
aI2
aI10
aI28
aI1
aI1
aI4
aI2
aI1
aI1
aI1
aI1
aI1
aI2
aI3
aI2
aI2
aI2
aI3
aI1
aI26
aI2
aI3
aI1
aI1
aI1
aI1
aI4
aI5
aI1
aI1
aI1
aI6
aI1
aI1
aI1
aI3
aI24
aI1
aI6
aI1
aI2
aI2
aI8
aI10
aI4
aI1
aI3
aI3
aI1
aI1
aI1
aI2
aI2
aI39
aI3
aI1
aI1
aI1
aI1
aI1
aI2
aI2
aI2
aI8
aI7
aI1
aI1
aI1
aI98
aI10
aI5
aI1
aI1
aI1
aI10
aI13
aI38
aI4
aI6
aI12
aI9
aI2
aI1
aI2
aI1
aI1
aI1
aI107
aI2
aI1
aI2
aI1
aI1
aI1
aI2
aI9
aI2
aI4
aI2
aI9
aI1
aI1
aI2
aI3
aI10
aI6
aI8
aI1
aI1
aI3
aI2
aI1
aI3
aI7
aI1
aI3
aI9
aI5
aI12
aI34
aI4
aI1
aI6
aI14
aI6
aI1
aI9
aI2
aI3
aI7
aI1
aI1
aI6
aI3
aI3
aI6
aI7
aI10
aI10
aI8
aI8
aI1
aI1
aI1
aI2
aI1
aI1
aI4
aI1
aI8
aI2
aI1
aI1
aI4
aI1
aI13
aI26
aI57
aI2
aI1
aI1
aI4
aI2
aI2
aI2
aI36
aI2
aI1
aI1
aI8
aI5
aI3
aI6
aI10
aI4
aI2
aI7
aI38
aI17
aI6
aI3
aI1
aI9
aI4
aI1
aI8
aI1
aI1
aI1
aI1
aI1
aI5
aI1
aI1
aI3
aI2
aI2
aI2
aI1
aI79
aI1
aI7
aI1
aI10
aI6
aI6
aI2
aI4
aI4
aI1
aI3
aI4
aI6
aI9
aI9
aI2
aI1
aI6
aI4
aI2
aI8
aI1
aI1
aI4
aI1
aI10
aI1
aI1
aI6
aI7
aI1
aI5
aI1
aI1
aI5
aI1
aI2
aI3
aI2
aI8
aI1
aI2
aI8
aI31
aI7
aI2
aI1
aI3
aI2
aI1
aI2
aI5
aI2
aI3
aI6
aI3
aI8
aI2
aI2
aI2
aI2
aI1
aI8
aI1
aI5
aI54
aI5
aI16
aI1
aI6
aI1
aI1
aI2
aI2
aI1
aI1
aI15
aI1
aI23
aI8
aI78
aI1
aI3
aI3
aI4
aI1
aI2
aI1
aI2
aI4
aI1
aI11
aI1
aI2
aI1
aI10
aI6
aI5
aI1
aI4
aI1
aI9
aI1
aI53
aI1
aI8
aI2
aI1
aI1
aI8
aI2
aI4
aI2
aI1
aI3
aI4
aI8
aI1
aI2
aI4
aI1
aI2
aI1
aI2
aI11
aI2
aI1
aI2
aI1
aI1
aI41
aI1
aI1
aI2
aI1
aI8
aI2
aI1
asS'times'
p9
(lp10
F328.2347638607025
aF5.761940956115723
aF36.64063906669617
aF85.82186889648438
aF11.029019832611084
aF451.84180903434753
aF22.609008073806763
aF9.79977798461914
aF11.40147089958191
aF558.8224849700928
aF7.655267000198364
aF22.789756059646606
aF26.060770988464355
aF7.451800107955933
aF10.611857891082764
aF6.587612152099609
aF6.477112054824829
aF664.9138979911804
aF14.964164972305298
aF5.710139036178589
aF445.16576194763184
aF362.4741139411926
aF78.11889505386353
aF228.62112021446228
aF5.9613049030303955
aF8.855522155761719
aF782.0828440189362
aF81.86096000671387
aF17.944594144821167
aF14.75649118423462
aF12.510103940963745
aF19.240097045898438
aF4.248564004898071
aF634.8981459140778
aF8.223177194595337
aF30.39487385749817
aF11.50893497467041
aF9.141340970993042
aF77.26241612434387
aF600.2555201053619
aF137.23858308792114
aF7.376093864440918
aF13.043548107147217
aF5.293169021606445
aF11.63835096359253
aF13.348362922668457
aF14.034981966018677
aF15.266462087631226
aF143.84734892845154
aF107.74171710014343
aF115.57851696014404
aF46.31031894683838
aF58.95874500274658
aF30.629411935806274
aF413.56823992729187
aF28.07267689704895
aF214.64387202262878
aF13.609987020492554
aF189.22176909446716
aF725.1228578090668
aF7.282782077789307
aF6.2579779624938965
aF469.3995759487152
aF6.022187948226929
aF6.538319826126099
aF850.4380960464478
aF31.77548098564148
aF21.248560905456543
aF24.491316080093384
aF322.04441499710083
aF50.391002893447876
aF312.0401690006256
aF15.449196815490723
aF36.62904715538025
aF12.253489971160889
aF6.308852910995483
aF369.6159288883209
aF29.463152170181274
aF4.291179895401001
aF10.885889053344727
aF899.5243098735809
aF66.73316597938538
aF6.344956159591675
aF20.13351011276245
aF6.505619049072266
aF3.5725560188293457
aF7.076255798339844
aF805.3437750339508
aF6.009466171264648
aF3.981829881668091
aF11.655164003372192
aF4.993229150772095
aF512.2356100082397
aF5.812477111816406
aF4.076575994491577
aF358.5338351726532
aF499.57569193840027
aF7.80488920211792
aF39.53257513046265
aF4.347241163253784
aF4.884986162185669
aF120.63609409332275
aF12.867520093917847
aF874.4519460201263
aF31.49996304512024
aF6.484556198120117
aF34.19186997413635
aF22.999729871749878
aF561.6566009521484
aF5.327283143997192
aF31.992555856704712
aF37.95496106147766
aF24.011570930480957
aF4.020498991012573
aF6.112289905548096
aF46.58450794219971
aF6.535547971725464
aF301.32163286209106
aF7.168762922286987
aF5.713865041732788
aF4.142019987106323
aF18.746506929397583
aF105.64218282699585
aF392.6739180088043
aF18.216772079467773
aF11.50844693183899
aF934.1797561645508
aF41.65279793739319
aF5.298642873764038
aF13.91241979598999
aF3.693042039871216
aF6.495980978012085
aF55.913848876953125
aF127.1144790649414
aF31.977160930633545
aF5.474640130996704
aF50.16923904418945
aF7.153419017791748
aF5.806464910507202
aF32.96237397193909
aF5.5878729820251465
aF5.89672589302063
aF7.418884992599487
aF45.037261962890625
aF4.2055230140686035
aF21.669888973236084
aF24.654866933822632
aF19.567646980285645
aF4.680164098739624
aF9.360322952270508
aF5.166269779205322
aF400.284863948822
aF23.529794931411743
aF60.67085909843445
aF323.4193208217621
aF12.733742952346802
aF45.211766958236694
aF48.09941482543945
aF4.365396022796631
aF7.5908098220825195
aF6.808996915817261
aF4.661801099777222
aF13.587749004364014
aF526.6658039093018
aF341.5632379055023
aF4.104139804840088
aF4.138122081756592
aF33.74343204498291
aF15.381441831588745
aF3.8763930797576904
aF7.1812660694122314
aF4.601125955581665
aF8.389833927154541
aF5.705440998077393
aF20.171252965927124
aF24.260720014572144
aF11.488680124282837
aF20.85094904899597
aF10.558099031448364
aF25.188238859176636
aF4.0436999797821045
aF397.0670819282532
aF10.523594856262207
aF22.062722206115723
aF3.6424660682678223
aF6.391287803649902
aF4.83398699760437
aF5.4546098709106445
aF22.88858199119568
aF46.23747396469116
aF6.307190179824829
aF7.026148080825806
aF6.773091077804565
aF60.21231198310852
aF4.7106170654296875
aF6.279721975326538
aF4.982834815979004
aF20.534652948379517
aF576.3786590099335
aF3.305483102798462
aF40.18915510177612
aF5.043134927749634
aF23.62267804145813
aF14.40716814994812
aF104.00140404701233
aF178.78517699241638
aF24.12117600440979
aF5.797267913818359
aF21.99624013900757
aF14.78302812576294
aF6.501671075820923
aF5.998289108276367
aF4.948691129684448
aF8.96300220489502
aF11.069298028945923
aF849.1361620426178
aF13.593724966049194
aF8.218421936035156
aF8.827098846435547
aF4.9400880336761475
aF2.6779000759124756
aF8.67404317855835
aF13.277068853378296
aF9.656188011169434
aF11.16185712814331
aF1086.25354886055
aF586.126874923706
aF5.993399143218994
aF4.872550010681152
aF7.624524116516113
aF306.85677003860474
aF80.1079568862915
aF51.92265200614929
aF4.971621990203857
aF4.492159843444824
aF9.403888940811157
aF838.9931900501251
aF118.79161500930786
aF348.21740794181824
aF47.42990684509277
aF53.47785711288452
aF71.44709897041321
aF433.6188509464264
aF19.297990798950195
aF7.020192861557007
aF13.496783018112183
aF7.401278972625732
aF4.527318000793457
aF5.375014066696167
aF301.5073330402374
aF8.509814977645874
aF8.568937063217163
aF12.459975004196167
aF4.369744062423706
aF4.245807886123657
aF6.885318040847778
aF12.941102027893066
aF616.6612730026245
aF9.21707797050476
aF33.99965310096741
aF13.87059211730957
aF117.03761100769043
aF10.136484146118164
aF4.912544012069702
aF12.501793146133423
aF20.70743203163147
aF127.1563229560852
aF156.19156694412231
aF400.81536412239075
aF5.662552118301392
aF4.569460153579712
aF22.18673801422119
aF9.723275899887085
aF4.810229063034058
aF21.335741996765137
aF64.00208902359009
aF7.052070140838623
aF24.536420822143555
aF90.92910313606262
aF66.1775290966034
aF642.4772801399231
aF506.3654189109802
aF41.08247208595276
aF3.3553080558776855
aF60.644155979156494
aF159.22741413116455
aF76.96164107322693
aF6.7260589599609375
aF207.60931587219238
aF20.97356390953064
aF21.69401717185974
aF235.22952795028687
aF3.0575790405273438
aF3.5309550762176514
aF163.04007196426392
aF23.255250930786133
aF21.484133005142212
aF40.34141492843628
aF137.00660300254822
aF65.37991499900818
aF815.4157149791718
aF63.63019585609436
aF983.4169619083405
aF5.454008102416992
aF7.0427000522613525
aF5.2720420360565186
aF13.594299793243408
aF4.101494789123535
aF5.83715295791626
aF23.933892011642456
aF7.136555194854736
aF490.5348320007324
aF9.13077688217163
aF5.931472063064575
aF3.328566074371338
aF66.33603596687317
aF4.13081693649292
aF156.8534390926361
aF281.10046792030334
aF455.22445487976074
aF15.756155014038086
aF7.69920802116394
aF6.550286054611206
aF17.666873931884766
aF15.151968002319336
aF10.504990816116333
aF13.434071063995361
aF338.6141929626465
aF12.596937894821167
aF3.810292959213257
aF5.591881036758423
aF67.64199686050415
aF45.75375699996948
aF25.756325006484985
aF41.66168689727783
aF203.11888599395752
aF45.284595012664795
aF10.387404203414917
aF636.3232579231262
aF307.34638595581055
aF601.5652258396149
aF86.03381490707397
aF12.69929814338684
aF4.46639084815979
aF62.02637004852295
aF20.865170001983643
aF5.0875020027160645
aF95.47760605812073
aF4.234545946121216
aF4.192765951156616
aF7.338529109954834
aF8.667006969451904
aF6.82936692237854
aF45.918455839157104
aF13.007426977157593
aF10.164408922195435
aF23.35554790496826
aF19.333451986312866
aF12.334152936935425
aF12.789472818374634
aF6.453881025314331
aF1144.9870660305023
aF6.672536134719849
aF547.2179100513458
aF5.052321910858154
aF674.532585144043
aF331.1570029258728
aF79.37759208679199
aF14.79091191291809
aF19.674456119537354
aF40.80122995376587
aF6.180299997329712
aF18.703012943267822
aF29.642373085021973
aF470.64753103256226
aF141.75060510635376
aF339.0431749820709
aF11.875510931015015
aF6.683827877044678
aF80.51814079284668
aF34.933067083358765
aF15.746031999588013
aF1298.7229750156403
aF4.477587938308716
aF3.0599210262298584
aF31.209578037261963
aF6.508088111877441
aF209.03968596458435
aF4.277337074279785
aF6.905680894851685
aF43.956615924835205
aF345.77552914619446
aF7.018154144287109
aF53.08335208892822
aF7.012059926986694
aF16.790848970413208
aF22.875322103500366
aF5.070850133895874
aF9.482860088348389
aF20.67351198196411
aF10.225612878799438
aF520.8426489830017
aF7.183846950531006
aF12.556519031524658
aF153.27364683151245
aF335.9958620071411
aF49.8449821472168
aF19.052218914031982
aF7.363245964050293
aF17.27336096763611
aF10.274064779281616
aF4.074126958847046
aF12.380537033081055
aF38.28794598579407
aF10.559576988220215
aF18.592210054397583
aF64.71897292137146
aF19.002496004104614
aF89.06867003440857
aF10.016003131866455
aF11.364418029785156
aF13.122059106826782
aF13.518462896347046
aF6.372751951217651
aF473.0893108844757
aF5.263720989227295
aF47.828351974487305
aF471.1466498374939
aF745.0874330997467
aF149.93905401229858
aF3.016792058944702
aF119.89986801147461
aF4.615708827972412
aF3.4161431789398193
aF12.35508418083191
aF16.58040690422058
aF6.1738121509552
aF5.647194862365723
aF425.2791180610657
aF5.04040002822876
aF729.7762269973755
aF301.6859929561615
aF301.95099401474
aF5.574540138244629
aF25.37745499610901
aF20.841423988342285
aF25.968093872070312
aF6.7428929805755615
aF14.896606922149658
aF3.954591989517212
aF14.13774585723877
aF23.023502111434937
aF5.181751012802124
aF54.90239596366882
aF6.402998924255371
aF9.704493999481201
aF6.0612030029296875
aF87.19154000282288
aF39.422220945358276
aF36.381805181503296
aF6.937422037124634
aF28.209409952163696
aF5.5996129512786865
aF54.78866696357727
aF7.016052961349487
aF448.1223440170288
aF11.127599954605103
aF493.71778893470764
aF9.512241840362549
aF7.202919006347656
aF5.790008068084717
aF783.1265201568604
aF18.45707106590271
aF38.28886008262634
aF10.27106499671936
aF4.744121074676514
aF18.725623846054077
aF20.235755920410156
aF168.99322199821472
aF4.63678503036499
aF16.119821786880493
aF28.556716918945312
aF6.59106707572937
aF13.347726106643677
aF5.970110893249512
aF10.495944023132324
aF157.16185402870178
aF19.738579988479614
aF6.146841049194336
aF10.32111406326294
aF7.446113109588623
aF5.816293954849243
aF564.7178580760956
aF7.245314121246338
aF8.589417934417725
aF13.329079151153564
aF6.301537990570068
aF52.32222390174866
aF16.81700301170349
aF5.478738069534302
as.