(dp0
S'successes'
p1
(lp2
I01
aI00
aI01
aI00
aI01
aI01
aI01
aI00
aI00
aI01
aI00
aI01
aI00
aI01
aI01
aI01
aI01
aI01
aI01
aI00
aI00
aI01
aI01
aI00
aI01
aI01
aI01
aI01
aI00
aI01
aI01
aI00
aI00
aI01
aI01
aI00
aI00
aI00
aI00
aI01
aI00
aI01
aI01
aI01
aI01
aI00
aI01
aI01
aI01
aI01
aI01
aI01
aI01
aI01
aI01
aI01
aI01
aI01
aI01
aI00
aI01
aI01
aI01
aI01
aI01
aI00
aI01
aI01
aI00
aI01
aI01
aI00
aI00
aI01
aI00
aI01
aI01
aI01
aI00
aI00
aI01
aI00
aI01
aI00
aI01
aI01
aI01
aI00
aI01
aI00
aI01
aI00
aI01
aI01
aI00
aI00
aI00
aI00
aI01
aI01
asS'pidxs'
p3
(lp4
I20002
aI20004
aI20003
aI20004
aI20011
aI20008
aI20016
aI20005
aI20004
aI20012
aI20015
aI20001
aI20000
aI20007
aI20014
aI20016
aI20010
aI20014
aI20018
aI20002
aI20005
aI20010
aI20017
aI20009
aI20014
aI20014
aI20013
aI20003
aI20019
aI20018
aI20009
aI20015
aI20006
aI20010
aI20002
aI20006
aI20011
aI20019
aI20009
aI20007
aI20019
aI20012
aI20008
aI20010
aI20011
aI20005
aI20008
aI20003
aI20017
aI20007
aI20019
aI20012
aI20005
aI20010
aI20013
aI20012
aI20008
aI20013
aI20018
aI20002
aI20007
aI20013
aI20016
aI20004
aI20001
aI20006
aI20018
aI20000
aI20009
aI20000
aI20008
aI20002
aI20015
aI20017
aI20004
aI20016
aI20003
aI20016
aI20001
aI20019
aI20012
aI20005
aI20018
aI20006
aI20014
aI20009
aI20017
aI20001
aI20000
aI20015
aI20003
aI20015
aI20013
aI20017
aI20006
aI20011
aI20001
aI20011
aI20000
aI20007
asS'plan_length'
p5
(lp6
I3
aI1
aI8
aI3
aI1
aI1
aI2
aI1
aI1
aI1
aI1
aI2
aI1
aI1
aI2
aI1
aI2
aI1
aI1
aI1
aI4
aI1
aI9
aI2
aI1
aI1
aI1
aI11
aI1
aI1
aI11
aI1
aI3
aI1
aI4
aI1
aI1
aI1
aI1
aI1
aI1
aI1
aI1
aI1
aI2
aI5
aI1
aI1
aI1
aI2
aI1
aI1
aI1
aI1
aI1
aI1
aI1
aI2
aI8
aI1
aI1
aI1
aI1
aI1
aI1
asS'num_nodes'
p7
(lp8
I32
aI68
aI11
aI53
aI51
aI32
aI11
aI38
aI95
aI11
aI66
aI22
aI13
aI11
aI11
aI11
aI11
aI12
aI11
aI19
aI55
aI11
aI12
aI51
aI11
aI12
aI11
aI11
aI0
aI11
aI31
aI94
aI58
aI11
aI57
aI66
aI51
aI7
aI9
aI12
aI2
aI11
aI11
aI11
aI68
aI38
aI11
aI11
aI84
aI11
aI21
aI11
aI33
aI11
aI11
aI11
aI11
aI11
aI11
aI59
aI11
aI11
aI11
aI12
aI39
aI45
aI11
aI11
aI31
aI11
aI22
aI66
aI41
aI11
aI22
aI11
aI11
aI11
aI18
aI0
aI11
aI68
aI11
aI93
aI11
aI22
aI58
aI48
aI11
aI49
aI11
aI24
aI11
aI11
aI98
aI84
aI20
aI47
aI11
aI11
asS'times'
p9
(lp10
F72.29998087882996
aF325.19384598731995
aF56.70513606071472
aF304.9070780277252
aF236.03450298309326
aF75.99708104133606
aF10.811777114868164
aF301.7917490005493
aF303.2914810180664
aF9.796741008758545
aF306.82236409187317
aF33.44752597808838
aF327.7967338562012
aF9.94087290763855
aF10.021427154541016
aF10.664377927780151
aF9.927970886230469
aF18.20564293861389
aF13.565271139144897
aF393.8881628513336
aF316.3412868976593
aF10.98146915435791
aF70.56436896324158
aF517.5989401340485
aF9.989739894866943
aF17.66615915298462
aF14.74059009552002
aF33.54424715042114
aF1345.1266360282898
aF11.647150993347168
aF219.53787088394165
aF373.06034111976624
aF303.5029180049896
aF10.032593011856079
aF279.26897406578064
aF306.84719800949097
aF341.827929019928
aF880.9020500183105
aF309.3783369064331
aF19.091978073120117
aF443.06145906448364
aF10.037620067596436
aF30.31459903717041
aF10.352214813232422
aF273.7487359046936
aF312.7940731048584
aF35.77881598472595
aF221.85345482826233
aF263.5449688434601
aF10.914555072784424
aF180.76278805732727
aF9.83278203010559
aF56.796942949295044
aF10.255229949951172
aF11.721001148223877
aF10.035557985305786
aF56.226314067840576
aF33.95171499252319
aF12.525368928909302
aF427.3748128414154
aF10.289947986602783
aF13.775115966796875
aF11.011987924575806
aF28.077100038528442
aF104.31115698814392
aF305.59658098220825
aF19.05131196975708
aF80.8090991973877
aF628.2275550365448
aF13.894289016723633
aF52.53552794456482
aF319.8128340244293
aF434.664559841156
aF14.981889009475708
aF302.1953740119934
aF10.062479019165039
aF61.090778827667236
aF9.970972061157227
aF309.33845114707947
aF507.0908000469208
aF10.604824781417847
aF343.6609568595886
aF12.945706129074097
aF314.0206880569458
aF10.473487854003906
aF66.39482593536377
aF163.91588497161865
aF324.45542001724243
aF60.99234199523926
aF316.7708489894867
aF9.863330125808716
aF330.3408648967743
aF9.931663036346436
aF48.20209789276123
aF308.50112891197205
aF310.82316493988037
aF321.1156108379364
aF318.45397090911865
aF116.85112309455872
aF10.024803161621094
as.