(dp0
S'successes'
p1
(lp2
I01
aI01
aI01
aI01
aI01
aI01
aI01
aI01
aI00
aI01
aI01
aI01
aI01
aI01
aI01
aI01
aI01
aI01
aI01
aI01
aI01
aI01
aI01
aI01
aI01
aI01
aI00
aI01
aI01
aI00
aI01
aI01
aI01
aI01
aI00
aI01
aI01
aI01
aI00
aI01
aI01
aI01
aI01
aI01
aI00
aI00
aI01
aI00
aI01
aI00
aI01
aI01
aI01
aI01
aI01
aI01
aI01
aI01
aI01
aI01
aI01
aI01
aI01
aI01
aI01
aI01
aI01
aI01
aI01
aI00
aI00
aI01
aI00
aI01
aI01
aI01
aI00
aI01
aI01
aI01
aI01
aI00
aI01
aI01
aI01
aI01
aI00
aI00
aI01
aI01
aI00
aI00
aI00
aI01
aI01
aI00
aI01
aI01
aI01
aI01
aI01
aI00
aI01
aI01
aI01
aI01
aI01
aI01
aI01
aI01
aI00
aI00
aI01
aI01
aI01
aI00
aI01
aI01
aI01
aI00
aI01
aI01
aI01
aI01
aI00
aI01
aI01
aI01
aI01
aI01
aI00
aI00
aI01
aI01
aI00
aI01
aI00
aI01
aI01
aI01
aI00
aI01
aI01
aI01
aI01
aI01
aI01
aI00
aI01
aI01
aI01
aI01
aI00
aI00
aI01
aI01
aI01
aI01
aI01
aI01
aI00
aI01
aI01
aI01
aI01
aI01
aI01
aI01
aI01
aI01
aI00
aI01
aI01
aI01
aI00
aI00
aI01
aI01
aI01
aI00
aI00
aI00
aI01
aI00
aI00
aI01
aI01
aI01
aI00
aI00
aI01
aI00
aI00
aI01
aI00
aI01
aI01
aI00
aI00
aI01
aI01
aI00
aI01
aI01
aI01
aI01
aI01
aI00
aI01
aI01
aI01
aI01
aI00
aI01
aI01
aI01
aI01
aI01
aI01
aI00
aI01
aI00
aI01
aI01
aI00
aI01
aI01
aI01
aI01
aI01
aI01
aI01
aI00
aI01
aI01
aI00
aI01
aI01
aI01
aI01
aI01
aI01
aI01
aI01
aI01
aI01
aI01
aI01
aI00
aI01
aI01
aI01
aI01
aI01
aI01
aI01
aI00
aI01
aI01
aI01
aI01
aI01
aI01
aI00
aI01
aI01
aI01
aI00
aI01
aI01
aI01
aI01
aI01
aI00
aI00
aI00
aI00
aI00
aI01
aI00
aI01
aI00
aI01
aI01
aI01
aI01
aI00
aI00
aI01
aI01
aI01
aI01
aI01
aI01
aI01
aI01
aI00
aI01
aI00
aI00
aI01
aI01
aI01
aI01
aI01
aI01
aI01
aI01
aI01
aI01
aI01
aI00
aI01
aI00
aI01
aI01
aI01
aI00
aI01
aI00
aI01
aI01
aI01
aI01
aI01
aI01
aI00
aI01
aI01
aI01
aI01
aI01
aI01
aI01
aI01
aI01
aI01
aI00
aI01
aI00
aI01
aI00
aI01
aI01
aI01
aI01
aI01
aI01
aI01
aI00
aI00
aI01
aI01
aI01
aI00
aI01
aI00
aI00
aI01
aI01
aI01
aI01
aI01
aI01
aI01
aI00
aI00
aI00
aI01
aI01
aI01
aI01
aI00
aI01
aI00
aI01
aI01
aI01
aI01
aI01
aI01
aI01
aI00
aI01
aI01
aI01
aI00
aI01
aI01
aI01
aI00
aI01
aI01
aI01
aI00
aI01
aI01
aI01
aI01
aI00
aI00
aI01
aI01
aI01
aI01
aI00
aI01
aI01
aI01
aI01
aI01
aI01
aI01
aI01
aI01
aI01
aI01
aI01
aI01
aI01
aI01
aI01
aI01
aI01
aI00
aI01
aI01
aI01
aI01
aI01
aI01
aI01
aI00
aI01
aI01
aI00
aI00
aI01
aI00
aI01
aI01
aI01
aI01
aI01
aI00
aI01
aI00
aI01
aI01
aI01
aI01
aI00
aI01
aI01
aI00
aI01
aI00
aI01
aI01
aI01
aI01
aI01
aI01
aI01
aI00
aI01
aI01
aI01
aI00
aI01
aI01
aI01
aI00
aI01
aI00
aI01
aI00
aI01
aI01
aI00
aI00
aI01
aI00
aI01
aI01
aI01
aI00
aI01
aI01
aI01
aI00
aI01
aI01
aI01
aI01
aI01
aI01
aI01
aI00
aI01
asS'pidxs'
p3
(lp4
I20050
aI20038
aI20091
aI20045
aI20035
aI20002
aI20027
aI20004
aI20030
aI20081
aI20034
aI20073
aI20086
aI20022
aI20032
aI20087
aI20072
aI20029
aI20072
aI20038
aI20033
aI20003
aI20023
aI20084
aI20096
aI20076
aI20056
aI20027
aI20082
aI20004
aI20069
aI20079
aI20011
aI20089
aI20091
aI20024
aI20072
aI20042
aI20055
aI20048
aI20050
aI20008
aI20016
aI20025
aI20062
aI20005
aI20080
aI20004
aI20012
aI20015
aI20095
aI20050
aI20033
aI20054
aI20079
aI20079
aI20001
aI20000
aI20007
aI20073
aI20037
aI20070
aI20078
aI20053
aI20026
aI20050
aI20074
aI20014
aI20099
aI20090
aI20055
aI20024
aI20075
aI20016
aI20049
aI20092
aI20098
aI20021
aI20010
aI20054
aI20014
aI20090
aI20076
aI20041
aI20028
aI20051
aI20066
aI20066
aI20018
aI20051
aI20002
aI20005
aI20090
aI20029
aI20010
aI20055
aI20086
aI20033
aI20059
aI20042
aI20091
aI20043
aI20064
aI20017
aI20073
aI20045
aI20023
aI20083
aI20034
aI20058
aI20062
aI20009
aI20033
aI20014
aI20091
aI20099
aI20040
aI20085
aI20014
aI20069
aI20013
aI20041
aI20069
aI20027
aI20043
aI20059
aI20042
aI20036
aI20003
aI20074
aI20019
aI20052
aI20077
aI20031
aI20067
aI20071
aI20075
aI20018
aI20070
aI20025
aI20052
aI20039
aI20096
aI20064
aI20024
aI20009
aI20024
aI20027
aI20034
aI20081
aI20080
aI20044
aI20015
aI20006
aI20082
aI20089
aI20071
aI20010
aI20028
aI20084
aI20068
aI20063
aI20037
aI20098
aI20060
aI20080
aI20062
aI20026
aI20002
aI20059
aI20006
aI20078
aI20081
aI20032
aI20011
aI20085
aI20039
aI20079
aI20061
aI20035
aI20019
aI20046
aI20021
aI20009
aI20085
aI20048
aI20007
aI20042
aI20046
aI20088
aI20027
aI20093
aI20055
aI20076
aI20063
aI20068
aI20077
aI20019
aI20093
aI20031
aI20073
aI20056
aI20040
aI20036
aI20026
aI20012
aI20008
aI20057
aI20032
aI20028
aI20025
aI20033
aI20067
aI20032
aI20010
aI20059
aI20029
aI20048
aI20011
aI20005
aI20022
aI20047
aI20064
aI20008
aI20075
aI20075
aI20037
aI20003
aI20067
aI20041
aI20086
aI20099
aI20093
aI20017
aI20065
aI20094
aI20045
aI20065
aI20076
aI20007
aI20019
aI20045
aI20097
aI20012
aI20005
aI20028
aI20010
aI20013
aI20043
aI20077
aI20089
aI20034
aI20044
aI20057
aI20012
aI20008
aI20051
aI20051
aI20013
aI20086
aI20068
aI20095
aI20086
aI20063
aI20089
aI20025
aI20018
aI20002
aI20097
aI20044
aI20098
aI20031
aI20007
aI20047
aI20088
aI20082
aI20088
aI20053
aI20013
aI20090
aI20098
aI20043
aI20016
aI20096
aI20004
aI20029
aI20056
aI20087
aI20026
aI20060
aI20065
aI20054
aI20049
aI20092
aI20001
aI20064
aI20006
aI20053
aI20094
aI20034
aI20018
aI20051
aI20092
aI20044
aI20022
aI20032
aI20000
aI20030
aI20065
aI20078
aI20041
aI20046
aI20072
aI20088
aI20071
aI20048
aI20038
aI20091
aI20054
aI20009
aI20057
aI20048
aI20061
aI20023
aI20040
aI20030
aI20099
aI20072
aI20068
aI20081
aI20020
aI20053
aI20087
aI20057
aI20046
aI20000
aI20020
aI20093
aI20097
aI20055
aI20044
aI20052
aI20083
aI20021
aI20045
aI20008
aI20002
aI20078
aI20036
aI20015
aI20047
aI20039
aI20095
aI20084
aI20052
aI20074
aI20049
aI20060
aI20069
aI20036
aI20056
aI20060
aI20017
aI20082
aI20039
aI20043
aI20052
aI20004
aI20092
aI20069
aI20068
aI20021
aI20030
aI20035
aI20085
aI20022
aI20096
aI20061
aI20020
aI20038
aI20071
aI20064
aI20093
aI20016
aI20070
aI20031
aI20060
aI20031
aI20003
aI20016
aI20001
aI20059
aI20020
aI20056
aI20067
aI20085
aI20061
aI20063
aI20023
aI20075
aI20019
aI20096
aI20092
aI20084
aI20046
aI20067
aI20012
aI20050
aI20020
aI20053
aI20063
aI20080
aI20074
aI20058
aI20041
aI20024
aI20039
aI20087
aI20095
aI20040
aI20097
aI20070
aI20040
aI20021
aI20005
aI20070
aI20037
aI20057
aI20026
aI20036
aI20099
aI20080
aI20094
aI20018
aI20065
aI20006
aI20090
aI20066
aI20066
aI20081
aI20014
aI20077
aI20049
aI20009
aI20047
aI20017
aI20001
aI20035
aI20058
aI20076
aI20097
aI20087
aI20079
aI20000
aI20015
aI20003
aI20015
aI20042
aI20029
aI20073
aI20013
aI20017
aI20037
aI20095
aI20030
aI20022
aI20061
aI20058
aI20006
aI20074
aI20089
aI20077
aI20011
aI20083
aI20088
aI20054
aI20001
aI20028
aI20078
aI20094
aI20094
aI20084
aI20011
aI20047
aI20038
aI20062
aI20066
aI20049
aI20098
aI20083
aI20062
aI20035
aI20025
aI20058
aI20000
aI20023
aI20082
aI20007
aI20083
aI20071
asS'plan_length'
p5
(lp6
I1
aI1
aI1
aI1
aI1
aI3
aI2
aI12
aI2
aI4
aI1
aI1
aI1
aI2
aI4
aI1
aI1
aI1
aI1
aI1
aI1
aI4
aI3
aI1
aI11
aI3
aI1
aI1
aI1
aI8
aI1
aI10
aI1
aI1
aI5
aI1
aI3
aI1
aI1
aI9
aI1
aI1
aI1
aI1
aI1
aI1
aI1
aI2
aI9
aI1
aI1
aI1
aI1
aI2
aI4
aI7
aI1
aI1
aI1
aI2
aI2
aI1
aI1
aI1
aI6
aI1
aI1
aI2
aI3
aI1
aI2
aI8
aI1
aI2
aI1
aI1
aI3
aI1
aI1
aI1
aI7
aI2
aI2
aI1
aI1
aI9
aI4
aI7
aI1
aI4
aI1
aI1
aI1
aI6
aI2
aI1
aI1
aI7
aI4
aI1
aI1
aI1
aI1
aI1
aI1
aI1
aI1
aI1
aI1
aI1
aI1
aI1
aI1
aI16
aI4
aI4
aI13
aI4
aI3
aI1
aI1
aI1
aI1
aI1
aI4
aI4
aI6
aI1
aI1
aI4
aI6
aI6
aI1
aI9
aI1
aI1
aI1
aI1
aI1
aI1
aI1
aI2
aI1
aI2
aI1
aI3
aI3
aI6
aI1
aI1
aI1
aI1
aI1
aI3
aI1
aI1
aI3
aI1
aI1
aI1
aI3
aI1
aI1
aI1
aI1
aI11
aI1
aI1
aI1
aI7
aI1
aI1
aI14
aI1
aI2
aI7
aI11
aI1
aI1
aI1
aI7
aI1
aI3
aI2
aI1
aI1
aI4
aI2
aI1
aI1
aI1
aI1
aI1
aI1
aI10
aI1
aI1
aI13
aI1
aI3
aI2
aI1
aI1
aI2
aI3
aI1
aI1
aI1
aI2
aI1
aI1
aI1
aI2
aI1
aI1
aI2
aI1
aI2
aI6
aI1
aI1
aI1
aI1
aI5
aI2
aI3
aI1
aI5
aI1
aI1
aI3
aI1
aI1
aI9
aI1
aI1
aI1
aI1
aI1
aI3
aI1
aI1
aI1
aI2
aI3
aI2
aI1
aI10
aI1
aI2
aI1
aI2
aI6
aI5
aI7
aI4
aI1
aI2
aI1
aI1
aI7
aI2
aI1
aI2
aI12
aI1
aI1
aI2
aI1
aI7
aI1
aI1
aI1
aI10
aI4
aI1
aI11
aI1
aI3
aI7
aI3
aI11
aI3
aI1
aI2
aI1
aI1
aI1
aI1
aI1
aI1
aI1
aI2
aI1
aI1
aI1
aI1
aI1
aI3
aI10
aI1
aI7
aI1
aI1
aI2
aI3
aI7
aI1
aI1
aI1
aI5
aI5
aI3
aI2
aI2
aI1
aI4
aI1
aI8
aI1
aI1
aI1
aI1
aI1
aI4
aI1
aI1
aI16
aI1
aI1
aI4
aI3
aI1
aI1
aI11
aI1
aI1
aI1
aI1
aI2
aI8
aI1
aI2
aI2
aI1
aI1
aI1
aI1
aI1
aI1
aI1
aI1
aI1
aI1
aI4
aI1
aI1
aI1
aI1
aI3
aI1
aI2
aI1
aI1
aI1
aI5
aI11
aI2
aI4
aI1
aI6
aI3
aI1
aI2
aI1
aI1
aI5
aI6
aI1
aI1
asS'num_nodes'
p7
(lp8
I11
aI11
aI11
aI11
aI11
aI32
aI22
aI108
aI102
aI12
aI18
aI11
aI11
aI11
aI12
aI28
aI11
aI11
aI11
aI11
aI11
aI11
aI33
aI17
aI11
aI76
aI93
aI21
aI11
aI91
aI11
aI11
aI51
aI11
aI79
aI77
aI11
aI11
aI9
aI23
aI11
aI32
aI11
aI11
aI64
aI72
aI72
aI132
aI11
aI77
aI11
aI11
aI11
aI11
aI11
aI11
aI22
aI73
aI11
aI11
aI11
aI11
aI12
aI37
aI66
aI11
aI11
aI11
aI22
aI0
aI12
aI22
aI71
aI11
aI11
aI11
aI102
aI53
aI11
aI11
aI12
aI0
aI28
aI11
aI12
aI48
aI128
aI103
aI11
aI22
aI38
aI84
aI0
aI11
aI11
aI9
aI16
aI11
aI11
aI11
aI40
aI38
aI12
aI12
aI11
aI11
aI72
aI21
aI43
aI11
aI135
aI51
aI17
aI11
aI11
aI57
aI11
aI47
aI12
aI96
aI11
aI11
aI63
aI29
aI28
aI11
aI11
aI11
aI11
aI11
aI0
aI140
aI11
aI11
aI147
aI11
aI93
aI11
aI11
aI11
aI124
aI11
aI11
aI11
aI104
aI31
aI23
aI48
aI90
aI17
aI25
aI11
aI117
aI95
aI11
aI11
aI11
aI11
aI25
aI23
aI80
aI31
aI11
aI11
aI38
aI28
aI32
aI11
aI57
aI11
aI105
aI11
aI11
aI11
aI67
aI71
aI11
aI11
aI11
aI5
aI7
aI47
aI22
aI11
aI37
aI11
aI12
aI11
aI33
aI121
aI23
aI0
aI0
aI28
aI69
aI39
aI11
aI4
aI8
aI11
aI11
aI121
aI11
aI11
aI24
aI11
aI11
aI108
aI15
aI11
aI11
aI11
aI104
aI15
aI11
aI11
aI11
aI11
aI68
aI80
aI11
aI107
aI11
aI11
aI107
aI39
aI11
aI11
aI120
aI11
aI22
aI32
aI0
aI84
aI11
aI96
aI11
aI11
aI57
aI11
aI21
aI12
aI11
aI11
aI33
aI22
aI11
aI11
aI6
aI11
aI11
aI11
aI11
aI77
aI11
aI11
aI47
aI113
aI11
aI30
aI22
aI11
aI11
aI48
aI12
aI15
aI11
aI79
aI11
aI11
aI22
aI11
aI11
aI37
aI83
aI68
aI107
aI122
aI11
aI0
aI22
aI52
aI11
aI11
aI12
aI11
aI116
aI9
aI21
aI35
aI11
aI11
aI11
aI11
aI39
aI12
aI75
aI6
aI61
aI133
aI11
aI53
aI11
aI11
aI15
aI11
aI11
aI94
aI11
aI11
aI11
aI59
aI11
aI69
aI11
aI30
aI11
aI104
aI11
aI31
aI11
aI21
aI11
aI12
aI11
aI73
aI89
aI11
aI12
aI11
aI12
aI26
aI46
aI56
aI29
aI11
aI12
aI0
aI11
aI9
aI11
aI71
aI60
aI12
aI11
aI22
aI112
aI11
aI11
aI46
aI100
aI20
aI11
aI63
aI72
aI11
aI106
aI107
aI11
aI11
aI63
aI31
aI11
aI77
aI11
aI16
aI93
aI56
aI15
aI54
aI29
aI86
aI97
aI9
aI64
aI11
aI12
aI11
aI11
aI11
aI11
aI11
aI8
aI11
aI11
aI12
aI24
aI11
aI11
aI11
aI27
aI11
aI11
aI18
aI77
aI67
aI11
aI57
aI11
aI148
aI2
aI11
aI12
aI16
aI39
aI62
aI11
aI11
aI11
aI30
aI48
aI13
aI12
aI12
aI11
aI22
aI11
aI78
aI11
aI11
aI11
aI11
aI11
aI18
aI114
aI11
aI11
aI108
aI11
aI11
aI24
aI22
aI52
aI11
aI11
aI157
aI0
aI72
aI113
aI11
aI11
aI11
aI11
aI22
aI53
aI58
aI76
aI11
aI12
aI17
aI11
aI24
aI11
aI11
aI79
aI11
aI47
aI11
aI11
aI11
aI11
aI11
aI11
aI20
aI108
aI11
aI11
aI11
aI140
aI11
aI15
aI11
aI115
aI12
aI105
aI11
aI48
aI11
aI11
aI61
aI87
aI34
aI68
aI104
aI12
aI40
aI104
aI11
aI37
aI16
aI77
aI11
aI12
aI11
aI11
aI56
aI36
aI11
aI65
aI11
asS'times'
p9
(lp10
F3.768791913986206
aF3.7314419746398926
aF5.529455184936523
aF3.214564800262451
aF3.553389072418213
aF44.91429686546326
aF21.355376958847046
aF298.3234610557556
aF312.66664481163025
aF4.517071962356567
aF62.48097801208496
aF3.8018109798431396
aF8.458441972732544
aF3.429502010345459
aF4.9477808475494385
aF292.77634596824646
aF17.515341997146606
aF4.454819917678833
aF19.534727096557617
aF7.445027828216553
aF3.4517669677734375
aF40.83174395561218
aF64.70080590248108
aF77.22738981246948
aF3.4149129390716553
aF178.88895916938782
aF529.3948199748993
aF30.628108978271484
aF11.034219026565552
aF300.664519071579
aF48.43598413467407
aF3.213901996612549
aF141.66661310195923
aF3.5993919372558594
aF300.3536319732666
aF166.9575400352478
aF8.58007001876831
aF3.3794469833374023
aF1712.0290830135345
aF57.25566792488098
aF3.1571550369262695
aF47.85496211051941
aF3.952367067337036
aF3.1929309368133545
aF310.1107060909271
aF306.28084206581116
aF112.55492091178894
aF310.2896649837494
aF3.0723841190338135
aF323.1375148296356
aF31.60490584373474
aF4.194122076034546
aF3.7800819873809814
aF3.446093797683716
aF3.2104549407958984
aF3.8778860569000244
aF20.51408815383911
aF284.0946969985962
aF3.1788480281829834
aF5.833352088928223
aF9.533334970474243
aF3.0212979316711426
aF4.7994630336761475
aF149.17529606819153
aF138.00936698913574
aF3.0757558345794678
aF5.812018156051636
aF3.3467111587524414
aF34.11419606208801
aF458.4168951511383
aF882.623505115509
aF27.015706062316895
aF303.6311089992523
aF3.7260820865631104
aF4.514794111251831
aF3.41860294342041
aF305.96143102645874
aF60.81524181365967
aF3.198863983154297
aF5.862752914428711
aF4.589756011962891
aF2957.1306948661804
aF27.814573049545288
aF3.6557490825653076
aF15.705286979675293
aF123.2942099571228
aF313.1812047958374
aF312.94970202445984
aF6.668476104736328
aF38.949496030807495
aF307.6029269695282
aF303.8561918735504
aF857.9334321022034
aF24.779748916625977
aF4.285192966461182
aF1024.537209033966
aF25.501649856567383
aF3.2842421531677246
aF4.777378082275391
aF3.3304409980773926
aF70.80082106590271
aF313.4140911102295
aF4.270863056182861
aF36.9743390083313
aF3.68786883354187
aF3.689802885055542
aF162.70496606826782
aF65.87411093711853
aF101.34819889068604
aF3.2983338832855225
aF301.93031096458435
aF327.9851348400116
aF13.895024061203003
aF3.2500150203704834
aF23.07792901992798
aF304.6447329521179
aF3.1142971515655518
aF119.98343300819397
aF4.116641044616699
aF327.2849020957947
aF8.009445905685425
aF3.545356035232544
aF119.32770681381226
aF166.0158760547638
aF304.58969807624817
aF3.929682970046997
aF3.466860055923462
aF3.6844139099121094
aF20.116020917892456
aF4.592432022094727
aF800.4417669773102
aF316.6689717769623
aF7.78144907951355
aF3.102220058441162
aF309.8621292114258
aF7.162170171737671
aF306.4538199901581
aF4.664328098297119
aF3.2825350761413574
aF2.993746042251587
aF319.41825318336487
aF6.8895299434661865
aF4.659340858459473
aF3.5732858180999756
aF216.24329590797424
aF131.21822810173035
aF44.68298697471619
aF302.2463240623474
aF241.49128198623657
aF8.10716199874878
aF90.98129892349243
aF7.275439023971558
aF301.5171608924866
aF302.77636194229126
aF5.191065073013306
aF3.5265419483184814
aF3.8781321048736572
aF3.441835880279541
aF91.23244404792786
aF170.46682620048523
aF307.1260440349579
aF202.59809708595276
aF3.08931303024292
aF6.318233966827393
aF73.19045805931091
aF82.40997004508972
aF63.072741985321045
aF15.981616020202637
aF183.88762593269348
aF3.656222105026245
aF307.7105529308319
aF3.3099730014801025
aF3.329681873321533
aF3.2267351150512695
aF315.7669880390167
aF307.8402450084686
aF15.787700176239014
aF4.953924894332886
aF67.55827498435974
aF2005.393205165863
aF522.7363109588623
aF301.28553009033203
aF34.14672803878784
aF417.0287718772888
aF303.94323110580444
aF13.530277967453003
aF5.526295900344849
aF4.642292022705078
aF303.9553279876709
aF319.0678379535675
aF44.92060899734497
aF300.316682100296
aF905.2036950588226
aF45.608572006225586
aF307.18405199050903
aF97.90456104278564
aF8.054366111755371
aF353.84415197372437
aF1746.6698899269104
aF3.3866701126098633
aF8.651612997055054
aF324.39517307281494
aF3.3263142108917236
aF3.8925940990448
aF43.5026650428772
aF3.1118600368499756
aF16.58558487892151
aF313.05650997161865
aF6.35532808303833
aF4.75687313079834
aF3.2589828968048096
aF3.5079329013824463
aF313.6271278858185
aF5.1092119216918945
aF3.356235980987549
aF3.5628468990325928
aF8.176975965499878
aF9.520539999008179
aF165.52807211875916
aF325.63372898101807
aF3.163532018661499
aF468.86456990242004
aF3.0429439544677734
aF20.861242055892944
aF329.298082113266
aF181.47756791114807
aF4.096442937850952
aF148.3135769367218
aF281.16548895835876
aF3.3184421062469482
aF16.810420036315918
aF181.0073869228363
aF461.90069794654846
aF161.4632921218872
aF5.950126886367798
aF301.3695180416107
aF3.355725049972534
aF3.4130280017852783
aF85.73461198806763
aF4.014543056488037
aF100.40971684455872
aF4.367763042449951
aF7.236343145370483
aF3.220237970352173
aF30.664250135421753
aF17.77553391456604
aF3.516573905944824
aF5.273938894271851
aF335.8789870738983
aF8.116114139556885
aF3.1611409187316895
aF11.197153806686401
aF3.62965989112854
aF150.99637389183044
aF3.3722050189971924
aF33.82182717323303
aF301.29478788375854
aF268.37534189224243
aF20.339758157730103
aF15.0974440574646
aF64.82558703422546
aF89.87999200820923
aF45.801701068878174
aF355.0978090763092
aF4.103690147399902
aF5.9780731201171875
aF5.574649095535278
aF300.02308320999146
aF4.21599817276001
aF6.68700098991394
aF15.842942953109741
aF3.7016360759735107
aF3.294487953186035
aF305.67935514450073
aF306.0729160308838
aF340.74121618270874
aF315.8156809806824
aF325.437744140625
aF7.133324146270752
aF815.3075518608093
aF47.29685401916504
aF303.1710510253906
aF3.9541308879852295
aF3.5837488174438477
aF14.643558025360107
aF6.48695707321167
aF307.9926772117615
aF547.2624690532684
aF18.64341902732849
aF88.39654994010925
aF4.103834867477417
aF3.396090030670166
aF4.865027904510498
aF3.425848960876465
aF64.97829008102417
aF4.197923898696899
aF303.81390714645386
aF105.5004711151123
aF509.4841380119324
aF307.4523401260376
aF12.168423175811768
aF103.28306293487549
aF3.6561131477355957
aF6.830765962600708
aF6.09194278717041
aF3.282650947570801
aF47.240397930145264
aF155.4370081424713
aF3.90315580368042
aF3.024280071258545
aF4.771729946136475
aF347.1818149089813
aF23.32617712020874
aF320.4929418563843
aF3.9011900424957275
aF19.17609715461731
aF6.166785001754761
aF306.90760707855225
aF4.171473026275635
aF432.7585198879242
aF8.741488933563232
aF20.225378036499023
aF49.99555802345276
aF23.952344179153442
aF4.950760126113892
aF140.61314415931702
aF353.4434549808502
aF17.413323879241943
aF62.020768880844116
aF3.3313698768615723
aF4.516268014907837
aF120.52284908294678
aF99.67558312416077
aF112.56680488586426
aF73.93494296073914
aF7.543144941329956
aF4.301271200180054
aF1059.8662588596344
aF4.287806034088135
aF500.08789920806885
aF3.276139974594116
aF367.60993695259094
aF68.52920198440552
aF126.1572949886322
aF3.274899959564209
aF32.18731498718262
aF277.1316668987274
aF3.3452260494232178
aF3.461183786392212
aF303.44679713249207
aF301.0659251213074
aF13.96326494216919
aF52.772178173065186
aF89.33541297912598
aF322.44252705574036
aF3.2841479778289795
aF1075.7120530605316
aF950.0801558494568
aF60.35324215888977
aF5.1603171825408936
aF213.50970888137817
aF104.06301808357239
aF8.153544187545776
aF219.34167790412903
aF5.882094144821167
aF365.64810013771057
aF364.84739804267883
aF311.8094308376312
aF5.564239978790283
aF127.1174910068512
aF47.429441928863525
aF211.56525492668152
aF312.05285906791687
aF208.50565695762634
aF411.66150188446045
aF3.500563144683838
aF4.1795148849487305
aF41.09123611450195
aF3.7680130004882812
aF3.638061046600342
aF3.992246150970459
aF3.542951822280884
aF556.8676700592041
aF3.2976348400115967
aF3.72868013381958
aF5.453880071640015
aF319.63416600227356
aF4.011745929718018
aF42.723838090896606
aF3.322861909866333
aF355.1491219997406
aF3.9022819995880127
aF3.4178380966186523
aF64.28758502006531
aF335.1097619533539
aF276.55258989334106
aF12.76795482635498
aF184.7212290763855
aF20.484575986862183
aF327.95294308662415
aF460.99001908302307
aF3.749998092651367
aF4.289351224899292
aF44.69753098487854
aF107.47618579864502
aF303.213840007782
aF3.598107099533081
aF3.0169548988342285
aF3.5533549785614014
aF188.69934391975403
aF119.98399376869202
aF29.37932300567627
aF4.269270181655884
aF4.193285942077637
aF3.2109220027923584
aF89.71143102645874
aF3.3712730407714844
aF169.46724200248718
aF131.29880595207214
aF5.019708156585693
aF14.608638048171997
aF3.368811845779419
aF3.486514091491699
aF57.270672082901
aF305.6408529281616
aF3.7778170108795166
aF6.062791109085083
aF252.29271602630615
aF4.372316122055054
aF4.835817813873291
aF47.731760025024414
aF60.478901863098145
aF328.12888193130493
aF6.439440965652466
aF4.206557035446167
aF339.3592529296875
aF2088.2510340213776
aF215.3517608642578
aF300.6526300907135
aF3.706331968307495
aF3.8006467819213867
aF4.391078948974609
aF6.23413610458374
aF39.51500201225281
aF315.2393629550934
aF98.90928101539612
aF2270.720999956131
aF62.13855504989624
aF4.560103893280029
aF32.40578007698059
aF3.0644078254699707
aF305.17261505126953
aF3.54223895072937
aF34.218266010284424
aF324.7683608531952
aF3.147897958755493
aF331.8800439834595
aF3.3883910179138184
aF7.204536199569702
aF6.338190078735352
aF3.158561944961548
aF26.833609104156494
aF3.2506070137023926
aF275.72165393829346
aF303.8308279514313
aF3.5289089679718018
aF80.42747592926025
aF3.070030927658081
aF304.690945148468
aF3.5880088806152344
aF6.298094034194946
aF3.4573171138763428
aF316.56022000312805
aF22.65446901321411
aF324.4656479358673
aF5.837280035018921
aF307.8292100429535
aF10.491721868515015
aF3.0845699310302734
aF304.90669298171997
aF303.0243968963623
aF150.51411509513855
aF308.83551001548767
aF200.2621500492096
aF5.269350051879883
aF75.01340699195862
aF313.0148320198059
aF7.13259482383728
aF281.749813079834
aF34.18123698234558
aF324.3630678653717
aF63.76180291175842
aF6.249872922897339
aF3.0648908615112305
aF68.0922040939331
aF89.01457595825195
aF111.8514449596405
aF3.2251930236816406
aF309.3184711933136
aF3.75774884223938
as.