(dp0
S'successes'
p1
(lp2
I01
aI01
aI01
aI01
aI01
aI01
aI01
aI01
aI01
aI01
aI01
aI01
aI01
aI01
aI01
aI01
aI01
aI01
aI01
aI01
aI00
aI01
aI01
aI01
aI00
aI01
aI01
aI00
aI01
aI01
aI01
aI01
aI01
aI01
aI01
aI00
aI01
aI00
aI01
aI00
aI01
aI01
aI01
aI01
aI01
aI01
aI01
aI01
aI01
aI01
aI01
aI01
aI01
aI01
aI01
aI01
aI01
aI00
aI01
aI01
aI01
aI01
aI01
aI01
aI01
aI01
aI01
aI01
aI01
aI00
aI01
aI01
aI00
aI00
aI01
aI01
aI00
aI01
aI01
aI01
aI00
aI01
aI01
aI01
aI01
aI01
aI01
aI01
aI01
aI01
aI00
aI01
aI01
aI01
aI01
aI01
aI01
aI01
aI01
aI00
aI01
aI01
aI01
aI01
aI00
aI00
aI01
aI00
aI01
aI00
aI01
aI01
aI01
aI00
aI01
aI01
aI00
aI01
aI01
aI00
aI01
aI01
aI01
aI00
aI01
aI01
aI01
aI01
aI00
aI01
aI01
aI01
aI01
aI01
aI01
aI00
aI01
aI01
aI01
aI01
aI01
aI01
aI00
aI00
aI00
aI01
aI01
aI01
aI01
aI01
aI01
aI01
aI00
aI01
aI01
aI00
aI01
aI01
aI01
aI01
aI01
aI01
aI00
aI01
aI01
aI01
aI01
aI00
aI01
aI01
aI01
aI01
aI01
aI00
aI01
aI01
aI00
aI01
aI01
aI01
aI01
aI01
aI01
aI01
aI01
aI01
aI01
aI01
aI01
aI01
aI01
aI01
aI01
aI01
aI00
aI01
aI01
aI01
aI01
aI01
aI01
aI00
aI01
aI01
aI01
aI00
aI01
aI01
aI01
aI01
aI01
aI01
aI01
aI00
aI01
aI00
aI01
aI01
aI01
aI01
aI01
aI01
aI01
aI01
aI01
aI00
aI00
aI01
aI01
aI01
aI01
aI01
aI01
aI01
aI01
aI01
aI01
aI01
aI00
aI01
aI01
aI01
aI01
aI00
aI01
aI01
aI01
aI01
aI00
aI01
aI01
aI00
aI01
aI01
aI01
aI01
aI00
aI01
aI00
aI01
aI01
aI01
aI01
aI01
aI00
aI00
aI01
aI00
aI01
aI01
aI01
aI01
aI00
aI01
aI01
aI01
aI00
aI00
aI00
aI01
aI01
aI01
aI00
aI01
aI01
aI01
aI01
aI01
aI01
aI01
aI01
aI01
aI00
aI01
aI01
aI01
aI01
aI01
aI01
aI01
aI00
aI01
aI01
aI01
aI00
aI00
aI00
aI01
aI01
aI01
aI01
aI01
aI01
aI01
aI01
aI01
aI01
aI01
aI00
aI01
aI01
aI01
aI01
aI01
aI01
aI01
aI01
aI00
aI01
aI00
aI01
aI01
aI01
aI01
aI00
aI01
aI01
aI01
aI01
aI01
aI00
aI01
aI00
aI01
aI01
aI01
aI01
aI01
aI01
aI01
aI01
aI01
aI01
aI00
aI01
aI01
aI00
aI01
aI01
aI00
aI01
aI00
aI00
aI01
aI01
aI00
aI01
aI01
aI01
aI01
aI01
aI00
aI01
aI01
asS'pidxs'
p3
(lp4
I20050
aI20038
aI20045
aI20035
aI20002
aI20027
aI20004
aI20030
aI20034
aI20073
aI20022
aI20032
aI20072
aI20029
aI20072
aI20038
aI20033
aI20003
aI20023
aI20084
aI20076
aI20056
aI20027
aI20082
aI20004
aI20069
aI20011
aI20024
aI20072
aI20042
aI20048
aI20050
aI20008
aI20016
aI20025
aI20005
aI20080
aI20004
aI20012
aI20015
aI20050
aI20033
aI20054
aI20079
aI20079
aI20001
aI20000
aI20007
aI20073
aI20037
aI20070
aI20078
aI20053
aI20026
aI20050
aI20074
aI20014
aI20055
aI20024
aI20075
aI20016
aI20049
aI20021
aI20010
aI20054
aI20014
aI20041
aI20028
aI20051
aI20066
aI20018
aI20051
aI20002
aI20005
aI20029
aI20010
aI20055
aI20033
aI20059
aI20042
aI20043
aI20064
aI20017
aI20073
aI20045
aI20023
aI20083
aI20034
aI20058
aI20062
aI20009
aI20033
aI20014
aI20040
aI20014
aI20013
aI20041
aI20069
aI20027
aI20043
aI20042
aI20036
aI20003
aI20074
aI20019
aI20052
aI20031
aI20067
aI20071
aI20075
aI20018
aI20070
aI20025
aI20052
aI20039
aI20064
aI20024
aI20009
aI20024
aI20027
aI20034
aI20044
aI20015
aI20006
aI20071
aI20010
aI20028
aI20068
aI20063
aI20037
aI20060
aI20062
aI20026
aI20002
aI20059
aI20006
aI20078
aI20081
aI20032
aI20011
aI20039
aI20061
aI20035
aI20019
aI20046
aI20021
aI20009
aI20048
aI20007
aI20042
aI20046
aI20027
aI20055
aI20063
aI20068
aI20019
aI20031
aI20040
aI20036
aI20026
aI20012
aI20008
aI20057
aI20032
aI20028
aI20025
aI20033
aI20067
aI20032
aI20010
aI20059
aI20029
aI20048
aI20011
aI20005
aI20022
aI20047
aI20064
aI20008
aI20037
aI20003
aI20041
aI20017
aI20065
aI20045
aI20076
aI20007
aI20019
aI20045
aI20012
aI20005
aI20028
aI20010
aI20013
aI20043
aI20077
aI20034
aI20044
aI20057
aI20012
aI20008
aI20051
aI20051
aI20013
aI20068
aI20063
aI20025
aI20018
aI20002
aI20044
aI20031
aI20007
aI20047
aI20053
aI20013
aI20043
aI20016
aI20004
aI20029
aI20056
aI20026
aI20060
aI20065
aI20054
aI20049
aI20001
aI20006
aI20053
aI20034
aI20018
aI20051
aI20044
aI20022
aI20032
aI20000
aI20030
aI20065
aI20041
aI20046
aI20071
aI20048
aI20038
aI20054
aI20009
aI20048
aI20061
aI20023
aI20040
aI20030
aI20072
aI20020
aI20053
aI20057
aI20046
aI20000
aI20020
aI20055
aI20044
aI20052
aI20021
aI20045
aI20008
aI20002
aI20036
aI20015
aI20047
aI20039
aI20052
aI20074
aI20049
aI20069
aI20036
aI20056
aI20060
aI20017
aI20039
aI20043
aI20052
aI20004
aI20069
aI20068
aI20021
aI20030
aI20035
aI20022
aI20020
aI20038
aI20071
aI20064
aI20016
aI20070
aI20031
aI20060
aI20031
aI20003
aI20016
aI20001
aI20059
aI20020
aI20056
aI20067
aI20061
aI20063
aI20023
aI20019
aI20046
aI20067
aI20012
aI20050
aI20020
aI20053
aI20058
aI20041
aI20024
aI20039
aI20040
aI20040
aI20021
aI20005
aI20070
aI20037
aI20057
aI20026
aI20036
aI20080
aI20018
aI20065
aI20006
aI20066
aI20066
aI20081
aI20014
aI20049
aI20009
aI20047
aI20017
aI20001
aI20035
aI20058
aI20000
aI20015
aI20003
aI20015
aI20042
aI20029
aI20073
aI20013
aI20017
aI20037
aI20030
aI20022
aI20061
aI20058
aI20006
aI20074
aI20077
aI20011
aI20083
aI20054
aI20001
aI20028
aI20011
aI20047
aI20038
aI20062
aI20066
aI20049
aI20062
aI20035
aI20025
aI20000
aI20023
aI20082
aI20007
asS'plan_length'
p5
(lp6
I1
aI1
aI1
aI1
aI3
aI2
aI9
aI25
aI3
aI1
aI1
aI1
aI1
aI1
aI1
aI1
aI1
aI1
aI2
aI3
aI7
aI3
aI1
aI1
aI11
aI1
aI1
aI2
aI1
aI3
aI1
aI1
aI8
aI1
aI1
aI1
aI1
aI1
aI1
aI2
aI9
aI1
aI1
aI1
aI1
aI1
aI3
aI7
aI1
aI1
aI1
aI2
aI12
aI1
aI1
aI3
aI1
aI1
aI1
aI1
aI2
aI5
aI1
aI2
aI1
aI1
aI1
aI1
aI1
aI1
aI1
aI1
aI1
aI9
aI4
aI2
aI1
aI11
aI1
aI1
aI1
aI1
aI1
aI1
aI10
aI4
aI1
aI1
aI1
aI1
aI1
aI1
aI1
aI1
aI1
aI1
aI1
aI4
aI5
aI12
aI1
aI16
aI1
aI1
aI4
aI3
aI1
aI4
aI5
aI1
aI10
aI1
aI1
aI1
aI1
aI2
aI1
aI1
aI2
aI6
aI1
aI1
aI1
aI5
aI3
aI9
aI4
aI1
aI1
aI1
aI3
aI1
aI1
aI1
aI1
aI1
aI1
aI1
aI1
aI1
aI1
aI1
aI9
aI1
aI1
aI1
aI1
aI1
aI1
aI14
aI1
aI1
aI5
aI1
aI3
aI1
aI1
aI3
aI2
aI1
aI1
aI1
aI1
aI1
aI11
aI1
aI1
aI9
aI1
aI2
aI1
aI1
aI7
aI1
aI1
aI1
aI7
aI1
aI1
aI2
aI1
aI11
aI2
aI6
aI1
aI1
aI1
aI4
aI6
aI1
aI5
aI1
aI1
aI1
aI1
aI8
aI1
aI1
aI1
aI2
aI1
aI1
aI2
aI2
aI2
aI1
aI1
aI1
aI6
aI4
aI1
aI1
aI1
aI2
aI1
aI2
aI8
aI1
aI2
aI1
aI4
aI1
aI1
aI3
aI1
aI1
aI8
aI3
aI11
aI3
aI1
aI1
aI1
aI1
aI1
aI1
aI1
aI1
aI1
aI1
aI1
aI6
aI1
aI1
aI3
aI1
aI8
aI1
aI1
aI1
aI1
aI5
aI1
aI1
aI5
aI1
aI1
aI1
aI3
aI1
aI1
aI5
aI1
aI1
aI2
aI1
aI1
aI7
aI1
aI1
aI1
aI2
aI7
aI2
aI1
aI1
aI1
aI1
aI1
aI1
aI1
aI1
aI1
aI1
aI12
aI1
aI1
aI1
aI1
aI1
aI2
aI1
aI1
aI1
aI3
aI1
aI8
aI1
aI1
aI1
aI7
aI1
asS'num_nodes'
p7
(lp8
I1
aI1
aI1
aI1
aI8
aI4
aI34
aI94
aI5
aI1
aI1
aI1
aI1
aI1
aI1
aI1
aI1
aI1
aI3
aI5
aI55
aI14
aI7
aI1
aI25
aI1
aI38
aI61
aI1
aI1
aI3
aI1
aI5
aI1
aI1
aI31
aI26
aI32
aI1
aI50
aI1
aI1
aI1
aI1
aI1
aI3
aI29
aI1
aI1
aI1
aI1
aI1
aI5
aI22
aI1
aI1
aI1
aI4
aI4
aI31
aI1
aI1
aI5
aI1
aI1
aI1
aI1
aI3
aI17
aI53
aI1
aI3
aI51
aI33
aI1
aI1
aI2
aI1
aI1
aI1
aI10
aI1
aI1
aI1
aI1
aI20
aI10
aI3
aI1
aI39
aI27
aI1
aI1
aI1
aI1
aI1
aI1
aI27
aI9
aI13
aI1
aI1
aI1
aI1
aI0
aI58
aI1
aI33
aI1
aI39
aI1
aI1
aI1
aI25
aI1
aI1
aI36
aI7
aI13
aI19
aI27
aI1
aI52
aI45
aI1
aI1
aI9
aI5
aI34
aI1
aI8
aI12
aI1
aI25
aI1
aI57
aI1
aI1
aI1
aI3
aI1
aI1
aI2
aI2
aI27
aI3
aI18
aI1
aI1
aI1
aI13
aI5
aI0
aI22
aI8
aI4
aI1
aI1
aI1
aI5
aI1
aI1
aI56
aI1
aI1
aI1
aI1
aI23
aI1
aI1
aI1
aI1
aI1
aI58
aI33
aI1
aI50
aI1
aI1
aI1
aI1
aI1
aI38
aI1
aI1
aI14
aI1
aI5
aI1
aI1
aI5
aI3
aI1
aI1
aI2
aI1
aI1
aI1
aI28
aI1
aI1
aI33
aI33
aI1
aI3
aI23
aI1
aI1
aI19
aI1
aI1
aI1
aI15
aI60
aI1
aI13
aI1
aI3
aI1
aI35
aI6
aI17
aI1
aI1
aI1
aI22
aI63
aI8
aI17
aI1
aI13
aI1
aI1
aI1
aI1
aI19
aI1
aI1
aI26
aI1
aI3
aI1
aI1
aI21
aI3
aI3
aI3
aI1
aI34
aI1
aI1
aI39
aI17
aI8
aI1
aI1
aI2
aI1
aI44
aI3
aI1
aI3
aI22
aI1
aI28
aI53
aI3
aI80
aI1
aI7
aI1
aI1
aI16
aI6
aI1
aI1
aI6
aI25
aI40
aI26
aI5
aI26
aI24
aI8
aI1
aI1
aI1
aI1
aI1
aI1
aI1
aI1
aI12
aI1
aI1
aI1
aI12
aI1
aI1
aI7
aI49
aI1
aI21
aI1
aI0
aI31
aI31
aI1
aI1
aI1
aI14
aI1
aI1
aI14
aI1
aI1
aI1
aI6
aI51
aI1
aI1
aI14
aI1
aI1
aI3
aI1
aI1
aI47
aI18
aI51
aI1
aI1
aI1
aI3
aI19
aI16
aI3
aI1
aI1
aI1
aI14
aI1
aI28
aI1
aI1
aI1
aI1
aI1
aI1
aI74
aI1
aI1
aI1
aI53
aI1
aI1
aI32
aI3
aI1
aI23
aI1
aI81
aI18
aI1
aI5
aI51
aI1
aI23
aI1
aI1
aI1
aI58
aI24
aI1
asS'times'
p9
(lp10
F3.759202003479004
aF4.2748939990997314
aF3.3538780212402344
aF3.827141046524048
aF45.688886880874634
aF21.44665288925171
aF132.22971296310425
aF279.393550157547
aF51.86714696884155
aF3.938936948776245
aF3.8140978813171387
aF3.735466957092285
aF17.581122875213623
aF4.453573942184448
aF22.92836618423462
aF7.527465105056763
aF3.5136260986328125
aF36.97184205055237
aF14.510375022888184
aF80.10630798339844
aF365.12645196914673
aF104.10792994499207
aF31.024170875549316
aF10.93135404586792
aF313.1778790950775
aF48.545191049575806
aF184.28544402122498
aF319.29598689079285
aF8.5140061378479
aF3.82226300239563
aF26.355327129364014
aF3.4077200889587402
aF46.56593704223633
aF4.433233022689819
aF3.20009183883667
aF305.3655331134796
aF95.10267305374146
aF323.9685070514679
aF3.217519998550415
aF308.23738288879395
aF4.750218152999878
aF4.084857940673828
aF3.532365083694458
aF3.275304079055786
aF3.7922580242156982
aF20.266653060913086
aF282.26652812957764
aF3.562864065170288
aF6.092633008956909
aF9.652343034744263
aF3.3856849670410156
aF3.4802560806274414
aF72.11076188087463
aF138.56844210624695
aF3.2370901107788086
aF5.981100082397461
aF3.4423019886016846
aF851.6476399898529
aF27.057209968566895
aF290.646586894989
aF3.8721699714660645
aF4.835438013076782
aF30.39174795150757
aF3.362591028213501
aF5.692673921585083
aF3.5960168838500977
aF3.728875160217285
aF15.87179708480835
aF99.14732813835144
aF378.5614380836487
aF6.780038118362427
aF38.49739694595337
aF303.44790410995483
aF300.5333671569824
aF24.952836990356445
aF4.479701995849609
aF995.6209700107574
aF3.4938509464263916
aF4.762732028961182
aF3.59028697013855
aF319.8663241863251
aF3.4681320190429688
aF37.43305277824402
aF3.995206832885742
aF3.6758408546447754
aF157.03109788894653
aF60.211578130722046
aF38.03370714187622
aF3.4621100425720215
aF137.99625396728516
aF302.9702489376068
aF4.233876943588257
aF3.6851189136505127
aF3.365211009979248
aF3.2126917839050293
aF8.405941009521484
aF3.5047690868377686
aF284.79891896247864
aF164.81089282035828
aF479.98882699012756
aF3.795063018798828
aF3.835597038269043
aF20.34049391746521
aF4.721445083618164
aF759.7436480522156
aF309.4030029773712
aF3.255208969116211
aF311.2416150569916
aF7.471463203430176
aF307.45928502082825
aF5.498011827468872
aF3.432075023651123
aF3.310637950897217
aF360.1034369468689
aF7.926677942276001
aF3.8506510257720947
aF308.8658878803253
aF131.04666209220886
aF57.58401799201965
aF302.5103440284729
aF271.0822010040283
aF7.558665037155151
aF246.95330595970154
aF315.3148498535156
aF4.145519018173218
aF3.418099880218506
aF79.55225706100464
aF79.08410310745239
aF308.0566279888153
aF3.331937074661255
aF77.98608994483948
aF53.4794340133667
aF16.44371008872986
aF259.25301003456116
aF3.853991985321045
aF305.98640418052673
aF3.496135950088501
aF3.7347400188446045
aF3.7794439792633057
aF23.73701000213623
aF16.138662099838257
aF75.03396821022034
aF2063.980274915695
aF511.49403405189514
aF304.2192039489746
aF32.481245040893555
aF298.9853961467743
aF13.76459288597107
aF4.428469896316528
aF4.525035858154297
aF193.97160696983337
aF45.54212784767151
aF955.7890059947968
aF143.61282896995544
aF58.16536021232605
aF362.9078221321106
aF3.7133631706237793
aF3.350466012954712
aF4.106595993041992
aF45.28547501564026
aF3.2662038803100586
aF18.99580407142639
aF314.79866003990173
aF3.497720956802368
aF5.053550958633423
aF3.4242889881134033
aF3.8686959743499756
aF339.44722604751587
aF3.5460240840911865
aF3.71856689453125
aF3.907823085784912
aF8.16405701637268
aF10.052655935287476
aF453.5970199108124
aF223.87908291816711
aF3.362231969833374
aF386.2232508659363
aF3.289292097091675
aF20.798877000808716
aF4.186057090759277
aF172.94884991645813
aF3.3629260063171387
aF208.25844407081604
aF6.11245584487915
aF3.5628821849823
aF65.21270990371704
aF4.092073202133179
aF99.21082592010498
aF3.7066829204559326
aF3.5929698944091797
aF27.84578800201416
aF17.862294912338257
aF3.7268760204315186
aF5.220168828964233
aF335.0303180217743
aF8.213826179504395
aF11.144556999206543
aF3.8464889526367188
aF162.38276505470276
aF3.4665260314941406
aF33.84643006324768
aF388.39995098114014
aF189.2824490070343
aF20.7712140083313
aF64.87739992141724
aF361.22299695014954
aF3.627419948577881
aF6.059611082077026
aF81.07678008079529
aF6.992063999176025
aF3.9406609535217285
aF3.5251708030700684
aF126.19118094444275
aF313.80099415779114
aF7.169813871383667
aF301.97343397140503
aF4.094288110733032
aF15.808801174163818
aF6.518280982971191
aF151.2717571258545
aF19.49603009223938
aF88.9081699848175
aF4.299655199050903
aF3.6562979221343994
aF5.382277011871338
aF381.984503030777
aF307.79112696647644
aF116.67808890342712
aF127.8677351474762
aF12.673086166381836
aF104.22845602035522
aF7.859709978103638
aF3.4972498416900635
aF3.35670804977417
aF47.10291600227356
aF136.2492070198059
aF4.061228036880493
aF4.908037900924683
aF308.58423805236816
aF4.0247578620910645
aF16.637739896774292
aF6.50838303565979
aF4.590131044387817
aF390.7090308666229
aF19.437712907791138
aF38.60059094429016
aF24.21820902824402
aF4.957603931427002
aF301.5637218952179
aF17.856518030166626
aF3.5945310592651367
aF352.68211817741394
aF77.43364596366882
aF74.66147303581238
aF7.704850912094116
aF3.469165802001953
aF565.7227761745453
aF3.582909107208252
aF325.94424986839294
aF124.28334403038025
aF3.3692150115966797
aF33.519798040390015
aF198.87198185920715
aF3.494417905807495
aF391.72614002227783
aF317.89845609664917
aF14.297906875610352
aF312.3875560760498
aF3.5823209285736084
aF128.08069396018982
aF60.599189043045044
aF5.07830286026001
aF313.89406991004944
aF88.50060987472534
aF9.080451965332031
aF6.091511011123657
aF318.9802188873291
aF314.6560928821564
aF301.32055592536926
aF121.38946318626404
aF49.78901410102844
aF209.11669516563416
aF313.98602509498596
aF190.45077395439148
aF3.6015031337738037
aF4.072751998901367
aF3.6655020713806152
aF4.140942096710205
aF3.690653085708618
aF3.747551918029785
aF3.857714891433716
aF4.187685966491699
aF323.8494760990143
aF4.092181921005249
aF40.13920307159424
aF3.6223270893096924
aF280.500874042511
aF4.370777130126953
aF3.5927069187164307
aF70.42018508911133
aF302.5658359527588
aF12.485846042633057
aF202.2915940284729
aF20.23808002471924
aF317.5597939491272
aF305.293692111969
aF303.25407218933105
aF3.7571492195129395
aF3.162735939025879
aF4.061172008514404
aF164.81780886650085
aF3.110529899597168
aF3.413411855697632
aF57.569689989089966
aF3.5939581394195557
aF4.984253883361816
aF3.8925108909606934
aF40.23250699043274
aF316.82022500038147
aF3.9093289375305176
aF6.189713954925537
aF49.502832889556885
aF4.541567087173462
aF5.592411041259766
aF48.37875294685364
aF6.960896968841553
aF4.4732091426849365
aF305.1771330833435
aF148.73018407821655
aF332.8164041042328
aF4.234447002410889
aF3.9219861030578613
aF6.33390998840332
aF39.42952299118042
aF312.7453649044037
aF69.27641010284424
aF98.82553005218506
aF62.12243604660034
aF3.534741163253784
aF33.93728184700012
aF344.57926511764526
aF3.3554270267486572
aF312.1923670768738
aF3.5929901599884033
aF6.7109739780426025
aF6.58599591255188
aF3.3373470306396484
aF27.39883804321289
aF3.3267619609832764
aF261.22879099845886
aF3.604841947555542
aF77.36371898651123
aF3.391418933868408
aF309.2756390571594
aF3.958549976348877
aF4.038118124008179
aF411.2043950557709
aF23.744039058685303
aF5.752134084701538
aF302.7559847831726
aF10.817168951034546
aF315.3698470592499
aF302.82748198509216
aF3.67586612701416
aF71.0566508769989
aF538.7587220668793
aF7.417438983917236
aF150.2070460319519
aF64.53269100189209
aF5.274478912353516
aF67.5114278793335
aF304.32936906814575
aF73.27846717834473
aF3.4642279148101807
as.