(dp0
S'successes'
p1
(lp2
I00
aI01
aI00
aI00
aI01
asS'pidxs'
p3
(lp4
I20004
aI20003
aI20000
aI20002
aI20001
asS'plan_length'
p5
(lp6
I1
aI5
asS'num_nodes'
p7
(lp8
I48
aI11
aI27
aI55
aI39
asS'times'
p9
(lp10
F302.16459488868713
aF75.32255983352661
aF303.43518590927124
aF324.90617394447327
aF199.9607698917389
as.