(dp0
S'successes'
p1
(lp2
I00
aI01
aI00
aI00
aI01
aI00
aI01
aI00
asS'pidxs'
p3
(lp4
I20004
aI20003
aI20005
aI20000
aI20007
aI20002
aI20001
aI20006
asS'plan_length'
p5
(lp6
I1
aI2
aI5
asS'num_nodes'
p7
(lp8
I54
aI11
aI41
aI35
aI12
aI59
aI39
aI65
asS'times'
p9
(lp10
F306.49745202064514
aF64.88370299339294
aF309.6999821662903
aF302.947035074234
aF35.757380962371826
aF423.84772396087646
aF161.95629596710205
aF325.4752941131592
as.