(dp0
S'successes'
p1
(lp2
I01
aI01
aI01
aI01
aI01
aI01
aI00
aI01
aI01
aI00
aI00
aI00
aI00
aI00
aI01
aI01
aI00
aI01
aI00
aI01
aI01
aI00
aI01
aI01
aI01
aI01
aI01
aI00
aI01
aI00
aI01
aI00
aI01
aI00
aI01
aI00
aI00
aI01
aI01
aI01
aI00
aI00
aI00
aI01
aI01
aI01
aI01
aI01
aI00
aI00
aI00
aI00
aI00
aI00
aI01
aI01
aI00
aI01
aI00
aI00
aI01
aI01
aI01
aI01
aI00
aI01
aI01
aI01
aI01
aI01
aI01
aI01
aI01
aI01
aI01
aI01
aI01
aI00
aI00
aI01
aI01
aI00
aI01
aI01
aI01
aI00
aI00
aI01
aI00
aI01
aI01
aI01
aI01
aI00
aI01
aI00
aI01
aI00
aI01
aI01
aI00
aI01
aI01
aI01
aI01
aI01
aI00
aI01
aI01
aI01
aI01
aI01
aI01
aI01
aI01
aI01
aI01
aI01
aI00
aI00
aI00
aI01
aI00
aI00
aI01
aI00
aI00
aI01
aI00
aI00
aI01
aI01
aI01
aI01
aI01
aI01
aI01
aI01
aI01
aI01
aI00
aI00
aI01
aI00
aI01
aI00
aI01
aI01
aI00
aI00
aI00
aI01
aI00
aI00
aI01
aI01
aI00
aI00
aI01
aI01
aI00
aI01
aI01
aI00
aI01
aI01
aI01
aI00
aI01
aI00
aI01
aI00
aI00
aI01
aI00
aI01
aI01
aI00
aI00
aI01
aI01
aI01
aI01
aI01
aI00
aI01
aI01
aI01
aI00
aI00
aI01
aI01
aI01
aI01
aI01
aI01
aI01
aI00
aI00
aI00
aI01
aI00
aI00
aI00
aI00
aI01
aI01
aI01
asS'pidxs'
p3
(lp4
I20021
aI20045
aI20016
aI20040
aI20016
aI20044
aI20019
aI20048
aI20039
aI20040
aI20019
aI20042
aI20049
aI20001
aI20039
aI20021
aI20001
aI20025
aI20004
aI20031
aI20032
aI20001
aI20022
aI20018
aI20003
aI20015
aI20010
aI20005
aI20033
aI20047
aI20025
aI20051
aI20045
aI20035
aI20032
aI20015
aI20042
aI20020
aI20040
aI20034
aI20016
aI20038
aI20000
aI20050
aI20041
aI20008
aI20036
aI20014
aI20003
aI20042
aI20019
aI20047
aI20004
aI20019
aI20033
aI20023
aI20030
aI20046
aI20044
aI20051
aI20039
aI20033
aI20035
aI20011
aI20018
aI20029
aI20020
aI20008
aI20025
aI20017
aI20014
aI20023
aI20021
aI20037
aI20003
aI20023
aI20010
aI20029
aI20030
aI20010
aI20003
aI20047
aI20037
aI20041
aI20000
aI20043
aI20020
aI20013
aI20030
aI20028
aI20049
aI20007
aI20044
aI20006
aI20016
aI20005
aI20048
aI20008
aI20012
aI20017
aI20043
aI20007
aI20032
aI20024
aI20011
aI20035
aI20008
aI20050
aI20048
aI20018
aI20048
aI20038
aI20015
aI20004
aI20006
aI20013
aI20000
aI20038
aI20047
aI20026
aI20006
aI20020
aI20002
aI20026
aI20013
aI20026
aI20043
aI20002
aI20027
aI20027
aI20044
aI20012
aI20024
aI20014
aI20031
aI20022
aI20036
aI20045
aI20039
aI20028
aI20046
aI20040
aI20036
aI20015
aI20050
aI20009
aI20029
aI20051
aI20051
aI20005
aI20027
aI20021
aI20038
aI20001
aI20029
aI20002
aI20009
aI20006
aI20025
aI20034
aI20002
aI20034
aI20042
aI20026
aI20031
aI20000
aI20012
aI20049
aI20014
aI20046
aI20018
aI20027
aI20009
aI20022
aI20004
aI20033
aI20012
aI20017
aI20043
aI20023
aI20010
aI20017
aI20031
aI20037
aI20030
aI20013
aI20045
aI20007
aI20024
aI20050
aI20011
aI20037
aI20041
aI20041
aI20022
aI20049
aI20028
aI20046
aI20035
aI20005
aI20034
aI20011
aI20009
aI20024
aI20032
aI20028
aI20007
aI20036
asS'plan_length'
p5
(lp6
I2
aI1
aI2
aI1
aI1
aI1
aI2
aI2
aI2
aI2
aI1
aI1
aI1
aI1
aI2
aI2
aI6
aI1
aI2
aI2
aI1
aI1
aI1
aI1
aI2
aI1
aI1
aI2
aI1
aI1
aI2
aI2
aI4
aI4
aI1
aI2
aI2
aI2
aI1
aI2
aI1
aI3
aI1
aI2
aI2
aI1
aI2
aI2
aI1
aI1
aI2
aI1
aI1
aI1
aI2
aI2
aI1
aI1
aI1
aI1
aI2
aI1
aI6
aI1
aI1
aI4
aI2
aI2
aI1
aI2
aI2
aI2
aI2
aI4
aI2
aI2
aI2
aI1
aI4
aI1
aI2
aI6
aI3
aI1
aI3
aI1
aI1
aI1
aI1
aI1
aI1
aI3
aI1
aI1
aI2
aI2
aI2
aI2
aI6
aI2
aI2
aI2
aI1
aI1
aI1
aI1
aI1
aI3
aI1
aI1
aI1
aI2
aI1
aI1
aI1
aI1
aI2
aI1
aI1
aI2
aI1
aI1
aI1
aI1
aI1
aI2
aI2
aI2
aI1
aI1
asS'num_nodes'
p7
(lp8
I18
aI1
aI1
aI1
aI1
aI1
aI39
aI6
aI1
aI50
aI34
aI160
aI165
aI131
aI1
aI1
aI129
aI1
aI158
aI1
aI1
aI132
aI1
aI25
aI16
aI56
aI1
aI132
aI1
aI140
aI1
aI165
aI1
aI136
aI1
aI158
aI165
aI1
aI1
aI1
aI179
aI151
aI22
aI1
aI1
aI83
aI1
aI1
aI166
aI167
aI54
aI192
aI144
aI45
aI6
aI2
aI197
aI9
aI169
aI166
aI61
aI1
aI113
aI108
aI122
aI62
aI1
aI78
aI1
aI2
aI1
aI1
aI21
aI1
aI26
aI1
aI1
aI166
aI148
aI1
aI81
aI140
aI1
aI1
aI1
aI137
aI131
aI3
aI153
aI3
aI1
aI1
aI1
aI111
aI1
aI159
aI27
aI155
aI1
aI26
aI176
aI1
aI1
aI16
aI85
aI3
aI135
aI1
aI6
aI1
aI1
aI47
aI28
aI42
aI67
aI1
aI1
aI10
aI134
aI164
aI117
aI1
aI166
aI148
aI2
aI144
aI180
aI148
aI143
aI160
aI23
aI1
aI22
aI1
aI1
aI1
aI1
aI1
aI1
aI4
aI164
aI69
aI1
aI134
aI1
aI120
aI20
aI1
aI142
aI146
aI160
aI3
aI147
aI140
aI42
aI111
aI159
aI126
aI27
aI1
aI175
aI3
aI1
aI183
aI1
aI1
aI1
aI146
aI1
aI157
aI104
aI181
aI140
aI1
aI142
aI1
aI1
aI61
aI170
aI1
aI1
aI1
aI1
aI1
aI178
aI30
aI1
aI1
aI142
aI18
aI83
aI1
aI1
aI1
aI1
aI1
aI1
aI175
aI151
aI154
aI1
aI150
aI138
aI107
aI161
aI2
aI1
aI1
asS'times'
p9
(lp10
F40.35061597824097
aF0.6795411109924316
aF4.166633129119873
aF0.4804568290710449
aF0.8409810066223145
aF0.684222936630249
aF318.6520199775696
aF18.94960594177246
aF3.566361904144287
aF300.4272520542145
aF301.37914180755615
aF300.11652994155884
aF300.72006702423096
aF301.787535905838
aF3.1329169273376465
aF2.6351799964904785
aF302.24382400512695
aF0.3502981662750244
aF300.04560708999634
aF0.4705209732055664
aF1.9256510734558105
aF303.662358045578
aF0.9522318840026855
aF59.148107051849365
aF33.98277688026428
aF98.53343296051025
aF1.5258970260620117
aF301.6348841190338
aF2.477803945541382
aF302.4540390968323
aF1.3814308643341064
aF306.55864119529724
aF1.3879940509796143
aF301.1031141281128
aF1.4907360076904297
aF300.4987189769745
aF301.5421850681305
aF1.0995228290557861
aF0.532214879989624
aF2.7836999893188477
aF301.17498302459717
aF300.6339831352234
aF300.83694100379944
aF1.0244481563568115
aF1.6545939445495605
aF214.60956716537476
aF4.031153917312622
aF1.1506280899047852
aF300.6369159221649
aF301.6257598400116
aF327.30786085128784
aF300.12095499038696
aF301.45807218551636
aF334.3880009651184
aF23.696640014648438
aF14.333377838134766
aF300.2995660305023
aF19.381514072418213
aF301.7178499698639
aF300.4652349948883
aF93.43950200080872
aF1.0078380107879639
aF216.82649087905884
aF237.3503749370575
aF300.43251609802246
aF133.17423701286316
aF0.7503180503845215
aF172.85020089149475
aF1.0282220840454102
aF6.5056469440460205
aF0.655087947845459
aF13.006249904632568
aF47.93656802177429
aF11.83912992477417
aF43.5123610496521
aF3.612598180770874
aF1.2462232112884521
aF301.03133392333984
aF301.6386089324951
aF1.5525870323181152
aF178.4492108821869
aF301.2791430950165
aF4.046696901321411
aF1.4201891422271729
aF9.281738996505737
aF301.0728061199188
aF301.4393150806427
aF7.164862871170044
aF300.57898807525635
aF12.631149053573608
aF1.5706450939178467
aF1.4088988304138184
aF1.4854021072387695
aF301.0976059436798
aF3.288379192352295
aF305.6280269622803
aF62.811915159225464
aF300.38418197631836
aF2.358142137527466
aF89.66692280769348
aF301.32938289642334
aF1.5397348403930664
aF1.3059849739074707
aF54.73314809799194
aF191.13297200202942
aF9.99796199798584
aF301.00277304649353
aF1.3956630229949951
aF21.87672209739685
aF2.8367371559143066
aF4.869035959243774
aF95.37412095069885
aF43.68951487541199
aF124.37559914588928
aF220.020005941391
aF2.8942739963531494
aF8.830471992492676
aF20.10898494720459
aF300.16359210014343
aF300.58675599098206
aF301.3330979347229
aF1.3339989185333252
aF301.61325788497925
aF302.480614900589
aF4.872241020202637
aF301.20498299598694
aF300.6520290374756
aF254.30515098571777
aF300.395663022995
aF301.2968590259552
aF43.946292877197266
aF1.5703320503234863
aF80.36231088638306
aF1.395583152770996
aF3.156836986541748
aF0.5873579978942871
aF1.3769221305847168
aF1.558622121810913
aF0.5600271224975586
aF5.718946933746338
aF301.2667751312256
aF301.50789880752563
aF2.123486042022705
aF301.5918560028076
aF7.938462018966675
aF301.49343180656433
aF42.4356791973114
aF2.1342649459838867
aF301.3950619697571
aF300.52152585983276
aF301.50952219963074
aF16.507731914520264
aF300.9322838783264
aF328.49396800994873
aF92.47901892662048
aF225.56783318519592
aF300.9492881298065
aF300.6965560913086
aF67.07351279258728
aF4.167351007461548
aF300.46879386901855
aF9.7328360080719
aF0.45795607566833496
aF301.34577798843384
aF3.2715578079223633
aF0.5578708648681641
aF0.6920340061187744
aF301.39943289756775
aF1.4839420318603516
aF302.06037402153015
aF279.0402419567108
aF300.87454891204834
aF300.1281621456146
aF0.7472891807556152
aF300.25189685821533
aF0.620110034942627
aF0.783797025680542
aF300.336571931839
aF300.66693091392517
aF8.77541184425354
aF2.243945837020874
aF1.39005708694458
aF5.723927974700928
aF25.996344089508057
aF301.6131319999695
aF74.4984838962555
aF1.9648411273956299
aF0.6703789234161377
aF308.1628358364105
aF377.2904350757599
aF181.3319160938263
aF20.292221069335938
aF4.0484230518341064
aF3.5736892223358154
aF1.8803460597991943
aF3.7885358333587646
aF2.310580015182495
aF301.8720600605011
aF301.05866384506226
aF301.04114294052124
aF2.795835018157959
aF301.23118686676025
aF301.2747530937195
aF300.7965621948242
aF300.3491268157959
aF8.19867992401123
aF0.729910135269165
aF1.6516780853271484
as.