(dp0
S'successes'
p1
(lp2
I01
aI01
aI01
aI01
aI01
aI00
aI01
aI01
aI01
aI01
aI01
aI01
aI01
aI01
aI01
aI01
aI01
aI00
aI01
aI01
aI01
aI00
aI00
aI01
aI01
aI01
aI01
aI01
aI01
aI01
aI01
aI00
aI01
aI01
aI01
aI01
aI01
aI01
aI01
aI01
aI01
aI01
aI01
aI01
aI01
aI01
aI01
aI01
aI01
aI01
aI01
aI01
aI01
aI01
aI01
aI01
aI01
aI01
aI01
aI00
aI01
aI01
aI01
aI01
aI01
aI01
aI00
aI01
aI01
aI01
aI01
aI01
aI01
aI01
aI01
aI01
aI01
aI01
aI01
aI01
aI01
aI00
aI01
aI01
aI01
aI01
aI01
aI01
aI00
aI01
aI01
aI01
aI01
aI01
aI00
aI01
aI01
aI01
aI01
aI01
aI01
aI01
aI01
aI01
aI01
aI01
aI01
aI01
aI01
aI01
aI01
aI01
aI01
aI01
aI01
aI01
aI01
aI01
aI00
aI01
aI01
aI01
aI01
aI01
aI01
aI01
aI01
aI01
aI01
aI01
aI01
aI01
aI01
aI01
aI01
aI01
aI01
aI01
aI01
aI01
aI01
aI01
aI00
aI01
aI01
aI01
aI01
aI01
aI01
aI00
aI01
aI01
aI01
aI01
aI01
aI01
aI01
aI01
aI01
aI01
aI01
aI01
aI01
aI01
aI01
aI01
aI01
aI01
aI01
aI01
aI01
aI01
aI01
aI01
aI01
aI01
aI01
aI01
aI01
aI01
aI01
aI01
aI01
aI01
aI01
aI01
aI01
aI01
aI01
aI01
aI01
aI01
aI01
aI01
aI01
aI01
aI01
aI01
aI00
aI01
aI01
aI01
aI01
aI01
aI01
aI01
aI01
aI01
aI01
aI01
aI01
aI01
aI01
aI01
aI01
aI01
aI01
aI01
aI01
aI01
aI00
aI01
aI01
aI01
aI01
aI01
aI01
aI01
aI01
aI01
aI01
aI01
aI01
aI01
aI00
aI00
aI01
aI01
aI01
aI01
aI01
aI01
aI01
aI01
aI01
aI01
aI01
aI01
aI01
aI01
aI01
aI01
aI01
aI01
aI01
aI01
aI01
aI01
aI01
aI01
asS'plan_length'
p3
(lp4
I2
aI1
aI3
aI1
aI1
aI1
aI1
aI1
aI4
aI1
aI2
aI1
aI1
aI2
aI1
aI2
aI1
aI1
aI1
aI3
aI2
aI2
aI2
aI4
aI9
aI1
aI1
aI7
aI1
aI1
aI1
aI1
aI1
aI1
aI1
aI2
aI2
aI1
aI3
aI1
aI3
aI1
aI2
aI1
aI1
aI1
aI1
aI2
aI1
aI3
aI1
aI1
aI2
aI1
aI1
aI1
aI1
aI1
aI2
aI2
aI1
aI1
aI2
aI2
aI3
aI1
aI1
aI2
aI2
aI2
aI1
aI1
aI1
aI1
aI1
aI2
aI1
aI5
aI3
aI7
aI2
aI2
aI1
aI3
aI1
aI1
aI1
aI1
aI1
aI1
aI1
aI1
aI3
aI1
aI1
aI6
aI2
aI1
aI2
aI2
aI1
aI2
aI3
aI1
aI1
aI4
aI2
aI1
aI2
aI4
aI1
aI1
aI1
aI1
aI6
aI7
aI1
aI2
aI2
aI1
aI1
aI1
aI2
aI4
aI1
aI2
aI1
aI1
aI1
aI5
aI1
aI1
aI3
aI4
aI1
aI1
aI2
aI1
aI2
aI1
aI3
aI1
aI1
aI1
aI1
aI1
aI1
aI2
aI2
aI2
aI2
aI1
aI1
aI2
aI1
aI7
aI1
aI1
aI2
aI2
aI1
aI1
aI2
aI3
aI1
aI6
aI2
aI2
aI2
aI1
aI1
aI3
aI1
aI1
aI1
aI1
aI1
aI10
aI1
aI1
aI2
aI4
aI3
aI1
aI1
aI3
aI1
aI1
aI1
aI2
aI1
aI1
aI1
aI1
aI2
aI2
aI2
aI1
aI1
aI1
aI2
aI2
aI5
aI1
aI2
aI2
aI2
aI1
aI1
aI1
aI1
aI1
aI1
aI1
aI8
aI1
aI2
aI2
aI4
aI1
aI1
aI1
aI1
aI5
aI2
aI4
aI5
aI2
aI2
aI1
aI2
aI1
aI1
aI1
aI1
aI1
aI2
aI1
aI1
aI1
aI3
aI1
aI5
aI1
aI1
aI1
aI1
aI1
aI1
aI4
aI1
aI2
aI2
aI3
aI2
aI1
aI2
aI1
aI1
aI4
asS'num_nodes'
p5
(lp6
I1
aI1
aI2
aI1
aI1
aI6
aI1
aI1
aI5
aI1
aI1
aI1
aI1
aI2
aI1
aI1
aI4
aI0
aI1
aI2
aI1
aI12
aI42
aI8
aI22
aI1
aI1
aI44
aI1
aI1
aI1
aI5
aI1
aI1
aI1
aI2
aI1
aI1
aI2
aI1
aI2
aI1
aI1
aI7
aI1
aI1
aI1
aI4
aI1
aI3
aI1
aI1
aI1
aI1
aI1
aI3
aI1
aI1
aI6
aI22
aI1
aI1
aI1
aI1
aI2
aI2
aI23
aI1
aI1
aI1
aI1
aI1
aI1
aI1
aI1
aI2
aI1
aI13
aI2
aI42
aI1
aI49
aI5
aI2
aI1
aI1
aI1
aI1
aI45
aI1
aI1
aI1
aI6
aI1
aI40
aI12
aI1
aI1
aI2
aI1
aI1
aI1
aI3
aI1
aI5
aI13
aI1
aI1
aI1
aI13
aI1
aI1
aI3
aI1
aI7
aI8
aI1
aI3
aI41
aI1
aI1
aI1
aI1
aI3
aI1
aI1
aI1
aI3
aI2
aI10
aI1
aI7
aI10
aI5
aI1
aI1
aI1
aI1
aI2
aI6
aI2
aI1
aI16
aI1
aI1
aI1
aI1
aI1
aI1
aI30
aI1
aI3
aI1
aI1
aI2
aI6
aI15
aI1
aI1
aI4
aI1
aI1
aI3
aI3
aI1
aI27
aI1
aI1
aI1
aI2
aI1
aI2
aI1
aI1
aI4
aI1
aI2
aI10
aI1
aI1
aI1
aI4
aI18
aI3
aI1
aI5
aI4
aI1
aI1
aI1
aI1
aI1
aI1
aI9
aI1
aI1
aI1
aI1
aI5
aI2
aI1
aI1
aI4
aI1
aI1
aI1
aI1
aI1
aI1
aI1
aI1
aI1
aI4
aI1
aI8
aI1
aI1
aI1
aI4
aI1
aI11
aI1
aI1
aI5
aI2
aI3
aI10
aI14
aI1
aI2
aI1
aI1
aI1
aI1
aI43
aI22
aI1
aI1
aI1
aI1
aI2
aI1
aI7
aI1
aI1
aI1
aI1
aI1
aI1
aI7
aI27
aI1
aI1
aI3
aI1
aI1
aI1
aI1
aI1
aI3
asS'times'
p7
(lp8
F1.961318016052246
aF0.7801051139831543
aF37.37918305397034
aF1.512369155883789
aF0.4588038921356201
aF300.78248500823975
aF0.9672210216522217
aF0.7788989543914795
aF31.16859006881714
aF0.6838631629943848
aF2.5025880336761475
aF1.5593981742858887
aF0.7853498458862305
aF25.195728063583374
aF2.111704111099243
aF3.3953468799591064
aF24.938710927963257
aF378.99102807044983
aF2.2721469402313232
aF15.182631969451904
aF2.2113819122314453
aF314.8097529411316
aF317.2068700790405
aF44.56799793243408
aF293.9671609401703
aF5.070409059524536
aF0.3962550163269043
aF228.50683403015137
aF0.5406169891357422
aF1.1459579467773438
aF2.475511074066162
aF554.8309710025787
aF1.0592679977416992
aF0.9353570938110352
aF1.5160179138183594
aF12.217647075653076
aF5.154376029968262
aF2.3023831844329834
aF18.763202905654907
aF0.4050579071044922
aF15.369505167007446
aF2.3569929599761963
aF2.4173049926757812
aF34.133800983428955
aF1.5410819053649902
aF1.4897348880767822
aF1.5624959468841553
aF29.543957948684692
aF2.3450019359588623
aF12.292548894882202
aF1.1461338996887207
aF0.5648379325866699
aF2.56717586517334
aF1.64341402053833
aF4.890634059906006
aF22.78640389442444
aF1.0535268783569336
aF1.6076009273529053
aF34.09924912452698
aF314.19573402404785
aF5.421364068984985
aF1.1765129566192627
aF4.393388986587524
aF2.2397220134735107
aF12.357720851898193
aF6.342456102371216
aF302.5956161022186
aF4.070535898208618
aF7.559401035308838
aF7.157055139541626
aF9.921666145324707
aF1.807832956314087
aF0.8265860080718994
aF4.9555439949035645
aF9.71918797492981
aF10.641615152359009
aF0.36833691596984863
aF94.18184304237366
aF10.99636197090149
aF291.26888608932495
aF3.9730989933013916
aF316.78928804397583
aF20.139495849609375
aF7.487431049346924
aF1.3925728797912598
aF1.0090341567993164
aF0.4544060230255127
aF2.6256661415100098
aF307.48523211479187
aF1.9261739253997803
aF1.6796300411224365
aF0.8168401718139648
aF34.5958890914917
aF0.5206868648529053
aF304.4004991054535
aF58.35147309303284
aF2.413429021835327
aF0.71986985206604
aF17.85302209854126
aF3.0378620624542236
aF11.535027027130127
aF2.2022910118103027
aF23.44191884994507
aF1.3507590293884277
aF34.90351486206055
aF68.50081706047058
aF2.390655994415283
aF2.204138994216919
aF9.099469900131226
aF150.07756400108337
aF4.662798166275024
aF1.4304399490356445
aF23.403104066848755
aF1.0843920707702637
aF28.12062096595764
aF42.05792808532715
aF2.8562328815460205
aF21.919870138168335
aF319.19676399230957
aF0.440716028213501
aF2.1927549839019775
aF1.0203759670257568
aF6.468013048171997
aF14.747506856918335
aF1.3426618576049805
aF14.803241968154907
aF1.257951021194458
aF13.022068977355957
aF8.974790811538696
aF58.4234139919281
aF1.240837812423706
aF44.204649925231934
aF71.86472797393799
aF21.536470890045166
aF1.5284578800201416
aF1.3390769958496094
aF15.222700834274292
aF2.1651771068573
aF11.836153030395508
aF23.92830204963684
aF7.57043719291687
aF2.0292258262634277
aF329.31975197792053
aF0.6398940086364746
aF1.507652997970581
aF4.670767068862915
aF2.3088219165802
aF2.1500749588012695
aF3.1582469940185547
aF321.9787030220032
aF2.4012038707733154
aF20.21272587776184
aF2.0700249671936035
aF24.34946298599243
aF14.234529972076416
aF30.24029803276062
aF180.37818694114685
aF1.3471848964691162
aF7.288512229919434
aF24.427175045013428
aF1.1192598342895508
aF6.110677003860474
aF14.592607975006104
aF30.40250301361084
aF1.6997621059417725
aF153.20280599594116
aF5.849701881408691
aF2.938593864440918
aF23.13798999786377
aF6.595669984817505
aF1.534977912902832
aF26.045804977416992
aF1.3787269592285156
aF1.2926898002624512
aF30.997632026672363
aF0.5684869289398193
aF8.114078998565674
aF141.1457679271698
aF1.619844913482666
aF0.5797200202941895
aF7.490494966506958
aF14.89470386505127
aF126.71126508712769
aF30.232494831085205
aF9.06967306137085
aF41.5201199054718
aF18.183422088623047
aF2.3500301837921143
aF7.806493043899536
aF14.040361881256104
aF0.7026150226593018
aF1.162782907485962
aF0.950965166091919
aF63.152122020721436
aF5.28115701675415
aF10.606978178024292
aF4.348388910293579
aF0.529731035232544
aF309.74908089637756
aF7.740407943725586
aF11.100620031356812
aF14.7589430809021
aF47.350029945373535
aF0.31889891624450684
aF3.2497358322143555
aF3.5216989517211914
aF7.654844045639038
aF0.4668769836425781
aF1.744908094406128
aF2.221569061279297
aF0.5537929534912109
aF0.7069699764251709
aF31.44344711303711
aF1.5064918994903564
aF59.976216077804565
aF0.55019211769104
aF10.463595151901245
aF3.233603000640869
aF40.512357234954834
aF0.7073400020599365
aF343.2257180213928
aF0.6527838706970215
aF0.9381179809570312
aF26.24349093437195
aF11.578310012817383
aF9.84849500656128
aF43.98746299743652
aF74.6691370010376
aF12.565948009490967
aF8.996551990509033
aF4.934041976928711
aF1.4439671039581299
aF1.5225470066070557
aF79.89594793319702
aF386.44885301589966
aF329.22169303894043
aF5.679500102996826
aF2.067354917526245
aF2.0664050579071045
aF1.9424870014190674
aF19.01510190963745
aF7.32333517074585
aF51.45906686782837
aF19.22673988342285
aF4.3993730545043945
aF3.566545009613037
aF1.8704938888549805
aF3.83050799369812
aF0.9786930084228516
aF41.502947092056274
aF143.27917909622192
aF8.063889026641846
aF4.223901987075806
aF19.621531009674072
aF14.56557297706604
aF6.196981906890869
aF1.530885934829712
aF4.757182836532593
aF0.9146409034729004
aF35.32562804222107
as.