(dp0
S'successes'
p1
(lp2
I01
aI01
aI00
aI01
aI00
asS'pidxs'
p3
(lp4
I20004
aI20003
aI20000
aI20002
aI20001
asS'plan_length'
p5
(lp6
I9
aI1
aI7
asS'num_nodes'
p7
(lp8
I34
aI1
aI24
aI19
aI22
asS'times'
p9
(lp10
F215.68764209747314
aF41.23030090332031
aF321.1264998912811
aF130.51117205619812
aF433.54585313796997
as.