(dp0
S'successes'
p1
(lp2
I01
aI01
aI01
aI01
aI01
aI01
aI00
aI01
aI01
aI00
aI01
aI01
aI01
aI01
aI01
aI01
aI01
aI01
aI01
aI01
aI00
aI01
aI01
aI01
aI01
aI01
aI01
aI00
aI01
aI01
aI00
aI01
aI01
aI01
aI01
aI01
aI01
aI01
aI01
aI01
aI01
aI01
aI01
aI00
aI01
aI01
aI01
aI01
aI00
aI01
aI00
aI01
aI01
aI01
aI00
aI01
aI00
aI01
aI01
aI01
aI01
aI01
aI01
aI00
aI00
aI01
aI01
aI01
aI01
aI01
aI01
aI00
aI01
aI00
aI00
aI01
aI00
aI01
aI01
aI00
aI01
aI01
aI01
aI01
aI01
aI01
aI01
aI00
aI01
aI01
aI01
aI00
aI01
aI01
aI00
aI01
aI01
aI00
aI00
aI01
aI00
aI01
aI01
aI01
aI01
aI01
aI01
aI01
aI01
aI01
aI01
aI01
aI01
aI01
aI01
aI01
aI01
aI01
aI01
aI00
aI00
aI01
aI01
aI01
aI01
aI01
aI01
aI00
aI01
aI01
aI01
aI01
aI01
aI01
aI01
aI01
aI01
aI01
aI01
aI01
aI01
aI01
aI00
aI00
aI00
aI01
aI01
aI01
aI01
aI00
aI01
aI01
aI01
aI01
aI01
aI01
aI01
aI01
aI01
aI01
aI01
aI01
aI01
aI01
aI01
aI00
aI01
aI00
aI01
aI01
aI01
aI01
aI01
aI01
aI00
aI01
aI01
aI01
aI01
aI01
aI01
aI01
aI00
aI01
aI01
aI01
aI01
aI01
aI01
aI01
aI00
aI01
aI01
aI00
aI00
aI01
aI00
aI01
aI01
aI01
aI01
aI00
aI00
aI01
aI00
aI00
aI01
aI01
aI01
aI01
aI01
aI01
aI01
aI01
aI01
aI01
aI01
aI01
aI00
aI01
aI01
aI01
aI00
aI01
aI01
aI01
aI01
aI01
aI01
aI01
aI01
aI01
aI01
aI01
aI01
aI00
aI01
aI01
aI00
aI01
aI00
aI00
aI01
aI01
aI01
aI01
aI01
aI01
aI00
aI01
aI01
aI01
aI01
aI00
aI01
aI01
aI01
aI01
aI00
aI00
aI01
aI01
aI00
aI00
aI01
aI01
aI01
aI00
aI00
aI00
aI01
aI01
aI00
aI01
aI01
aI01
aI00
aI01
aI00
aI01
aI01
aI01
aI01
aI00
aI01
aI00
aI01
aI01
aI01
aI00
aI01
aI01
aI01
aI01
aI01
aI00
aI01
aI00
aI00
aI01
aI01
aI00
aI00
aI01
aI01
aI01
aI01
aI01
aI01
aI00
aI01
aI01
aI01
aI01
aI01
aI00
aI01
aI01
aI01
aI00
aI01
aI01
aI01
aI01
aI01
aI01
aI01
aI01
aI01
aI01
aI00
aI01
aI01
aI01
aI01
aI01
aI00
aI01
aI01
aI01
aI01
aI01
aI01
aI00
aI01
aI00
aI01
aI00
aI01
aI01
aI01
aI01
aI01
aI00
aI01
aI01
aI01
aI01
aI01
aI01
aI01
aI01
aI01
aI01
aI00
aI01
aI01
aI00
aI00
aI01
aI01
aI01
aI01
aI01
aI01
aI01
aI01
aI01
aI01
aI01
aI00
aI01
aI00
aI01
aI01
aI01
aI01
aI00
aI01
aI01
aI01
aI01
aI01
aI01
aI00
aI01
aI01
aI01
aI01
aI01
aI01
aI01
aI00
aI01
aI01
aI01
aI01
aI01
aI01
aI00
aI01
aI01
aI01
aI00
aI01
aI01
aI00
aI01
aI01
aI01
aI01
aI00
aI01
aI01
aI00
aI00
aI01
aI01
aI01
aI01
aI00
aI00
aI01
aI01
aI01
aI01
aI01
aI01
aI00
aI00
aI01
aI01
aI00
aI01
aI01
aI01
aI01
aI01
aI00
aI01
aI01
aI01
aI01
aI01
aI01
aI00
aI01
aI00
aI01
aI01
aI01
aI01
aI01
aI01
aI01
aI01
aI01
aI00
aI01
aI01
aI01
aI01
aI01
aI01
aI01
aI00
aI01
aI01
aI01
aI01
aI00
aI01
aI00
aI01
aI01
aI01
aI01
aI00
aI01
aI01
aI01
aI01
aI01
aI01
aI01
aI01
aI01
aI01
aI01
aI01
aI01
aI00
aI00
aI01
aI01
aI01
aI01
aI01
aI01
aI01
aI01
aI01
aI01
aI01
aI01
aI01
aI01
aI00
aI01
aI01
aI01
aI01
aI01
aI01
aI01
aI00
aI00
aI00
aI01
aI01
aI00
aI01
aI00
aI01
aI00
aI01
aI01
aI00
aI01
aI01
aI01
aI01
aI01
aI01
aI01
aI01
aI00
aI01
aI01
aI01
aI01
aI01
aI01
aI01
aI01
aI01
aI01
aI01
aI01
aI01
aI01
aI01
aI01
aI01
aI01
aI01
aI01
aI00
aI01
aI00
aI00
aI01
aI00
aI01
aI01
aI01
aI01
aI01
aI01
aI01
aI01
aI01
aI01
aI01
aI01
aI01
aI01
aI01
aI00
aI00
aI01
aI01
aI01
aI01
aI01
aI00
aI01
aI01
aI01
aI01
aI01
aI00
aI01
aI01
aI01
aI01
aI01
aI01
aI01
aI00
aI01
aI01
aI00
aI01
aI01
aI01
aI01
aI01
aI01
aI01
aI01
aI00
aI01
aI01
aI00
aI01
aI01
aI01
aI01
aI01
aI01
aI01
aI01
aI01
aI01
aI00
aI01
aI01
aI01
aI01
aI01
aI01
aI01
aI01
aI01
aI01
aI01
aI01
aI00
aI00
aI01
aI01
aI00
aI01
aI00
aI01
aI00
aI01
aI01
aI01
aI01
aI01
aI01
aI01
aI01
aI01
aI01
aI00
aI01
aI01
aI00
aI01
aI01
aI01
aI00
aI01
aI01
aI01
aI00
aI01
aI01
aI00
aI00
aI01
aI01
aI01
aI01
aI01
aI01
aI00
aI00
aI00
aI01
aI01
aI01
aI01
aI01
aI01
aI00
aI01
aI01
aI01
aI00
aI01
aI01
aI01
aI00
aI01
aI00
aI01
aI00
aI01
aI01
aI01
aI01
aI01
aI01
aI00
aI01
aI01
aI00
aI01
aI01
aI00
aI01
aI01
aI01
aI01
aI00
aI01
aI01
aI01
aI01
aI01
aI01
aI01
aI01
aI01
aI01
aI01
aI01
aI01
aI00
aI00
aI01
aI00
aI01
aI01
aI01
aI01
aI01
aI01
aI01
aI00
aI00
aI00
aI01
aI01
aI01
aI01
aI00
aI00
aI00
aI01
aI01
aI00
aI01
aI01
aI01
aI01
aI01
aI00
aI01
aI01
aI01
aI01
aI01
aI01
aI01
aI01
aI01
aI00
aI01
aI01
aI01
aI01
aI01
aI01
aI01
aI01
aI01
aI01
aI00
aI01
aI01
aI01
aI01
aI01
aI00
aI01
aI01
aI00
aI01
aI01
aI01
aI01
aI01
aI01
aI01
aI01
aI01
aI00
aI01
aI01
aI01
aI01
aI00
aI01
aI01
aI00
aI01
aI01
aI00
aI01
aI00
aI01
aI01
aI01
aI01
aI00
aI01
aI00
aI00
aI00
aI01
aI01
aI01
aI01
aI00
aI01
aI01
aI01
aI00
aI01
aI01
aI01
aI01
aI01
aI00
aI01
aI01
aI00
aI01
aI01
aI01
aI00
aI01
aI01
aI01
aI00
aI01
aI00
aI01
aI01
aI01
aI00
aI01
aI01
aI01
aI01
aI01
aI01
aI01
aI01
aI00
aI01
aI01
aI01
aI01
aI01
aI01
aI00
aI01
aI01
aI01
aI01
aI01
aI01
aI00
aI01
aI00
aI01
aI00
aI01
aI00
aI01
aI01
aI00
aI00
aI01
aI01
aI01
aI00
aI01
aI01
aI01
aI00
aI00
aI01
aI01
aI01
aI01
aI00
aI01
aI01
aI01
aI00
aI01
aI01
aI01
aI01
aI01
aI00
aI01
aI01
aI01
aI01
aI01
aI01
aI01
aI01
aI00
aI01
aI00
aI01
aI01
aI01
aI01
aI01
asS'pidxs'
p3
(lp4
I20050
aI20038
aI20028
aI20033
aI20091
aI20082
aI20006
aI20045
aI20099
aI20004
aI20035
aI20022
aI20002
aI20003
aI20027
aI20004
aI20083
aI20035
aI20062
aI20030
aI20006
aI20081
aI20034
aI20054
aI20073
aI20054
aI20086
aI20005
aI20022
aI20032
aI20087
aI20072
aI20029
aI20072
aI20038
aI20033
aI20034
aI20061
aI20007
aI20064
aI20003
aI20023
aI20033
aI20093
aI20084
aI20097
aI20096
aI20071
aI20001
aI20000
aI20076
aI20056
aI20027
aI20082
aI20004
aI20028
aI20030
aI20092
aI20069
aI20079
aI20045
aI20011
aI20089
aI20063
aI20001
aI20028
aI20074
aI20029
aI20089
aI20035
aI20000
aI20091
aI20016
aI20015
aI20024
aI20096
aI20047
aI20072
aI20042
aI20055
aI20034
aI20048
aI20037
aI20065
aI20050
aI20041
aI20008
aI20093
aI20016
aI20025
aI20062
aI20005
aI20080
aI20028
aI20047
aI20002
aI20044
aI20004
aI20087
aI20012
aI20015
aI20038
aI20095
aI20050
aI20033
aI20027
aI20061
aI20054
aI20037
aI20079
aI20079
aI20036
aI20001
aI20000
aI20022
aI20012
aI20007
aI20045
aI20073
aI20067
aI20043
aI20036
aI20042
aI20037
aI20010
aI20070
aI20020
aI20001
aI20078
aI20002
aI20053
aI20070
aI20040
aI20026
aI20050
aI20026
aI20074
aI20014
aI20099
aI20069
aI20042
aI20080
aI20090
aI20055
aI20060
aI20060
aI20076
aI20024
aI20075
aI20046
aI20033
aI20016
aI20049
aI20002
aI20089
aI20092
aI20098
aI20021
aI20099
aI20069
aI20010
aI20054
aI20092
aI20024
aI20014
aI20090
aI20014
aI20009
aI20076
aI20031
aI20041
aI20058
aI20028
aI20063
aI20027
aI20025
aI20023
aI20075
aI20051
aI20014
aI20025
aI20037
aI20066
aI20066
aI20042
aI20012
aI20003
aI20063
aI20037
aI20018
aI20005
aI20050
aI20051
aI20002
aI20005
aI20013
aI20090
aI20058
aI20029
aI20023
aI20067
aI20043
aI20055
aI20010
aI20055
aI20034
aI20021
aI20026
aI20086
aI20033
aI20059
aI20032
aI20042
aI20044
aI20082
aI20022
aI20091
aI20036
aI20043
aI20079
aI20064
aI20063
aI20030
aI20017
aI20078
aI20073
aI20045
aI20023
aI20083
aI20034
aI20058
aI20080
aI20077
aI20062
aI20042
aI20009
aI20033
aI20014
aI20094
aI20091
aI20099
aI20035
aI20040
aI20034
aI20000
aI20058
aI20085
aI20014
aI20069
aI20013
aI20041
aI20069
aI20027
aI20043
aI20076
aI20059
aI20042
aI20036
aI20019
aI20015
aI20003
aI20074
aI20019
aI20052
aI20077
aI20010
aI20031
aI20006
aI20067
aI20005
aI20008
aI20071
aI20075
aI20018
aI20042
aI20070
aI20019
aI20025
aI20053
aI20044
aI20064
aI20013
aI20054
aI20052
aI20004
aI20052
aI20013
aI20021
aI20039
aI20052
aI20007
aI20096
aI20005
aI20064
aI20041
aI20052
aI20059
aI20052
aI20024
aI20009
aI20024
aI20051
aI20027
aI20034
aI20081
aI20080
aI20071
aI20044
aI20015
aI20006
aI20082
aI20089
aI20071
aI20010
aI20028
aI20051
aI20084
aI20033
aI20068
aI20063
aI20085
aI20037
aI20098
aI20060
aI20080
aI20062
aI20026
aI20002
aI20059
aI20048
aI20006
aI20078
aI20081
aI20032
aI20070
aI20011
aI20085
aI20014
aI20029
aI20039
aI20079
aI20061
aI20074
aI20035
aI20020
aI20019
aI20037
aI20046
aI20039
aI20049
aI20021
aI20009
aI20003
aI20085
aI20048
aI20023
aI20076
aI20007
aI20034
aI20042
aI20070
aI20054
aI20025
aI20046
aI20088
aI20027
aI20015
aI20093
aI20055
aI20050
aI20076
aI20063
aI20003
aI20032
aI20064
aI20010
aI20068
aI20031
aI20068
aI20077
aI20019
aI20066
aI20093
aI20040
aI20031
aI20018
aI20073
aI20056
aI20040
aI20041
aI20036
aI20001
aI20026
aI20035
aI20004
aI20012
aI20011
aI20074
aI20051
aI20071
aI20068
aI20008
aI20057
aI20000
aI20032
aI20000
aI20028
aI20056
aI20046
aI20067
aI20025
aI20020
aI20033
aI20067
aI20032
aI20010
aI20085
aI20059
aI20066
aI20029
aI20048
aI20011
aI20005
aI20022
aI20047
aI20075
aI20039
aI20064
aI20023
aI20008
aI20011
aI20075
aI20075
aI20060
aI20051
aI20037
aI20007
aI20003
aI20067
aI20057
aI20002
aI20041
aI20052
aI20031
aI20077
aI20086
aI20099
aI20027
aI20093
aI20010
aI20041
aI20017
aI20087
aI20079
aI20065
aI20094
aI20048
aI20046
aI20045
aI20073
aI20065
aI20076
aI20007
aI20019
aI20045
aI20009
aI20013
aI20095
aI20029
aI20097
aI20012
aI20005
aI20028
aI20010
aI20013
aI20043
aI20003
aI20025
aI20077
aI20089
aI20094
aI20034
aI20002
aI20044
aI20057
aI20012
aI20008
aI20051
aI20022
aI20051
aI20013
aI20079
aI20008
aI20086
aI20078
aI20050
aI20068
aI20023
aI20068
aI20095
aI20086
aI20063
aI20055
aI20000
aI20089
aI20056
aI20025
aI20018
aI20081
aI20002
aI20097
aI20044
aI20084
aI20006
aI20007
aI20049
aI20024
aI20088
aI20053
aI20098
aI20031
aI20016
aI20007
aI20047
aI20016
aI20088
aI20082
aI20088
aI20018
aI20080
aI20053
aI20046
aI20067
aI20013
aI20090
aI20098
aI20021
aI20043
aI20016
aI20051
aI20096
aI20004
aI20065
aI20029
aI20027
aI20056
aI20087
aI20039
aI20026
aI20060
aI20061
aI20014
aI20036
aI20014
aI20065
aI20079
aI20059
aI20096
aI20026
aI20045
aI20049
aI20054
aI20024
aI20049
aI20018
aI20095
aI20092
aI20001
aI20064
aI20004
aI20006
aI20053
aI20094
aI20040
aI20034
aI20018
aI20051
aI20092
aI20044
aI20048
aI20029
aI20044
aI20022
aI20032
aI20011
aI20024
aI20081
aI20000
aI20019
aI20019
aI20030
aI20065
aI20078
aI20041
aI20012
aI20046
aI20008
aI20001
aI20073
aI20082
aI20072
aI20088
aI20071
aI20032
aI20048
aI20032
aI20017
aI20040
aI20038
aI20091
aI20097
aI20054
aI20009
aI20086
aI20021
aI20035
aI20098
aI20057
aI20072
aI20048
aI20061
aI20043
aI20023
aI20040
aI20030
aI20099
aI20062
aI20026
aI20072
aI20081
aI20062
aI20068
aI20081
aI20020
aI20038
aI20053
aI20087
aI20057
aI20049
aI20004
aI20032
aI20098
aI20038
aI20046
aI20046
aI20000
aI20020
aI20068
aI20005
aI20093
aI20097
aI20003
aI20055
aI20083
aI20088
aI20044
aI20052
aI20083
aI20021
aI20045
aI20075
aI20075
aI20008
aI20002
aI20038
aI20078
aI20036
aI20015
aI20036
aI20008
aI20047
aI20039
aI20095
aI20084
aI20052
aI20010
aI20074
aI20049
aI20060
aI20069
aI20036
aI20055
aI20056
aI20060
aI20017
aI20082
aI20076
aI20039
aI20084
aI20043
aI20052
aI20004
aI20092
aI20069
aI20050
aI20068
aI20082
aI20012
aI20090
aI20021
aI20086
aI20021
aI20030
aI20020
aI20073
aI20035
aI20085
aI20022
aI20011
aI20096
aI20009
aI20061
aI20083
aI20020
aI20038
aI20011
aI20071
aI20004
aI20064
aI20005
aI20093
aI20039
aI20016
aI20090
aI20070
aI20031
aI20017
aI20050
aI20060
aI20007
aI20039
aI20069
aI20031
aI20070
aI20028
aI20003
aI20077
aI20016
aI20001
aI20059
aI20020
aI20056
aI20002
aI20067
aI20056
aI20085
aI20003
aI20017
aI20061
aI20057
aI20008
aI20063
aI20023
aI20075
aI20030
aI20019
aI20027
aI20048
aI20096
aI20092
aI20084
aI20046
aI20062
aI20012
aI20071
aI20067
aI20091
aI20012
aI20050
aI20084
aI20025
aI20004
aI20020
aI20038
aI20053
aI20016
aI20080
aI20054
aI20063
aI20080
aI20074
aI20015
aI20059
aI20083
aI20077
aI20058
aI20031
aI20041
aI20024
aI20039
aI20087
aI20095
aI20043
aI20040
aI20097
aI20070
aI20040
aI20021
aI20005
aI20065
aI20070
aI20056
aI20037
aI20074
aI20057
aI20044
aI20026
aI20036
aI20078
aI20099
aI20080
aI20094
aI20018
aI20065
aI20057
aI20016
aI20006
aI20069
aI20017
aI20090
aI20066
aI20072
aI20066
aI20081
aI20091
aI20014
aI20077
aI20029
aI20049
aI20053
aI20009
aI20047
aI20030
aI20047
aI20064
aI20017
aI20053
aI20001
aI20015
aI20066
aI20059
aI20035
aI20047
aI20045
aI20018
aI20058
aI20076
aI20097
aI20047
aI20048
aI20065
aI20087
aI20084
aI20079
aI20000
aI20015
aI20086
aI20003
aI20072
aI20085
aI20013
aI20015
aI20020
aI20053
aI20042
aI20055
aI20029
aI20024
aI20073
aI20013
aI20058
aI20017
aI20037
aI20040
aI20095
aI20030
aI20061
aI20022
aI20033
aI20061
aI20058
aI20006
aI20078
aI20017
aI20074
aI20022
aI20089
aI20077
aI20009
aI20060
aI20011
aI20083
aI20088
aI20054
aI20001
aI20028
aI20078
aI20094
aI20094
aI20019
aI20057
aI20084
aI20011
aI20073
aI20009
aI20045
aI20047
aI20043
aI20081
aI20066
aI20038
aI20062
aI20006
aI20002
aI20049
aI20001
aI20066
aI20049
aI20098
aI20083
aI20018
aI20062
aI20030
aI20072
aI20035
aI20025
aI20058
aI20000
aI20000
aI20041
aI20087
aI20023
aI20026
aI20001
aI20082
aI20007
aI20031
aI20083
aI20071
asS'plan_length'
p5
(lp6
I1
aI1
aI1
aI1
aI1
aI1
aI1
aI2
aI1
aI1
aI3
aI1
aI2
aI9
aI2
aI1
aI20
aI25
aI1
aI3
aI1
aI1
aI1
aI1
aI1
aI1
aI1
aI1
aI1
aI1
aI1
aI12
aI3
aI1
aI1
aI1
aI2
aI1
aI3
aI1
aI1
aI1
aI9
aI7
aI3
aI1
aI1
aI1
aI1
aI1
aI1
aI11
aI1
aI2
aI1
aI1
aI1
aI1
aI1
aI1
aI1
aI1
aI1
aI1
aI2
aI1
aI1
aI1
aI1
aI3
aI1
aI1
aI2
aI8
aI2
aI6
aI1
aI1
aI1
aI1
aI1
aI1
aI2
aI1
aI1
aI1
aI1
aI1
aI1
aI2
aI9
aI1
aI1
aI1
aI1
aI1
aI1
aI1
aI1
aI1
aI1
aI1
aI1
aI7
aI3
aI1
aI1
aI7
aI1
aI1
aI1
aI1
aI2
aI6
aI1
aI5
aI6
aI6
aI2
aI12
aI1
aI1
aI1
aI3
aI1
aI1
aI7
aI3
aI14
aI1
aI1
aI1
aI1
aI3
aI1
aI1
aI3
aI1
aI1
aI1
aI2
aI6
aI1
aI5
aI12
aI5
aI1
aI1
aI1
aI19
aI1
aI1
aI1
aI7
aI1
aI1
aI1
aI2
aI1
aI1
aI1
aI9
aI12
aI1
aI2
aI7
aI3
aI1
aI1
aI1
aI1
aI1
aI4
aI1
aI8
aI1
aI1
aI1
aI7
aI1
aI1
aI1
aI1
aI9
aI4
aI2
aI1
aI2
aI1
aI11
aI1
aI1
aI1
aI1
aI1
aI2
aI1
aI1
aI6
aI1
aI1
aI1
aI10
aI4
aI2
aI1
aI1
aI1
aI1
aI1
aI1
aI1
aI1
aI1
aI1
aI1
aI1
aI1
aI1
aI1
aI1
aI1
aI1
aI9
aI1
aI11
aI1
aI1
aI1
aI9
aI1
aI1
aI1
aI4
aI5
aI12
aI1
aI3
aI1
aI1
aI16
aI1
aI1
aI1
aI1
aI4
aI4
aI1
aI3
aI7
aI1
aI1
aI4
aI5
aI5
aI1
aI10
aI1
aI1
aI1
aI1
aI1
aI1
aI2
aI1
aI1
aI1
aI1
aI1
aI1
aI1
aI1
aI1
aI1
aI2
aI6
aI1
aI1
aI2
aI3
aI1
aI3
aI1
aI1
aI1
aI1
aI5
aI3
aI18
aI1
aI3
aI9
aI1
aI1
aI1
aI1
aI3
aI1
aI4
aI1
aI6
aI1
aI1
aI1
aI1
aI1
aI1
aI1
aI2
aI3
aI3
aI1
aI2
aI1
aI5
aI1
aI3
aI1
aI1
aI1
aI1
aI1
aI7
aI7
aI1
aI1
aI1
aI1
aI1
aI1
aI6
aI1
aI1
aI9
aI1
aI1
aI1
aI2
aI1
aI8
aI3
aI2
aI1
aI1
aI1
aI6
aI1
aI1
aI1
aI2
aI4
aI3
aI1
aI1
aI14
aI4
aI1
aI1
aI2
aI1
aI1
aI1
aI5
aI1
aI3
aI1
aI4
aI1
aI1
aI1
aI1
aI3
aI2
aI1
aI1
aI1
aI1
aI1
aI1
aI1
aI1
aI11
aI1
aI1
aI1
aI9
aI1
aI1
aI1
aI2
aI1
aI1
aI2
aI1
aI4
aI1
aI1
aI1
aI1
aI3
aI1
aI1
aI1
aI7
aI1
aI1
aI3
aI18
aI1
aI4
aI15
aI4
aI2
aI1
aI1
aI1
aI7
aI1
aI1
aI3
aI4
aI1
aI2
aI3
aI1
aI5
aI1
aI2
aI1
aI1
aI3
aI11
aI1
aI2
aI6
aI1
aI1
aI1
aI1
aI1
aI1
aI1
aI1
aI2
aI1
aI1
aI1
aI11
aI1
aI1
aI1
aI1
aI1
aI4
aI1
aI6
aI1
aI5
aI1
aI1
aI2
aI1
aI1
aI1
aI1
aI14
aI2
aI1
aI1
aI8
aI1
aI1
aI1
aI1
aI3
aI5
aI1
aI7
aI1
aI1
aI1
aI2
aI1
aI1
aI1
aI1
aI1
aI1
aI2
aI3
aI1
aI1
aI1
aI1
aI2
aI2
aI2
aI1
aI10
aI5
aI1
aI1
aI1
aI3
aI2
aI1
aI1
aI1
aI5
aI6
aI1
aI2
aI1
aI9
aI1
aI4
aI5
aI1
aI1
aI2
aI1
aI1
aI7
aI1
aI6
aI2
aI1
aI18
aI8
aI2
aI8
aI1
aI1
aI1
aI1
aI2
aI2
aI1
aI8
aI1
aI1
aI4
aI1
aI1
aI3
aI1
aI20
aI7
aI1
aI5
aI1
aI8
aI1
aI3
aI1
aI1
aI11
aI1
aI2
aI1
aI1
aI3
aI1
aI1
aI1
aI4
aI1
aI1
aI5
aI1
aI1
aI3
aI2
aI1
aI1
aI1
aI11
aI1
aI1
aI1
aI1
aI1
aI1
aI3
aI1
aI1
aI1
aI6
aI1
aI1
aI3
aI10
aI1
aI1
aI1
aI2
aI1
aI8
aI1
aI4
aI2
aI1
aI1
aI1
aI1
aI1
aI1
aI1
aI3
aI1
aI1
aI1
aI5
aI1
aI8
aI1
aI5
aI2
aI1
aI1
aI3
aI1
aI1
aI1
aI1
aI5
aI1
aI9
aI1
aI1
aI1
aI1
aI1
aI3
aI1
aI1
aI1
aI1
aI5
aI1
aI1
aI1
aI1
aI4
aI2
aI1
aI1
aI6
aI1
aI7
aI1
aI7
aI1
aI1
aI1
aI1
aI1
aI1
aI2
aI1
aI7
aI3
aI2
aI15
aI1
aI1
aI1
aI1
aI1
aI2
aI1
aI1
aI1
aI8
aI1
aI1
aI2
aI1
aI1
aI1
aI1
aI5
aI1
aI1
aI4
aI1
aI1
aI1
aI1
aI1
aI1
aI12
aI1
aI1
aI1
aI1
aI1
aI1
aI6
aI1
aI1
aI1
aI1
aI4
aI2
aI1
aI1
aI1
aI3
aI13
aI5
aI1
aI2
aI1
aI1
aI12
aI1
aI3
aI3
aI1
aI2
aI1
aI6
aI3
aI1
aI8
aI1
aI1
aI1
aI1
aI1
aI1
aI1
aI3
aI3
aI7
aI1
aI1
aI4
aI1
asS'num_nodes'
p7
(lp8
I1
aI1
aI1
aI1
aI1
aI1
aI130
aI1
aI6
aI73
aI1
aI1
aI8
aI1
aI4
aI34
aI9
aI1
aI108
aI94
aI84
aI1
aI5
aI1
aI1
aI1
aI1
aI97
aI1
aI1
aI7
aI1
aI1
aI1
aI1
aI1
aI76
aI14
aI1
aI1
aI1
aI3
aI1
aI10
aI5
aI1
aI1
aI1
aI21
aI66
aI55
aI14
aI7
aI1
aI25
aI1
aI110
aI1
aI1
aI1
aI1
aI38
aI1
aI69
aI49
aI8
aI1
aI1
aI1
aI1
aI1
aI35
aI1
aI75
aI61
aI1
aI67
aI1
aI1
aI2
aI1
aI3
aI1
aI1
aI1
aI1
aI5
aI0
aI1
aI1
aI3
aI31
aI26
aI5
aI82
aI39
aI1
aI32
aI38
aI1
aI50
aI1
aI1
aI1
aI1
aI10
aI1
aI1
aI1
aI1
aI1
aI1
aI3
aI29
aI1
aI1
aI1
aI1
aI1
aI78
aI9
aI1
aI1
aI1
aI1
aI1
aI1
aI48
aI1
aI49
aI5
aI1
aI1
aI22
aI1
aI1
aI1
aI1
aI3
aI27
aI1
aI29
aI0
aI4
aI63
aI35
aI27
aI4
aI31
aI56
aI1
aI1
aI1
aI9
aI1
aI1
aI18
aI5
aI86
aI1
aI1
aI1
aI1
aI15
aI1
aI0
aI1
aI59
aI7
aI1
aI1
aI1
aI3
aI35
aI50
aI1
aI31
aI90
aI17
aI1
aI1
aI1
aI53
aI61
aI1
aI1
aI1
aI32
aI1
aI1
aI86
aI1
aI3
aI51
aI33
aI1
aI0
aI1
aI1
aI67
aI88
aI43
aI10
aI1
aI2
aI124
aI6
aI31
aI6
aI1
aI1
aI1
aI1
aI1
aI23
aI1
aI24
aI1
aI10
aI1
aI1
aI50
aI111
aI1
aI1
aI1
aI1
aI20
aI10
aI3
aI1
aI8
aI1
aI39
aI1
aI27
aI1
aI1
aI145
aI1
aI17
aI10
aI1
aI7
aI1
aI1
aI17
aI1
aI27
aI1
aI1
aI27
aI9
aI13
aI7
aI1
aI1
aI1
aI20
aI54
aI1
aI1
aI0
aI58
aI1
aI1
aI1
aI82
aI33
aI83
aI1
aI1
aI39
aI1
aI1
aI1
aI0
aI1
aI127
aI1
aI1
aI1
aI1
aI25
aI42
aI102
aI1
aI85
aI1
aI129
aI1
aI1
aI42
aI1
aI1
aI73
aI1
aI85
aI36
aI7
aI13
aI98
aI19
aI27
aI1
aI6
aI1
aI1
aI52
aI45
aI1
aI1
aI1
aI1
aI9
aI56
aI8
aI1
aI5
aI34
aI39
aI1
aI1
aI8
aI12
aI12
aI1
aI25
aI1
aI1
aI57
aI1
aI1
aI1
aI1
aI3
aI33
aI1
aI1
aI1
aI1
aI1
aI1
aI2
aI1
aI2
aI1
aI27
aI1
aI1
aI3
aI18
aI1
aI46
aI1
aI8
aI20
aI1
aI16
aI1
aI1
aI1
aI1
aI13
aI34
aI5
aI100
aI2
aI0
aI1
aI7
aI22
aI1
aI1
aI1
aI1
aI9
aI1
aI8
aI1
aI4
aI34
aI2
aI1
aI1
aI1
aI1
aI54
aI1
aI1
aI1
aI6
aI5
aI19
aI95
aI1
aI8
aI1
aI22
aI1
aI19
aI1
aI56
aI1
aI1
aI1
aI1
aI50
aI47
aI114
aI1
aI1
aI1
aI23
aI1
aI1
aI63
aI1
aI30
aI1
aI1
aI58
aI33
aI1
aI50
aI82
aI1
aI1
aI6
aI1
aI94
aI48
aI27
aI12
aI5
aI1
aI1
aI1
aI47
aI96
aI23
aI1
aI102
aI1
aI1
aI3
aI10
aI14
aI0
aI1
aI1
aI38
aI28
aI1
aI1
aI36
aI11
aI66
aI1
aI1
aI1
aI14
aI1
aI5
aI1
aI25
aI1
aI21
aI1
aI1
aI1
aI5
aI3
aI1
aI1
aI2
aI1
aI1
aI1
aI1
aI74
aI1
aI59
aI1
aI28
aI1
aI1
aI33
aI1
aI33
aI1
aI1
aI1
aI3
aI1
aI1
aI3
aI1
aI22
aI1
aI1
aI23
aI0
aI1
aI1
aI16
aI1
aI1
aI1
aI19
aI1
aI1
aI13
aI113
aI1
aI24
aI107
aI108
aI20
aI3
aI1
aI1
aI1
aI15
aI1
aI69
aI29
aI70
aI1
aI18
aI60
aI19
aI68
aI1
aI0
aI3
aI14
aI13
aI1
aI30
aI1
aI3
aI1
aI1
aI18
aI35
aI3
aI1
aI6
aI17
aI1
aI1
aI1
aI1
aI1
aI1
aI1
aI1
aI10
aI1
aI1
aI1
aI48
aI1
aI1
aI1
aI1
aI22
aI1
aI88
aI63
aI8
aI25
aI1
aI17
aI1
aI13
aI1
aI1
aI7
aI1
aI1
aI1
aI1
aI78
aI10
aI1
aI1
aI10
aI10
aI19
aI1
aI1
aI1
aI1
aI26
aI18
aI27
aI1
aI41
aI1
aI41
aI1
aI1
aI3
aI1
aI1
aI1
aI1
aI73
aI1
aI1
aI21
aI9
aI15
aI1
aI1
aI1
aI1
aI3
aI3
aI87
aI3
aI1
aI34
aI37
aI25
aI1
aI1
aI1
aI14
aI3
aI1
aI1
aI1
aI39
aI14
aI17
aI1
aI6
aI1
aI51
aI1
aI8
aI23
aI1
aI1
aI6
aI90
aI0
aI1
aI1
aI2
aI44
aI131
aI1
aI44
aI11
aI3
aI1
aI99
aI45
aI3
aI22
aI1
aI1
aI1
aI28
aI1
aI8
aI53
aI3
aI1
aI17
aI80
aI1
aI1
aI7
aI28
aI1
aI1
aI10
aI16
aI6
aI1
aI59
aI30
aI1
aI32
aI6
aI25
aI40
aI1
aI26
aI1
aI5
aI1
aI1
aI0
aI26
aI1
aI6
aI24
aI1
aI1
aI8
aI31
aI1
aI125
aI1
aI58
aI1
aI22
aI1
aI1
aI37
aI1
aI73
aI1
aI8
aI2
aI11
aI1
aI0
aI1
aI1
aI68
aI1
aI12
aI1
aI1
aI1
aI1
aI1
aI13
aI1
aI1
aI1
aI12
aI1
aI1
aI7
aI106
aI49
aI67
aI28
aI1
aI1
aI1
aI10
aI1
aI21
aI1
aI80
aI132
aI0
aI30
aI7
aI1
aI1
aI12
aI31
aI67
aI1
aI1
aI31
aI1
aI1
aI1
aI20
aI1
aI77
aI1
aI1
aI14
aI1
aI34
aI1
aI27
aI3
aI1
aI86
aI1
aI14
aI1
aI1
aI1
aI1
aI14
aI1
aI29
aI1
aI30
aI1
aI1
aI1
aI1
aI6
aI51
aI1
aI1
aI124
aI1
aI1
aI14
aI1
aI1
aI1
aI1
aI10
aI3
aI32
aI1
aI1
aI36
aI1
aI47
aI40
aI1
aI0
aI18
aI1
aI51
aI1
aI125
aI1
aI1
aI1
aI1
aI92
aI3
aI19
aI93
aI91
aI1
aI16
aI19
aI3
aI87
aI98
aI1
aI1
aI103
aI1
aI1
aI1
aI6
aI1
aI51
aI1
aI1
aI12
aI51
aI1
aI1
aI14
aI11
aI1
aI1
aI82
aI1
aI28
aI1
aI38
aI1
aI20
aI1
aI23
aI1
aI1
aI1
aI1
aI1
aI1
aI9
aI74
aI1
aI1
aI1
aI1
aI1
aI53
aI1
aI32
aI1
aI1
aI1
aI1
aI44
aI19
aI32
aI3
aI44
aI1
aI23
aI1
aI1
aI37
aI43
aI12
aI90
aI10
aI81
aI1
aI7
aI1
aI18
aI52
aI1
aI66
aI1
aI5
aI92
aI6
aI1
aI5
aI51
aI1
aI14
aI6
aI1
aI23
aI101
aI1
aI1
aI1
aI1
aI1
aI1
aI1
aI19
aI58
aI19
aI10
aI24
aI1
aI1
aI8
aI1
asS'times'
p9
(lp10
F3.759202003479004
aF4.2748939990997314
aF10.131072044372559
aF3.661659002304077
aF5.662600040435791
aF9.879961013793945
aF353.80734395980835
aF3.3538780212402344
aF38.613399028778076
aF304.2843179702759
aF3.827141046524048
aF3.693410873413086
aF45.688886880874634
aF21.75611710548401
aF21.44665288925171
aF132.22971296310425
aF23.160635948181152
aF65.19012093544006
aF264.6395800113678
aF279.393550157547
aF301.82475996017456
aF3.6082229614257812
aF51.86714696884155
aF4.60635781288147
aF3.938936948776245
aF3.573058843612671
aF8.283085107803345
aF303.41712713241577
aF3.8140978813171387
aF3.735466957092285
aF301.26127791404724
aF17.581122875213623
aF4.453573942184448
aF22.92836618423462
aF7.527465105056763
aF3.5136260986328125
aF182.1857259273529
aF49.395869970321655
aF3.4708521366119385
aF3.829374074935913
aF36.97184205055237
aF14.510375022888184
aF3.5266449451446533
aF559.0399179458618
aF80.10630798339844
aF14.694154024124146
aF3.4749159812927246
aF4.097488880157471
aF359.14085817337036
aF297.18547081947327
aF365.12645196914673
aF104.10792994499207
aF31.024170875549316
aF10.93135404586792
aF313.1778790950775
aF5.121778964996338
aF361.0142478942871
aF3.349138021469116
aF48.545191049575806
aF3.578016996383667
aF3.5900120735168457
aF184.28544402122498
aF3.9045751094818115
aF425.4117109775543
aF304.1489109992981
aF19.917999982833862
aF5.195116996765137
aF6.745306015014648
aF3.875447988510132
aF3.968130111694336
aF47.27889585494995
aF310.94936203956604
aF4.147197008132935
aF315.0581269264221
aF319.29598689079285
aF3.7029690742492676
aF318.38709783554077
aF8.5140061378479
aF3.82226300239563
aF1715.4828917980194
aF12.913512945175171
aF26.355327129364014
aF6.209486961364746
aF6.066474914550781
aF3.4077200889587402
aF3.7460780143737793
aF46.56593704223633
aF307.6577160358429
aF4.433233022689819
aF3.20009183883667
aF18.185487031936646
aF305.3655331134796
aF95.10267305374146
aF18.00320291519165
aF328.49231481552124
aF161.79870700836182
aF3.881967067718506
aF323.9685070514679
aF304.63611102104187
aF3.217519998550415
aF308.23738288879395
aF3.838047981262207
aF31.718697786331177
aF4.750218152999878
aF4.084857940673828
aF22.735454082489014
aF69.29689502716064
aF3.532365083694458
aF4.358241081237793
aF3.275304079055786
aF3.7922580242156982
aF5.054641008377075
aF20.266653060913086
aF282.26652812957764
aF3.482294797897339
aF3.210890054702759
aF3.562864065170288
aF3.4491240978240967
aF6.092633008956909
aF355.40288376808167
aF334.1133258342743
aF5.008533954620361
aF3.633406162261963
aF9.652343034744263
aF4.275294780731201
aF3.3856849670410156
aF4.3822021484375
aF309.0240869522095
aF3.4802560806274414
aF104.20992684364319
aF72.11076188087463
aF3.54774808883667
aF3.3753199577331543
aF138.56844210624695
aF3.2370901107788086
aF4.499695062637329
aF5.981100082397461
aF3.4423019886016846
aF39.275097131729126
aF118.74143481254578
aF3.6206979751586914
aF73.55138611793518
aF460.5421619415283
aF851.6476399898529
aF338.99647188186646
aF87.03824019432068
aF73.95383810997009
aF27.057209968566895
aF290.646586894989
aF346.3443338871002
aF3.8485140800476074
aF3.8721699714660645
aF4.835438013076782
aF45.923877000808716
aF3.8383710384368896
aF3.8015670776367188
aF129.37105894088745
aF30.39174795150757
aF279.56080317497253
aF60.552571058273315
aF3.362591028213501
aF5.692673921585083
aF3.4604899883270264
aF66.14113306999207
aF3.5960168838500977
aF2978.17214512825
aF3.570079803466797
aF447.34163999557495
aF29.774816036224365
aF4.394495964050293
aF3.728875160217285
aF3.6884639263153076
aF15.87179708480835
aF201.7292399406433
aF302.5014259815216
aF3.503222942352295
aF69.087651014328
aF280.1639258861542
aF99.14732813835144
aF3.440480947494507
aF3.8366470336914062
aF3.1850948333740234
aF378.5614380836487
aF285.062833070755
aF3.899204969406128
aF3.3942711353302
aF3.2791249752044678
aF110.04822278022766
aF3.3543570041656494
aF6.780038118362427
aF302.7837710380554
aF3.325350046157837
aF38.49739694595337
aF303.44790410995483
aF300.5333671569824
aF5.229053020477295
aF862.447667837143
aF3.3237240314483643
aF24.952836990356445
aF166.81851720809937
aF245.37257599830627
aF307.6524600982666
aF982.8718769550323
aF4.479701995849609
aF995.6209700107574
aF335.58752393722534
aF33.96746015548706
aF139.81524801254272
aF26.600702047348022
aF3.4938509464263916
aF4.762732028961182
aF3.3112070560455322
aF3.59028697013855
aF3.525739908218384
aF55.270880937576294
aF3.518449068069458
aF97.42504215240479
aF3.3830819129943848
aF319.8663241863251
aF4.86824893951416
aF3.4681320190429688
aF190.48502111434937
aF308.8428280353546
aF37.43305277824402
aF3.5247628688812256
aF3.995206832885742
aF3.6758408546447754
aF157.03109788894653
aF60.211578130722046
aF38.03370714187622
aF3.4621100425720215
aF47.293898820877075
aF3.876671075820923
aF137.99625396728516
aF3.6624560356140137
aF302.9702489376068
aF4.233876943588257
aF3.6851189136505127
aF307.13176703453064
aF23.521749019622803
aF301.61519289016724
aF2044.0247859954834
aF3.365211009979248
aF38.46103501319885
aF50.33581781387329
aF3.6365411281585693
aF87.01743078231812
aF3.2126917839050293
aF330.12384581565857
aF8.405941009521484
aF3.5047690868377686
aF284.79891896247864
aF164.81089282035828
aF479.98882699012756
aF34.69832110404968
aF3.999361991882324
aF3.795063018798828
aF3.835597038269043
aF366.8681011199951
aF303.7734570503235
aF20.34049391746521
aF4.721445083618164
aF759.7436480522156
aF309.4030029773712
aF9.113934993743896
aF3.678654193878174
aF3.255208969116211
aF343.700688123703
aF311.2416150569916
aF300.66220593452454
aF21.46225905418396
aF7.471463203430176
aF307.45928502082825
aF5.498011827468872
aF4.596927881240845
aF3.432075023651123
aF766.5291790962219
aF3.310637950897217
aF323.49618315696716
aF7.194677114486694
aF3.407292127609253
aF3.3109190464019775
aF3.749598979949951
aF360.1034369468689
aF132.56717896461487
aF311.25125193595886
aF7.213780879974365
aF214.35316109657288
aF7.926677942276001
aF303.7783510684967
aF4.115363121032715
aF4.833387851715088
aF226.30194902420044
aF3.8506510257720947
aF3.476586103439331
aF364.7341260910034
aF3.791771173477173
aF353.91944003105164
aF308.8658878803253
aF131.04666209220886
aF57.58401799201965
aF310.96602296829224
aF302.5103440284729
aF271.0822010040283
aF3.3669159412384033
aF87.95999598503113
aF7.6611199378967285
aF7.558665037155151
aF246.95330595970154
aF315.3148498535156
aF5.194936990737915
aF3.709214925765991
aF4.145519018173218
aF3.418099880218506
aF79.55225706100464
aF373.9727289676666
aF169.23207187652588
aF4.311057806015015
aF79.08410310745239
aF308.0566279888153
aF101.18374609947205
aF3.331937074661255
aF6.565052032470703
aF77.98608994483948
aF69.90630102157593
aF53.4794340133667
aF16.44371008872986
aF259.25301003456116
aF3.853991985321045
aF9.56161904335022
aF305.98640418052673
aF3.496135950088501
aF3.7347400188446045
aF3.7794439792633057
aF3.263216972351074
aF23.73701000213623
aF373.624804019928
aF3.5931379795074463
aF4.850478172302246
aF16.138662099838257
aF4.67396092414856
aF75.03396821022034
aF6.486009120941162
aF2063.980274915695
aF3.7641990184783936
aF511.49403405189514
aF8.636084079742432
aF304.2192039489746
aF6.162126064300537
aF5.1201159954071045
aF32.481245040893555
aF298.9853961467743
aF20.498873949050903
aF305.4826629161835
aF13.76459288597107
aF23.94385600090027
aF41.40311813354492
aF4.428469896316528
aF52.18563485145569
aF4.525035858154297
aF3.8316240310668945
aF5.688109874725342
aF3.331817865371704
aF193.97160696983337
aF321.4600610733032
aF45.54212784767151
aF292.7993769645691
aF709.3277430534363
aF955.7890059947968
aF3.3083229064941406
aF40.28176808357239
aF143.61282896995544
aF40.96943497657776
aF3.4818649291992188
aF3.7087910175323486
aF3.473262071609497
aF80.8454360961914
aF4.095321893692017
aF58.16536021232605
aF7.8686439990997314
aF362.9078221321106
aF139.70252394676208
aF1790.749223947525
aF5.265018939971924
aF3.7133631706237793
aF5.550610065460205
aF8.987811088562012
aF307.7712528705597
aF3.350466012954712
aF3.332387924194336
aF4.106595993041992
aF88.65213799476624
aF45.28547501564026
aF194.6084439754486
aF313.5310912132263
aF3.2662038803100586
aF23.46806812286377
aF3.7320070266723633
aF101.77423191070557
aF4.1491100788116455
aF48.29391002655029
aF18.99580407142639
aF314.79866003990173
aF7.667804956436157
aF3.497720956802368
aF67.37567186355591
aF5.053550958633423
aF105.76997900009155
aF109.21989393234253
aF302.7304861545563
aF3.4242889881134033
aF3.4894139766693115
aF3.8686959743499756
aF339.44722604751587
aF3.5460240840911865
aF3.71856689453125
aF474.47461795806885
aF3.907823085784912
aF83.13823199272156
aF8.16405701637268
aF10.052655935287476
aF453.5970199108124
aF223.87908291816711
aF3.362231969833374
aF386.2232508659363
aF314.130961894989
aF7.174577951431274
aF3.289292097091675
aF14.531849145889282
aF20.798877000808716
aF390.0108768939972
aF425.3649699687958
aF186.18974208831787
aF89.63628005981445
aF38.776735067367554
aF4.186057090759277
aF3.4162449836730957
aF172.94884991645813
aF337.2651569843292
aF301.8216869831085
aF157.6940188407898
aF3.3629260063171387
aF303.6981120109558
aF4.139012098312378
aF7.64333701133728
aF17.546991109848022
aF82.58049201965332
aF45.05462098121643
aF470.8418619632721
aF3.7467780113220215
aF5.021813869476318
aF208.25844407081604
aF295.9885699748993
aF3.9320600032806396
aF6.11245584487915
aF337.31313014030457
aF20.631309032440186
aF302.61863112449646
aF3.5628821849823
aF3.9225480556488037
aF3.6124930381774902
aF65.21270990371704
aF4.092073202133179
aF99.21082592010498
aF3.7066829204559326
aF129.9400532245636
aF21.297905921936035
aF425.63933205604553
aF25.967212200164795
aF7.2062599658966064
aF3.5929698944091797
aF27.84578800201416
aF17.862294912338257
aF3.7268760204315186
aF5.220168828964233
aF335.0303180217743
aF153.77530312538147
aF3.237598180770874
aF8.213826179504395
aF3.5005569458007812
aF309.42266392707825
aF11.144556999206543
aF368.62971210479736
aF3.8464889526367188
aF162.38276505470276
aF3.4665260314941406
aF33.84643006324768
aF388.39995098114014
aF3.9395911693573
aF189.2824490070343
aF20.7712140083313
aF4.027266979217529
aF36.307535886764526
aF12.625037908554077
aF3.487839937210083
aF4.399097919464111
aF64.87739992141724
aF19.882190942764282
aF58.47414708137512
aF88.0043478012085
aF47.078569173812866
aF361.22299695014954
aF907.3155901432037
aF34.32886815071106
aF3.1997110843658447
aF69.0849540233612
aF3.627419948577881
aF6.059611082077026
aF3.5311341285705566
aF81.07678008079529
aF4.4088499546051025
aF6.992063999176025
aF41.791581869125366
aF251.4783000946045
aF4.289318084716797
aF130.35972499847412
aF187.95239400863647
aF312.004842042923
aF117.58316087722778
aF16.367326974868774
aF3.9406609535217285
aF3.5370988845825195
aF3.5251708030700684
aF126.19118094444275
aF4.5356669425964355
aF303.37164306640625
aF343.64153695106506
aF381.8712260723114
aF7.328754901885986
aF89.6593611240387
aF313.80099415779114
aF72.24292302131653
aF305.5160481929779
aF7.169813871383667
aF801.8870618343353
aF50.08644700050354
aF41.052123069763184
aF301.97343397140503
aF4.094288110733032
aF105.1877670288086
aF3.859891891479492
aF15.808801174163818
aF4.40024209022522
aF6.518280982971191
aF31.776758193969727
aF151.2717571258545
aF515.8356490135193
aF3.618034839630127
aF19.49603009223938
aF88.9081699848175
aF12.20179009437561
aF3.968441963195801
aF3.7537410259246826
aF3.412569999694824
aF4.299655199050903
aF3.306196928024292
aF4.23383903503418
aF3.970039129257202
aF18.895299911499023
aF3.686864137649536
aF4.7610650062561035
aF3.6562979221343994
aF175.4051330089569
aF5.382277011871338
aF12.652926206588745
aF31.28185200691223
aF3.445378065109253
aF381.984503030777
aF3.5234181880950928
aF301.1951231956482
aF307.79112696647644
aF116.67808890342712
aF387.5776479244232
aF3.709984064102173
aF127.8677351474762
aF12.673086166381836
aF104.22845602035522
aF3.8885130882263184
aF6.71274209022522
aF25.193711042404175
aF9.315790891647339
aF7.859709978103638
aF3.4972498416900635
aF3.35670804977417
aF197.00018286705017
aF27.781203985214233
aF3.9042341709136963
aF47.10291600227356
aF440.3137128353119
aF524.4937489032745
aF136.2492070198059
aF4.061228036880493
aF3.272871971130371
aF4.908037900924683
aF3.3020009994506836
aF308.58423805236816
aF48.359078884124756
aF64.61006903648376
aF6.0573179721832275
aF73.60459613800049
aF23.863545894622803
aF310.21898794174194
aF4.0247578620910645
aF3.744825839996338
aF16.637739896774292
aF3.7436249256134033
aF27.165212154388428
aF3.432041883468628
aF6.50838303565979
aF308.3822591304779
aF7.887816905975342
aF4.590131044387817
aF390.7090308666229
aF14.128402948379517
aF32.24833297729492
aF62.76174998283386
aF6.446596145629883
aF10.194698095321655
aF17.752009868621826
aF19.437712907791138
aF38.60059094429016
aF356.3232431411743
aF24.21820902824402
aF4.957603931427002
aF301.5637218952179
aF204.3782880306244
aF53.65359711647034
aF16.634777784347534
aF17.856518030166626
aF3.483030080795288
aF65.5140380859375
aF62.38188600540161
aF3.4911680221557617
aF3.5945310592651367
aF4.224490165710449
aF352.68211817741394
aF104.35413789749146
aF77.43364596366882
aF6.410473108291626
aF14.832906007766724
aF3.3011081218719482
aF172.8066530227661
aF7.58123779296875
aF74.66147303581238
aF200.86991500854492
aF7.704850912094116
aF3.469165802001953
aF66.18276000022888
aF348.02138900756836
aF1069.4342370033264
aF4.632779836654663
aF35.70251488685608
aF565.7227761745453
aF67.96405696868896
aF366.62127804756165
aF3.582909107208252
aF325.94424986839294
aF56.58234000205994
aF124.28334403038025
aF3.3692150115966797
aF287.3674740791321
aF190.67406511306763
aF33.519798040390015
aF198.87198185920715
aF3.7412149906158447
aF3.510809898376465
aF3.494417905807495
aF391.72614002227783
aF4.2144200801849365
aF33.22243595123291
aF317.89845609664917
aF14.297906875610352
aF59.642637968063354
aF100.64516496658325
aF312.3875560760498
aF3.443178176879883
aF3.5823209285736084
aF128.08069396018982
aF967.2909648418427
aF60.599189043045044
aF5.07830286026001
aF500.9809970855713
aF313.89406991004944
aF88.50060987472534
aF9.080451965332031
aF278.5873739719391
aF176.10016703605652
aF6.091511011123657
aF150.81999492645264
aF318.9802188873291
aF314.6560928821564
aF301.32055592536926
aF3.1505541801452637
aF121.38946318626404
aF3.9730520248413086
aF49.78901410102844
aF5.261951923370361
aF3.890289068222046
aF854.602233171463
aF209.11669516563416
aF45.93768811225891
aF131.9412078857422
aF313.98602509498596
aF3.676146984100342
aF4.04954195022583
aF190.45077395439148
aF308.6033489704132
aF3.6015031337738037
aF300.59207797050476
aF3.3665668964385986
aF412.90001702308655
aF39.25200581550598
aF61.79644799232483
aF4.072751998901367
aF3.6655020713806152
aF116.35712504386902
aF4.140942096710205
aF303.2331919670105
aF3.690653085708618
aF27.797835111618042
aF564.5997531414032
aF15.126581907272339
aF3.747551918029785
aF459.5315520763397
aF3.857714891433716
aF4.187685966491699
aF162.7317259311676
aF3.412425994873047
aF323.8494760990143
aF3.4703569412231445
aF15.990890979766846
aF49.722532987594604
aF4.092181921005249
aF3.9917571544647217
aF28.015417098999023
aF40.13920307159424
aF4.967174053192139
aF3.6223270893096924
aF280.500874042511
aF4.370777130126953
aF3.5927069187164307
aF70.42018508911133
aF463.4819481372833
aF302.5658359527588
aF211.24170303344727
aF482.3372800350189
aF42.19960904121399
aF35.70944595336914
aF12.485846042633057
aF18.560910940170288
aF18.949164152145386
aF202.2915940284729
aF20.23808002471924
aF300.93695998191833
aF306.0739600658417
aF317.5597939491272
aF168.24911212921143
aF17.255656003952026
aF4.180476903915405
aF3.426283121109009
aF308.22665309906006
aF305.293692111969
aF334.69404006004333
aF3.3790738582611084
aF4.295736074447632
aF303.25407218933105
aF23.43220090866089
aF3.7571492195129395
aF3.162735939025879
aF79.11147499084473
aF5.006629943847656
aF352.2896270751953
aF4.061172008514404
aF7.242073059082031
aF164.81780886650085
aF3.898232936859131
aF95.81848692893982
aF5.621101140975952
aF118.11552715301514
aF17.772230863571167
aF3.363297939300537
aF327.5595791339874
aF5.2709879875183105
aF37.07103395462036
aF8.31567907333374
aF3.110529899597168
aF3.265040874481201
aF3.413411855697632
aF57.569689989089966
aF3.5939581394195557
aF156.72390413284302
aF129.9028398990631
aF327.3259308338165
aF4.984253883361816
aF16.55465292930603
aF3.8110690116882324
aF3.8925108909606934
aF40.23250699043274
aF316.82022500038147
aF4.108859062194824
aF3.9093289375305176
aF324.59023880958557
aF6.189713954925537
aF3.791243076324463
aF49.502832889556885
aF7.607419967651367
aF4.541567087173462
aF5.592411041259766
aF3.317147970199585
aF47.786843061447144
aF48.37875294685364
aF339.38755798339844
aF6.960896968841553
aF4.4732091426849365
aF79.3862738609314
aF3.5374529361724854
aF305.1771330833435
aF110.17208003997803
aF8.062455177307129
aF2070.155902862549
aF148.73018407821655
aF17.832916975021362
aF332.8164041042328
aF4.234447002410889
aF304.20954608917236
aF3.9219861030578613
aF5.183816909790039
aF6.554492950439453
aF6.33390998840332
aF432.8565011024475
aF39.42952299118042
aF312.7453649044037
aF302.803169965744
aF445.1811909675598
aF3.37587308883667
aF69.27641010284424
aF73.44866108894348
aF98.82553005218506
aF324.75124883651733
aF180.20506501197815
aF3.915571928024292
aF62.12243604660034
aF302.43126010894775
aF3.365468978881836
aF5.089314937591553
aF3.534741163253784
aF33.05238389968872
aF3.176048994064331
aF408.50398802757263
aF13.737778902053833
aF4.886960029602051
aF427.9906780719757
aF101.41311597824097
aF3.6836462020874023
aF33.93728184700012
aF344.57926511764526
aF17.580392837524414
aF3.3554270267486572
aF8.864301919937134
aF307.3728029727936
aF8.543842077255249
aF312.1923670768738
aF3.5720860958099365
aF162.62453413009644
aF3.5929901599884033
aF875.6389977931976
aF6.7109739780426025
aF43.1495201587677
aF6.58599591255188
aF3.3373470306396484
aF3.1760361194610596
aF27.39883804321289
aF3.3267619609832764
aF5.043230056762695
aF432.9421970844269
aF261.22879099845886
aF77.82300996780396
aF3.604841947555542
aF3.7969000339508057
aF77.36371898651123
aF3.391418933868408
aF309.2756390571594
aF3.5181639194488525
aF60.85612106323242
aF3.958549976348877
aF3.6250879764556885
aF3.778503894805908
aF4.038118124008179
aF320.4518690109253
aF75.26269602775574
aF411.2043950557709
aF23.744039058685303
aF301.3434388637543
aF5.752134084701538
aF302.7559847831726
aF10.817168951034546
aF3.3548829555511475
aF310.1249358654022
aF306.9875121116638
aF100.27348494529724
aF189.8139820098877
aF151.47619605064392
aF315.3698470592499
aF6.373610973358154
aF39.349076986312866
aF3.627941131591797
aF302.82748198509216
aF477.451984167099
aF3.3387200832366943
aF233.81518292427063
aF3.67586612701416
aF71.0566508769989
aF352.89460802078247
aF44.80858111381531
aF7.31162691116333
aF21.590028047561646
aF538.7587220668793
aF7.417438983917236
aF277.1514868736267
aF34.15393114089966
aF6.345139980316162
aF150.2070460319519
aF303.73089599609375
aF19.82653498649597
aF64.53269100189209
aF5.274478912353516
aF3.5252737998962402
aF67.5114278793335
aF34.332846879959106
aF3.7665460109710693
aF245.7525339126587
aF304.32936906814575
aF43.48443102836609
aF341.6562747955322
aF73.27846717834473
aF3.4642279148101807
aF3.53238582611084
aF47.16896891593933
aF4.130975961685181
as.