(dp0
S'successes'
p1
(lp2
I01
aI01
aI01
aI00
aI01
aI00
aI01
aI01
aI00
aI00
aI01
aI01
aI00
aI01
aI01
aI01
aI01
aI01
aI00
aI00
aI01
aI01
aI00
aI01
aI01
aI01
aI01
aI01
aI01
aI00
aI00
aI01
aI00
aI00
aI01
aI00
aI01
aI01
aI01
aI01
aI00
aI00
aI01
aI01
aI01
aI01
aI01
aI01
aI01
aI01
aI01
aI01
aI01
aI01
aI01
aI01
aI01
aI01
aI00
aI00
aI01
aI01
aI00
aI01
aI01
aI01
aI01
aI01
aI00
aI01
aI00
aI00
aI01
aI01
aI01
aI00
aI01
aI00
aI01
aI00
aI01
aI01
aI01
aI01
aI01
aI00
aI01
aI00
aI01
aI00
aI00
aI00
aI00
aI01
aI01
aI01
asS'pidxs'
p3
(lp4
I20002
aI20004
aI20003
aI20004
aI20011
aI20024
aI20008
aI20016
aI20005
aI20004
aI20012
aI20001
aI20000
aI20007
aI20014
aI20016
aI20010
aI20014
aI20002
aI20005
aI20010
aI20017
aI20009
aI20014
aI20014
aI20013
aI20003
aI20018
aI20009
aI20015
aI20006
aI20010
aI20002
aI20006
aI20011
aI20009
aI20007
aI20012
aI20008
aI20010
aI20011
aI20005
aI20008
aI20003
aI20007
aI20019
aI20012
aI20005
aI20010
aI20013
aI20012
aI20008
aI20013
aI20018
aI20002
aI20007
aI20013
aI20004
aI20001
aI20006
aI20022
aI20000
aI20009
aI20023
aI20020
aI20000
aI20008
aI20002
aI20015
aI20017
aI20004
aI20021
aI20016
aI20003
aI20016
aI20001
aI20012
aI20005
aI20018
aI20006
aI20014
aI20009
aI20017
aI20001
aI20000
aI20015
aI20003
aI20015
aI20013
aI20006
aI20011
aI20001
aI20011
aI20025
aI20000
aI20007
asS'plan_length'
p5
(lp6
I3
aI9
aI1
aI11
aI3
aI1
aI1
aI2
aI1
aI1
aI1
aI1
aI1
aI1
aI1
aI1
aI1
aI1
aI1
aI1
aI4
aI1
aI2
aI1
aI1
aI1
aI1
aI1
aI1
aI1
aI3
aI1
aI3
aI1
aI1
aI1
aI1
aI1
aI1
aI7
aI1
aI1
aI2
aI1
aI1
aI2
aI1
aI1
aI2
aI8
aI1
aI1
aI1
aI1
aI1
aI1
aI1
aI2
aI7
aI2
aI1
aI1
aI1
aI1
aI1
aI1
asS'num_nodes'
p7
(lp8
I8
aI34
aI1
aI12
aI38
aI27
aI5
aI1
aI14
aI19
aI1
aI3
aI4
aI1
aI1
aI1
aI1
aI1
aI30
aI25
aI1
aI1
aI24
aI1
aI1
aI1
aI1
aI1
aI7
aI36
aI28
aI1
aI19
aI36
aI3
aI4
aI1
aI1
aI1
aI1
aI41
aI24
aI1
aI1
aI1
aI5
aI1
aI5
aI1
aI1
aI1
aI1
aI1
aI1
aI19
aI1
aI1
aI3
aI22
aI44
aI1
aI1
aI21
aI3
aI1
aI1
aI3
aI22
aI18
aI1
aI26
aI23
aI1
aI1
aI1
aI5
aI1
aI41
aI1
aI26
aI1
aI3
aI16
aI3
aI1
aI9
aI1
aI14
aI1
aI39
aI32
aI7
aI50
aI1
aI1
aI1
asS'times'
p9
(lp10
F73.27579998970032
aF204.4175319671631
aF56.66860008239746
aF386.5754699707031
aF299.3815748691559
aF324.2941131591797
aF76.06802010536194
aF11.073436975479126
aF303.8999559879303
aF347.7336730957031
aF10.00662899017334
aF33.72728514671326
aF326.1515190601349
aF10.241326093673706
aF10.224437952041626
aF10.902894973754883
aF10.261841058731079
aF10.129642963409424
aF311.9932219982147
aF303.8782958984375
aF11.220558166503906
aF62.86395502090454
aF367.1419699192047
aF10.398627996444702
aF10.028992891311646
aF15.363566875457764
aF34.052263021469116
aF11.855612993240356
aF220.52973413467407
aF323.5144422054291
aF304.0246181488037
aF10.244898080825806
aF364.6677191257477
aF300.1818609237671
aF44.22033500671387
aF307.24230098724365
aF11.373423099517822
aF10.099487066268921
aF32.14429998397827
aF10.281656980514526
aF327.58718490600586
aF310.5833480358124
aF34.06122398376465
aF214.11790895462036
aF10.802477836608887
aF181.94478917121887
aF10.201188087463379
aF48.24634504318237
aF10.39205002784729
aF11.949526071548462
aF10.294954061508179
aF54.24366998672485
aF34.22144079208374
aF12.856743812561035
aF127.74960899353027
aF10.253888845443726
aF13.90784502029419
aF28.318284034729004
aF603.6765270233154
aF305.75261306762695
aF10.425724029541016
aF81.38967895507812
aF638.570986032486
aF44.51826620101929
aF10.34920597076416
aF13.871792793273926
aF53.68444490432739
aF294.0325469970703
aF434.98103404045105
aF15.727339029312134
aF315.6304531097412
aF315.6060390472412
aF10.241095066070557
aF62.8712158203125
aF10.347519159317017
aF309.3905370235443
aF10.616797924041748
aF340.9151129722595
aF13.64906907081604
aF319.07710003852844
aF10.702183961868286
aF67.14663600921631
aF120.14564800262451
aF141.6894600391388
aF60.9659960269928
aF361.77981209754944
aF10.236945867538452
aF336.16591691970825
aF10.421560049057007
aF395.7456679344177
aF646.1889801025391
aF322.94089794158936
aF305.94156980514526
aF12.278637170791626
aF115.89341688156128
aF10.362330913543701
as.