(dp0
S'successes'
p1
(lp2
I01
aI01
aI00
aI01
aI01
aI01
aI01
aI00
aI01
aI00
asS'pidxs'
p3
(lp4
I20004
aI20003
aI20005
aI20000
aI20009
aI20007
aI20002
aI20001
aI20008
aI20006
asS'plan_length'
p5
(lp6
I9
aI1
aI9
aI4
aI1
aI7
aI2
asS'num_nodes'
p7
(lp8
I34
aI1
aI51
aI29
aI7
aI1
aI19
aI24
aI3
aI56
asS'times'
p9
(lp10
F230.530699968338
aF39.61848592758179
aF512.485258102417
aF361.56090092658997
aF151.24837613105774
aF7.6453471183776855
aF136.30330991744995
aF518.3548672199249
aF40.998939037323
aF515.6600999832153
as.