(dp0
S'successes'
p1
(lp2
I01
aI01
aI00
aI01
aI01
aI01
aI01
aI01
aI01
aI00
aI00
aI01
aI01
aI00
aI00
aI01
aI01
aI01
aI01
aI01
aI01
aI01
aI00
aI01
aI01
aI01
aI01
aI00
aI01
aI01
aI01
aI01
aI01
aI01
aI01
aI01
aI01
aI01
aI00
aI01
aI01
aI00
aI01
aI00
aI01
aI00
aI01
aI01
aI01
aI01
aI01
aI01
aI01
aI01
aI01
aI00
aI01
aI01
aI01
aI01
aI01
aI01
aI01
aI01
aI01
aI01
aI00
aI01
aI01
aI00
aI01
aI01
aI01
aI01
aI01
aI01
aI01
aI01
aI01
aI00
aI01
aI00
aI01
aI01
aI01
aI01
aI01
aI00
aI01
aI01
aI01
aI01
aI01
aI01
aI01
aI01
aI01
aI01
aI01
aI01
aI01
aI00
aI01
aI01
aI00
aI01
aI00
aI01
aI01
aI01
aI01
aI01
aI01
aI01
aI00
aI00
aI01
aI01
aI01
aI01
aI01
aI01
aI01
aI01
aI01
aI01
aI01
aI01
aI00
aI01
aI01
aI01
aI01
aI00
aI01
aI01
aI01
aI01
aI01
aI00
aI01
aI01
aI01
aI01
aI01
aI01
aI01
aI01
aI01
aI00
aI01
aI01
aI01
aI01
aI01
aI00
aI01
aI01
aI00
aI01
aI01
aI00
aI01
aI01
aI01
aI01
aI00
aI00
aI00
aI01
aI01
aI01
aI01
aI01
aI00
aI01
aI01
aI01
aI01
aI01
aI01
aI01
aI01
aI00
aI01
aI01
aI00
aI01
aI01
aI01
aI01
aI01
aI01
aI00
aI01
aI01
aI01
aI01
aI01
aI01
aI01
aI01
aI01
aI01
aI01
aI01
aI01
aI01
aI00
aI01
aI01
aI01
aI01
aI01
aI01
aI01
aI00
aI01
aI01
aI01
aI01
aI01
aI01
aI00
aI01
aI01
aI01
aI00
aI01
aI01
aI01
aI01
aI01
aI01
aI01
aI01
aI01
aI01
aI01
aI01
aI01
aI00
aI01
aI01
aI01
aI01
aI01
aI01
aI01
aI01
aI00
aI01
aI01
aI01
aI01
aI01
aI00
aI01
aI01
aI01
asS'pidxs'
p3
(lp4
I20021
aI20045
aI20027
aI20016
aI20040
aI20001
aI20016
aI20044
aI20046
aI20019
aI20044
aI20048
aI20039
aI20040
aI20019
aI20042
aI20049
aI20001
aI20039
aI20009
aI20021
aI20001
aI20030
aI20011
aI20006
aI20040
aI20025
aI20004
aI20031
aI20038
aI20032
aI20001
aI20022
aI20012
aI20018
aI20003
aI20015
aI20010
aI20005
aI20033
aI20047
aI20019
aI20025
aI20051
aI20045
aI20035
aI20032
aI20015
aI20020
aI20042
aI20020
aI20040
aI20034
aI20016
aI20038
aI20000
aI20050
aI20041
aI20008
aI20036
aI20024
aI20014
aI20003
aI20016
aI20021
aI20042
aI20019
aI20047
aI20023
aI20004
aI20019
aI20026
aI20007
aI20033
aI20037
aI20023
aI20025
aI20030
aI20015
aI20046
aI20044
aI20051
aI20039
aI20039
aI20031
aI20033
aI20033
aI20035
aI20011
aI20018
aI20029
aI20020
aI20008
aI20025
aI20017
aI20028
aI20008
aI20014
aI20023
aI20021
aI20037
aI20003
aI20023
aI20010
aI20029
aI20030
aI20004
aI20010
aI20003
aI20047
aI20037
aI20041
aI20000
aI20032
aI20043
aI20043
aI20020
aI20013
aI20030
aI20028
aI20049
aI20007
aI20044
aI20006
aI20016
aI20005
aI20048
aI20008
aI20035
aI20017
aI20012
aI20017
aI20051
aI20043
aI20007
aI20032
aI20024
aI20050
aI20011
aI20035
aI20008
aI20050
aI20036
aI20048
aI20018
aI20048
aI20038
aI20015
aI20004
aI20006
aI20013
aI20000
aI20038
aI20047
aI20026
aI20006
aI20041
aI20020
aI20002
aI20034
aI20048
aI20026
aI20013
aI20026
aI20022
aI20043
aI20002
aI20027
aI20027
aI20044
aI20012
aI20024
aI20014
aI20031
aI20000
aI20022
aI20010
aI20036
aI20045
aI20039
aI20002
aI20028
aI20046
aI20040
aI20036
aI20015
aI20029
aI20014
aI20050
aI20009
aI20029
aI20018
aI20051
aI20051
aI20005
aI20027
aI20021
aI20038
aI20001
aI20029
aI20002
aI20009
aI20006
aI20025
aI20034
aI20002
aI20034
aI20042
aI20026
aI20031
aI20000
aI20012
aI20049
aI20014
aI20046
aI20018
aI20027
aI20005
aI20009
aI20022
aI20004
aI20033
aI20012
aI20042
aI20013
aI20049
aI20017
aI20043
aI20023
aI20010
aI20047
aI20017
aI20031
aI20037
aI20030
aI20003
aI20013
aI20045
aI20045
aI20007
aI20024
aI20050
aI20011
aI20037
aI20041
aI20041
aI20022
aI20049
aI20028
aI20046
aI20035
aI20005
aI20034
aI20011
aI20009
aI20024
aI20032
aI20028
aI20007
aI20036
asS'plan_length'
p5
(lp6
I2
aI1
aI2
aI1
aI4
aI1
aI1
aI4
aI2
aI2
aI2
aI8
aI5
aI2
aI4
aI2
aI3
aI6
aI8
aI1
aI1
aI1
aI5
aI1
aI3
aI1
aI1
aI2
aI5
aI4
aI1
aI2
aI9
aI2
aI1
aI1
aI4
aI1
aI6
aI1
aI1
aI2
aI8
aI5
aI1
aI1
aI2
aI1
aI3
aI1
aI2
aI3
aI2
aI6
aI6
aI2
aI5
aI9
aI1
aI2
aI1
aI2
aI4
aI5
aI4
aI4
aI4
aI5
aI1
aI1
aI1
aI5
aI4
aI2
aI1
aI5
aI1
aI3
aI4
aI8
aI1
aI2
aI2
aI1
aI2
aI1
aI5
aI1
aI2
aI6
aI1
aI1
aI1
aI1
aI4
aI2
aI5
aI3
aI1
aI1
aI1
aI7
aI1
aI3
aI2
aI6
aI3
aI1
aI3
aI8
aI1
aI1
aI7
aI1
aI5
aI2
aI1
aI1
aI2
aI2
aI2
aI2
aI6
aI2
aI2
aI1
aI5
aI6
aI6
aI1
aI1
aI4
aI2
aI2
aI5
aI1
aI5
aI8
aI1
aI4
aI1
aI1
aI1
aI1
aI1
aI1
aI1
aI5
aI3
aI7
aI1
aI4
aI1
aI1
aI3
aI7
aI4
aI2
aI7
aI8
aI2
aI5
aI5
aI2
aI4
aI9
aI8
aI2
aI2
aI4
aI2
aI1
aI1
aI1
aI1
aI5
aI1
aI5
aI4
aI2
aI6
aI1
aI6
aI1
aI1
aI2
aI8
aI8
aI2
aI1
aI6
aI1
aI1
aI1
aI4
aI8
aI2
aI1
aI1
aI1
aI8
aI2
aI1
aI1
aI1
aI1
aI1
aI2
aI6
aI3
aI2
aI2
aI4
aI6
aI2
aI1
aI1
asS'num_nodes'
p7
(lp8
I1
aI1
aI60
aI1
aI1
aI3
aI1
aI1
aI3
aI28
aI59
aI1
aI1
aI29
aI48
aI1
aI11
aI4
aI1
aI3
aI1
aI2
aI56
aI25
aI43
aI1
aI1
aI61
aI1
aI4
aI1
aI4
aI1
aI1
aI1
aI6
aI3
aI1
aI47
aI1
aI27
aI21
aI1
aI54
aI1
aI55
aI1
aI3
aI1
aI7
aI1
aI1
aI1
aI25
aI4
aI21
aI1
aI1
aI1
aI1
aI2
aI1
aI1
aI2
aI1
aI5
aI33
aI5
aI1
aI60
aI12
aI11
aI1
aI1
aI1
aI1
aI26
aI27
aI3
aI54
aI3
aI43
aI3
aI4
aI1
aI1
aI1
aI53
aI6
aI4
aI1
aI1
aI4
aI1
aI2
aI3
aI15
aI1
aI1
aI1
aI1
aI49
aI1
aI1
aI54
aI4
aI66
aI1
aI46
aI8
aI1
aI1
aI1
aI1
aI60
aI42
aI3
aI6
aI4
aI2
aI1
aI1
aI1
aI35
aI1
aI2
aI1
aI5
aI49
aI2
aI1
aI2
aI13
aI54
aI1
aI1
aI8
aI1
aI6
aI50
aI1
aI1
aI1
aI1
aI1
aI1
aI1
aI7
aI1
aI48
aI1
aI1
aI4
aI11
aI7
aI51
aI1
aI1
aI49
aI9
aI1
aI64
aI1
aI9
aI1
aI12
aI51
aI50
aI63
aI15
aI1
aI3
aI1
aI1
aI32
aI1
aI1
aI1
aI1
aI1
aI26
aI2
aI13
aI27
aI1
aI3
aI29
aI1
aI1
aI2
aI16
aI6
aI1
aI47
aI17
aI39
aI1
aI4
aI20
aI1
aI7
aI20
aI47
aI1
aI1
aI7
aI1
aI1
aI58
aI1
aI1
aI1
aI4
aI1
aI4
aI7
aI66
aI1
aI9
aI1
aI9
aI1
aI1
aI47
aI1
aI9
aI34
aI49
aI1
aI1
aI19
aI1
aI1
aI1
aI3
aI50
aI1
aI1
aI1
aI1
aI18
aI24
aI1
aI1
aI1
aI1
aI1
aI1
aI1
aI27
aI52
aI2
aI1
aI1
aI3
aI11
aI45
aI1
aI1
aI1
asS'times'
p9
(lp10
F2.170814037322998
aF0.721837043762207
aF304.0812690258026
aF4.39524507522583
aF0.46606898307800293
aF17.718894958496094
aF0.9170658588409424
aF0.8554830551147461
aF16.208806037902832
aF303.9154860973358
aF305.0243408679962
aF5.287698030471802
aF3.413891077041626
aF305.7369999885559
aF305.5402600765228
aF2.4537971019744873
aF48.41619896888733
aF25.311907052993774
aF2.935054063796997
aF11.887457132339478
aF2.5287811756134033
aF20.95374894142151
aF305.18233013153076
aF139.9710259437561
aF204.13874101638794
aF4.919716835021973
aF0.3567540645599365
aF305.2287619113922
aF0.5509278774261475
aF17.46577787399292
aF1.917651891708374
aF16.64997100830078
aF0.9562389850616455
aF0.8672688007354736
aF4.822865962982178
aF26.92474102973938
aF9.065039157867432
aF1.5586841106414795
aF304.64874792099
aF2.329578161239624
aF108.47151303291321
aF535.4221889972687
aF1.2341220378875732
aF305.9242911338806
aF1.4719109535217285
aF304.28561902046204
aF1.525399923324585
aF13.20418095588684
aF2.2186050415039062
aF40.484729051589966
aF1.1086461544036865
aF0.5261509418487549
aF2.7335710525512695
aF146.28348207473755
aF17.77396297454834
aF300.7193157672882
aF1.0241639614105225
aF1.5750889778137207
aF4.4737021923065186
aF4.15023398399353
aF12.204244136810303
aF1.1093289852142334
aF1.32230806350708
aF6.723081827163696
aF2.0219600200653076
aF19.649054050445557
aF304.2328231334686
aF35.15282392501831
aF6.346689939498901
aF301.33527398109436
aF89.79697012901306
aF44.63532209396362
aF0.9353680610656738
aF8.997643947601318
aF0.4434518814086914
aF4.371035099029541
aF169.47877192497253
aF137.28723692893982
aF11.327862977981567
aF300.12865710258484
aF11.175737857818604
aF305.526358127594
aF9.180683851242065
aF13.44712495803833
aF1.2767407894134521
aF1.011749029159546
aF0.420910120010376
aF307.82172298431396
aF24.70813512802124
aF20.74425196647644
aF5.147339105606079
aF0.8015270233154297
aF15.395365953445435
aF1.006422996520996
aF10.111876010894775
aF8.258027076721191
aF61.75257992744446
aF0.8012740612030029
aF13.774378061294556
aF3.1571269035339355
aF11.766470193862915
aF303.9738099575043
aF3.5322909355163574
aF1.2499520778656006
aF302.00712609291077
aF16.387712955474854
aF303.19627594947815
aF1.662451982498169
aF300.08247804641724
aF45.550554037094116
aF4.5617430210113525
aF1.408189058303833
aF9.238847970962524
aF0.9167518615722656
aF306.6311001777649
aF300.4657230377197
aF16.083722829818726
aF50.95598888397217
aF21.029481887817383
aF7.874536037445068
aF1.5869131088256836
aF1.4839391708374023
aF1.5289511680603027
aF179.31414890289307
aF3.2566959857940674
aF21.361606121063232
aF1.9990789890289307
aF23.535495042800903
aF300.7046790122986
aF11.546247959136963
aF2.3171021938323975
aF8.20276403427124
aF64.0308530330658
aF305.46791911125183
aF1.5358831882476807
aF1.2152109146118164
aF48.85158920288086
aF0.9675779342651367
aF25.627705097198486
aF306.4646270275116
aF6.596930027008057
aF1.3821110725402832
aF1.2513649463653564
aF3.56400990486145
aF2.7056219577789307
aF5.033905982971191
aF2.4315268993377686
aF29.46859312057495
aF3.774393081665039
aF306.8849380016327
aF2.7120180130004883
aF9.491389036178589
aF17.4371440410614
aF58.059953927993774
aF28.960157871246338
aF301.4982340335846
aF8.37638807296753
aF1.3677260875701904
aF301.8706510066986
aF36.94996881484985
aF1.922105073928833
aF307.11129117012024
aF4.355966091156006
aF45.67767906188965
aF0.5554249286651611
aF67.03561186790466
aF302.18182611465454
aF303.4267649650574
aF300.77949595451355
aF76.97385787963867
aF1.6110610961914062
aF23.439532995224
aF1.3511438369750977
aF3.1481118202209473
aF305.7433590888977
aF0.5742001533508301
aF2.588916063308716
aF1.3612229824066162
aF1.557724952697754
aF0.5814199447631836
aF133.94723200798035
aF3.3620359897613525
aF79.44663500785828
aF301.908882856369
aF2.0669331550598145
aF20.906338930130005
aF301.502268075943
aF2.3026740550994873
aF7.959485054016113
aF25.328638076782227
aF78.2968819141388
aF43.924062967300415
aF1.660188913345337
aF300.3289430141449
aF84.75805401802063
aF179.67136311531067
aF6.696531057357788
aF20.92033290863037
aF110.03243207931519
aF1.9860410690307617
aF41.88337302207947
aF94.73234701156616
aF290.38058614730835
aF4.204210042953491
aF4.19406795501709
aF30.662049055099487
aF2.2864489555358887
aF0.5071349143981934
aF300.155415058136
aF3.2799489498138428
aF0.5751340389251709
aF0.759990930557251
aF23.620260000228882
aF1.5499050617218018
aF24.81854796409607
aF35.728368043899536
aF307.38622784614563
aF5.4136810302734375
aF46.22656202316284
aF0.693073034286499
aF40.10128688812256
aF0.6421220302581787
aF0.8462569713592529
aF302.76413011550903
aF4.545150995254517
aF36.09031581878662
aF203.8857729434967
aF303.37634205818176
aF8.704340934753418
aF2.2440810203552246
aF109.68479609489441
aF1.389042854309082
aF5.709702014923096
aF25.955885887145996
aF10.100550174713135
aF266.2708399295807
aF3.2856640815734863
aF1.9552900791168213
aF1.2185461521148682
aF0.7070019245147705
aF77.56757807731628
aF305.01059007644653
aF9.107887983322144
aF20.359776973724365
aF4.450831890106201
aF3.588771104812622
aF1.8979718685150146
aF3.8203670978546143
aF2.1106858253479004
aF121.68431115150452
aF303.8836269378662
aF10.558847188949585
aF2.6748669147491455
aF4.686577081680298
aF25.282680988311768
aF44.12001395225525
aF302.87757086753845
aF4.861798048019409
aF0.8146190643310547
aF1.6651029586791992
as.