(dp0
S'successes'
p1
(lp2
I01
aI01
aI00
aI01
aI00
asS'pidxs'
p3
(lp4
I20004
aI20003
aI20000
aI20002
aI20001
asS'plan_length'
p5
(lp6
I9
aI1
aI7
asS'num_nodes'
p7
(lp8
I34
aI1
aI23
aI19
aI22
asS'times'
p9
(lp10
F250.4243140220642
aF40.118858098983765
aF302.33740520477295
aF145.28403186798096
aF461.2288920879364
as.