(itrajectory_representation.one_arm_pap_state
OneArmPaPState
p0
(dp1
S'place_used'
p2
(dp3
sS'in_region'
p4
(itrajectory_representation.predicates.in_region
InRegion
p5
(dp6
S'problem_env'
p7
NsbsS'ternary_edges'
p8
(dp9
(S'center_top_shelf_region'
p10
Vctop_obst6
p11
S'rectangular_packing_box1_region'
p12
tp13
(lp14
I00
as(g11
Vc_obst4
p15
g12
tp16
(lp17
I00
as(g10
Vctop_obst5
p18
g10
tp19
(lp20
I00
as(Vctop_obst3
p21
Vc_obst1
p22
g10
tp23
(lp24
I00
as(g22
g12
g12
tp25
(lp26
I00
as(Vctop_obst4
p27
g15
g12
tp28
(lp29
I00
as(g22
Vctop_obst2
p30
g10
tp31
(lp32
I00
as(g11
g18
g12
tp33
(lp34
I00
as(Vctop_obst0
p35
g15
g12
tp36
(lp37
I00
as(g35
g27
g12
tp38
(lp39
I00
as(g35
g30
g12
tp40
(lp41
I00
as(Vc_obst0
p42
g12
g12
tp43
(lp44
I00
as(g22
g11
g12
tp45
(lp46
I00
as(g12
g30
g10
tp47
(lp48
I00
as(Vc_obst5
p49
Vc_obst3
p50
g10
tp51
(lp52
I00
as(Vc_obst2
p53
g30
g10
tp54
(lp55
I00
as(g21
g11
g10
tp56
(lp57
I00
as(g50
g12
g10
tp58
(lp59
I00
as(g49
Vc_obst6
p60
g12
tp61
(lp62
I00
as(g49
Vctop_obst1
p63
g12
tp64
(lp65
I00
as(g22
g15
g12
tp66
(lp67
I00
as(g10
g53
g10
tp68
(lp69
I00
as(g21
g12
g10
tp70
(lp71
I00
as(g42
g18
g10
tp72
(lp73
I00
as(g21
g21
g10
tp74
(lp75
I00
as(g63
g10
g10
tp76
(lp77
I00
as(g50
g50
g12
tp78
(lp79
I00
as(g10
g18
g12
tp80
(lp81
I00
as(g53
g21
g12
tp82
(lp83
I00
as(g63
g63
g12
tp84
(lp85
I00
as(g21
g53
g10
tp86
(lp87
I00
as(g10
g21
g10
tp88
(lp89
I00
as(g50
g30
g12
tp90
(lp91
I00
as(g30
g18
g12
tp92
(lp93
I00
as(g22
g42
g10
tp94
(lp95
I00
as(g11
g12
g12
tp96
(lp97
I00
as(g11
g21
g12
tp98
(lp99
I00
as(g42
g50
g12
tp100
(lp101
I00
as(g12
g50
g10
tp102
(lp103
I00
as(g60
g30
g12
tp104
(lp105
I00
as(g30
g53
g12
tp106
(lp107
I00
as(g60
g49
g12
tp108
(lp109
I00
as(g60
g18
g10
tp110
(lp111
I00
as(g12
g27
g12
tp112
(lp113
I00
as(g50
g49
g10
tp114
(lp115
I00
as(g15
g30
g12
tp116
(lp117
I00
as(g12
g30
g12
tp118
(lp119
I00
as(g42
g35
g12
tp120
(lp121
I00
as(g11
g11
g12
tp122
(lp123
I00
as(g10
g60
g12
tp124
(lp125
I00
as(g22
g53
g12
tp126
(lp127
I00
as(g10
g15
g10
tp128
(lp129
I00
as(g63
g35
g12
tp130
(lp131
I00
as(g18
g12
g12
tp132
(lp133
I00
as(g49
g10
g10
tp134
(lp135
I00
as(g10
g22
g10
tp136
(lp137
I00
as(g49
g42
g12
tp138
(lp139
I00
as(g49
g35
g10
tp140
(lp141
I00
as(g42
g42
g12
tp142
(lp143
I00
as(g30
g21
g10
tp144
(lp145
I00
as(g10
g42
g12
tp146
(lp147
I00
as(g12
g49
g10
tp148
(lp149
I00
as(g35
g10
g12
tp150
(lp151
I00
as(g35
g21
g12
tp152
(lp153
I00
as(g60
g10
g12
tp154
(lp155
I00
as(g30
g11
g10
tp156
(lp157
I00
as(g60
g50
g12
tp158
(lp159
I00
as(g60
g21
g10
tp160
(lp161
I00
as(g50
g42
g10
tp162
(lp163
I00
as(g10
g22
g12
tp164
(lp165
I00
as(g30
g12
g10
tp166
(lp167
I00
as(g35
g50
g10
tp168
(lp169
I00
as(g11
g53
g12
tp170
(lp171
I00
as(g12
g42
g10
tp172
(lp173
I00
as(g53
g50
g12
tp174
(lp175
I00
as(g21
g21
g12
tp176
(lp177
I00
as(g30
g10
g10
tp178
(lp179
I00
as(g11
g12
g10
tp180
(lp181
I00
as(g60
g11
g10
tp182
(lp183
I00
as(g60
g50
g10
tp184
(lp185
I00
as(g18
g11
g10
tp186
(lp187
I00
as(g53
g15
g10
tp188
(lp189
I00
as(g35
g10
g10
tp190
(lp191
I00
as(g49
g50
g12
tp192
(lp193
I00
as(g63
g30
g12
tp194
(lp195
I00
as(g63
g12
g10
tp196
(lp197
I00
as(g18
g35
g12
tp198
(lp199
I00
as(g18
g21
g10
tp200
(lp201
I00
as(g49
g11
g10
tp202
(lp203
I00
as(g15
g49
g10
tp204
(lp205
I00
as(g63
g42
g10
tp206
(lp207
I00
as(g49
g42
g10
tp208
(lp209
I00
as(g63
g11
g10
tp210
(lp211
I00
as(g21
g22
g12
tp212
(lp213
I00
as(g49
g21
g10
tp214
(lp215
I00
as(g60
g63
g12
tp216
(lp217
I00
as(g10
g21
g12
tp218
(lp219
I00
as(g49
g49
g10
tp220
(lp221
I00
as(g27
g18
g10
tp222
(lp223
I00
as(g53
g35
g10
tp224
(lp225
I00
as(g53
g15
g12
tp226
(lp227
I00
as(g15
g11
g10
tp228
(lp229
I00
as(g42
g49
g10
tp230
(lp231
I00
as(g35
g49
g10
tp232
(lp233
I00
as(g21
g10
g12
tp234
(lp235
I00
as(g27
g35
g10
tp236
(lp237
I00
as(g21
g10
g10
tp238
(lp239
I00
as(g10
g49
g10
tp240
(lp241
I00
as(g60
g49
g10
tp242
(lp243
I00
as(g35
g42
g10
tp244
(lp245
I00
as(g18
g21
g12
tp246
(lp247
I00
as(g15
g35
g12
tp248
(lp249
I00
as(g27
g21
g10
tp250
(lp251
I00
as(g60
g42
g10
tp252
(lp253
I00
as(g18
g53
g12
tp254
(lp255
I00
as(g63
g15
g12
tp256
(lp257
I00
as(g22
g53
g10
tp258
(lp259
I00
as(g63
g60
g10
tp260
(lp261
I00
as(g15
g63
g12
tp262
(lp263
I00
as(g53
g35
g12
tp264
(lp265
I00
as(g22
g12
g10
tp266
(lp267
I00
as(g12
g42
g12
tp268
(lp269
I00
as(g12
g15
g10
tp270
(lp271
I00
as(g63
g50
g10
tp272
(lp273
I00
as(g53
g11
g10
tp274
(lp275
I00
as(g30
g22
g12
tp276
(lp277
I00
as(g30
g11
g12
tp278
(lp279
I00
as(g18
g12
g10
tp280
(lp281
I00
as(g30
g35
g12
tp282
(lp283
I00
as(g11
g22
g12
tp284
(lp285
I00
as(g12
g12
g10
tp286
(lp287
I00
as(g10
g60
g10
tp288
(lp289
I00
as(g53
g12
g10
tp290
(lp291
I00
as(g27
g22
g12
tp292
(lp293
I00
as(g60
g60
g12
tp294
(lp295
I00
as(g15
g18
g12
tp296
(lp297
I00
as(g35
g63
g12
tp298
(lp299
I00
as(g63
g35
g10
tp300
(lp301
I00
as(g18
g10
g12
tp302
(lp303
I00
as(g10
g50
g10
tp304
(lp305
I00
as(g50
g53
g12
tp306
(lp307
I00
as(g63
g50
g12
tp308
(lp309
I00
as(g18
g22
g12
tp310
(lp311
I00
as(g63
g10
g12
tp312
(lp313
I00
as(g18
g15
g12
tp314
(lp315
I00
as(g27
g11
g10
tp316
(lp317
I00
as(g30
g18
g10
tp318
(lp319
I00
as(g21
g50
g10
tp320
(lp321
I00
as(g22
g15
g10
tp322
(lp323
I00
as(g49
g27
g12
tp324
(lp325
I00
as(g22
g27
g12
tp326
(lp327
I00
as(g60
g63
g10
tp328
(lp329
I00
as(g10
g35
g12
tp330
(lp331
I00
as(g50
g22
g10
tp332
(lp333
I00
as(g53
g12
g12
tp334
(lp335
I00
as(g22
g22
g10
tp336
(lp337
I00
as(g27
g53
g12
tp338
(lp339
I00
as(g22
g18
g12
tp340
(lp341
I00
as(g35
g42
g12
tp342
(lp343
I00
as(g35
g15
g10
tp344
(lp345
I00
as(g10
g12
g12
tp346
(lp347
I00
as(g60
g27
g10
tp348
(lp349
I00
as(g35
g11
g12
tp350
(lp351
I00
as(g21
g35
g12
tp352
(lp353
I00
as(g27
g35
g12
tp354
(lp355
I00
as(g18
g35
g10
tp356
(lp357
I00
as(g50
g22
g12
tp358
(lp359
I00
as(g50
g27
g10
tp360
(lp361
I00
as(g22
g21
g12
tp362
(lp363
I00
as(g50
g15
g12
tp364
(lp365
I00
as(g12
g10
g12
tp366
(lp367
I00
as(g49
g27
g10
tp368
(lp369
I00
as(g15
g60
g10
tp370
(lp371
I00
as(g49
g21
g12
tp372
(lp373
I00
as(g22
g63
g10
tp374
(lp375
I00
as(g49
g49
g12
tp376
(lp377
I00
as(g42
g18
g12
tp378
(lp379
I00
as(g11
g42
g10
tp380
(lp381
I00
as(g49
g63
g10
tp382
(lp383
I00
as(g63
g18
g12
tp384
(lp385
I00
as(g10
g42
g10
tp386
(lp387
I00
as(g60
g10
g10
tp388
(lp389
I00
as(g30
g30
g10
tp390
(lp391
I00
as(g49
g10
g12
tp392
(lp393
I00
as(g22
g63
g12
tp394
(lp395
I00
as(g22
g50
g12
tp396
(lp397
I00
as(g12
g10
g10
tp398
(lp399
I00
as(g60
g60
g10
tp400
(lp401
I00
as(g11
g63
g12
tp402
(lp403
I00
as(g11
g22
g10
tp404
(lp405
I00
as(g60
g11
g12
tp406
(lp407
I00
as(g42
g11
g10
tp408
(lp409
I00
as(g35
g53
g10
tp410
(lp411
I00
as(g22
g30
g12
tp412
(lp413
I00
as(g30
g15
g12
tp414
(lp415
I00
as(g53
g11
g12
tp416
(lp417
I00
as(g53
g50
g10
tp418
(lp419
I00
as(g11
g15
g10
tp420
(lp421
I00
as(g12
g11
g12
tp422
(lp423
I00
as(g21
g12
g12
tp424
(lp425
I00
as(g42
g10
g10
tp426
(lp427
I00
as(g42
g11
g12
tp428
(lp429
I00
as(g10
g15
g12
tp430
(lp431
I00
as(g11
g49
g12
tp432
(lp433
I00
as(g22
g42
g12
tp434
(lp435
I00
as(g63
g15
g10
tp436
(lp437
I00
as(g21
g11
g12
tp438
(lp439
I00
as(g42
g21
g12
tp440
(lp441
I00
as(g53
g10
g10
tp442
(lp443
I00
as(g63
g30
g10
tp444
(lp445
I00
as(g63
g22
g10
tp446
(lp447
I00
as(g15
g18
g10
tp448
(lp449
I00
as(g15
g10
g10
tp450
(lp451
I00
as(g53
g27
g10
tp452
(lp453
I00
as(g27
g12
g12
tp454
(lp455
I00
as(g15
g50
g10
tp456
(lp457
I00
as(g12
g50
g12
tp458
(lp459
I00
as(g42
g22
g10
tp460
(lp461
I00
as(g18
g15
g10
tp462
(lp463
I00
as(g15
g15
g12
tp464
(lp465
I00
as(g27
g27
g10
tp466
(lp467
I00
as(g50
g12
g12
tp468
(lp469
I00
as(g42
g50
g10
tp470
(lp471
I00
as(g35
g63
g10
tp472
(lp473
I00
as(g21
g53
g12
tp474
(lp475
I00
as(g60
g22
g12
tp476
(lp477
I00
as(g30
g35
g10
tp478
(lp479
I00
as(g11
g60
g12
tp480
(lp481
I00
as(g27
g22
g10
tp482
(lp483
I00
as(g15
g11
g12
tp484
(lp485
I00
as(g21
g18
g12
tp486
(lp487
I00
as(g35
g27
g10
tp488
(lp489
I00
as(g11
g10
g12
tp490
(lp491
I00
as(g22
g60
g10
tp492
(lp493
I00
as(g30
g22
g10
tp494
(lp495
I00
as(g27
g15
g10
tp496
(lp497
I00
as(g27
g10
g12
tp498
(lp499
I00
as(g42
g12
g10
tp500
(lp501
I00
as(g10
g12
g10
tp502
(lp503
I00
as(g18
g11
g12
tp504
(lp505
I00
as(g63
g63
g10
tp506
(lp507
I00
as(g49
g15
g12
tp508
(lp509
I00
as(g18
g53
g10
tp510
(lp511
I00
as(g42
g15
g12
tp512
(lp513
I00
as(g42
g53
g12
tp514
(lp515
I00
as(g21
g49
g12
tp516
(lp517
I00
as(g35
g50
g12
tp518
(lp519
I00
as(g50
g11
g10
tp520
(lp521
I00
as(g60
g30
g10
tp522
(lp523
I00
as(g12
g49
g12
tp524
(lp525
I00
as(g50
g35
g12
tp526
(lp527
I00
as(g49
g30
g10
tp528
(lp529
I00
as(g15
g53
g10
tp530
(lp531
I00
as(g30
g21
g12
tp532
(lp533
I00
as(g35
g30
g10
tp534
(lp535
I00
as(g10
g53
g12
tp536
(lp537
I00
as(g15
g12
g12
tp538
(lp539
I00
as(g27
g63
g10
tp540
(lp541
I00
as(g63
g11
g12
tp542
(lp543
I00
as(g15
g21
g10
tp544
(lp545
I00
as(g35
g22
g10
tp546
(lp547
I00
as(g63
g60
g12
tp548
(lp549
I00
as(g22
g49
g10
tp550
(lp551
I00
as(g63
g12
g12
tp552
(lp553
I00
as(g60
g35
g10
tp554
(lp555
I00
as(g42
g35
g10
tp556
(lp557
I00
as(g18
g27
g10
tp558
(lp559
I00
as(g12
g21
g12
tp560
(lp561
I00
as(g53
g49
g10
tp562
(lp563
I00
as(g12
g60
g12
tp564
(lp565
I00
as(g60
g18
g12
tp566
(lp567
I00
as(g50
g21
g12
tp568
(lp569
I00
as(g50
g18
g12
tp570
(lp571
I00
as(g30
g27
g12
tp572
(lp573
I00
as(g18
g63
g10
tp574
(lp575
I00
as(g11
g30
g12
tp576
(lp577
I00
as(g11
g27
g12
tp578
(lp579
I00
as(g63
g53
g10
tp580
(lp581
I00
as(g11
g53
g10
tp582
(lp583
I00
as(g63
g27
g10
tp584
(lp585
I00
as(g35
g49
g12
tp586
(lp587
I00
as(g10
g10
g10
tp588
(lp589
I00
as(g50
g50
g10
tp590
(lp591
I00
as(g49
g18
g10
tp592
(lp593
I00
as(g27
g18
g12
tp594
(lp595
I00
as(g53
g63
g10
tp596
(lp597
I00
as(g53
g22
g12
tp598
(lp599
I00
as(g42
g42
g10
tp600
(lp601
I00
as(g22
g49
g12
tp602
(lp603
I00
as(g18
g60
g12
tp604
(lp605
I00
as(g63
g42
g12
tp606
(lp607
I00
as(g27
g30
g10
tp608
(lp609
I00
as(g49
g11
g12
tp610
(lp611
I00
as(g35
g60
g10
tp612
(lp613
I00
as(g35
g12
g10
tp614
(lp615
I00
as(g22
g21
g10
tp616
(lp617
I00
as(g60
g12
g10
tp618
(lp619
I00
as(g27
g50
g10
tp620
(lp621
I00
as(g35
g60
g12
tp622
(lp623
I00
as(g30
g10
g12
tp624
(lp625
I00
as(g15
g30
g10
tp626
(lp627
I00
as(g27
g49
g12
tp628
(lp629
I00
as(g27
g60
g10
tp630
(lp631
I00
as(g27
g30
g12
tp632
(lp633
I00
as(g15
g21
g12
tp634
(lp635
I00
as(g60
g53
g12
tp636
(lp637
I00
as(g60
g21
g12
tp638
(lp639
I00
as(g35
g18
g12
tp640
(lp641
I00
as(g60
g15
g12
tp642
(lp643
I00
as(g53
g18
g12
tp644
(lp645
I00
as(g53
g53
g12
tp646
(lp647
I00
as(g63
g49
g10
tp648
(lp649
I00
as(g50
g60
g12
tp650
(lp651
I00
as(g11
g21
g10
tp652
(lp653
I00
as(g63
g21
g10
tp654
(lp655
I00
as(g42
g27
g10
tp656
(lp657
I00
as(g18
g42
g10
tp658
(lp659
I00
as(g18
g18
g10
tp660
(lp661
I00
as(g49
g35
g12
tp662
(lp663
I00
as(g50
g35
g10
tp664
(lp665
I00
as(g63
g21
g12
tp666
(lp667
I00
as(g18
g49
g10
tp668
(lp669
I00
as(g18
g63
g12
tp670
(lp671
I00
as(g10
g27
g12
tp672
(lp673
I00
as(g49
g22
g12
tp674
(lp675
I00
as(g27
g60
g12
tp676
(lp677
I00
as(g22
g18
g10
tp678
(lp679
I00
as(g49
g60
g10
tp680
(lp681
I00
as(g35
g35
g10
tp682
(lp683
I00
as(g60
g35
g12
tp684
(lp685
I00
as(g30
g49
g10
tp686
(lp687
I00
as(g53
g30
g12
tp688
(lp689
I00
as(g27
g42
g10
tp690
(lp691
I00
as(g50
g49
g12
tp692
(lp693
I00
as(g35
g12
g12
tp694
(lp695
I00
as(g15
g22
g12
tp696
(lp697
I00
as(g30
g50
g12
tp698
(lp699
I00
as(g30
g42
g10
tp700
(lp701
I00
as(g12
g63
g12
tp702
(lp703
I00
as(g11
g18
g10
tp704
(lp705
I00
as(g11
g50
g12
tp706
(lp707
I00
as(g12
g18
g12
tp708
(lp709
I00
as(g42
g63
g12
tp710
(lp711
I00
as(g42
g30
g10
tp712
(lp713
I00
as(g10
g11
g10
tp714
(lp715
I00
as(g11
g35
g10
tp716
(lp717
I00
as(g18
g50
g10
tp718
(lp719
I00
as(g63
g49
g12
tp720
(lp721
I00
as(g15
g42
g10
tp722
(lp723
I00
as(g10
g10
g12
tp724
(lp725
I00
as(g42
g22
g12
tp726
(lp727
I00
as(g49
g12
g10
tp728
(lp729
I00
as(g22
g35
g12
tp730
(lp731
I00
as(g15
g50
g12
tp732
(lp733
I00
as(g30
g42
g12
tp734
(lp735
I00
as(g27
g11
g12
tp736
(lp737
I00
as(g21
g42
g12
tp738
(lp739
I00
as(g12
g35
g10
tp740
(lp741
I00
as(g10
g30
g12
tp742
(lp743
I00
as(g60
g12
g12
tp744
(lp745
I00
as(g21
g27
g10
tp746
(lp747
I00
as(g30
g60
g10
tp748
(lp749
I00
as(g42
g60
g10
tp750
(lp751
I00
as(g42
g30
g12
tp752
(lp753
I00
as(g12
g53
g10
tp754
(lp755
I00
as(g22
g10
g10
tp756
(lp757
I00
as(g35
g35
g12
tp758
(lp759
I00
as(g11
g50
g10
tp760
(lp761
I00
as(g21
g30
g12
tp762
(lp763
I00
as(g21
g63
g10
tp764
(lp765
I00
as(g35
g18
g10
tp766
(lp767
I00
as(g50
g10
g10
tp768
(lp769
I00
as(g53
g22
g10
tp770
(lp771
I00
as(g11
g10
g10
tp772
(lp773
I00
as(g21
g15
g10
tp774
(lp775
I00
as(g11
g60
g10
tp776
(lp777
I00
as(g18
g49
g12
tp778
(lp779
I00
as(g27
g49
g10
tp780
(lp781
I00
as(g10
g63
g10
tp782
(lp783
I00
as(g18
g50
g12
tp784
(lp785
I00
as(g49
g53
g12
tp786
(lp787
I00
as(g49
g18
g12
tp788
(lp789
I00
as(g42
g60
g12
tp790
(lp791
I00
as(g15
g27
g10
tp792
(lp793
I00
as(g15
g42
g12
tp794
(lp795
I00
as(g15
g60
g12
tp796
(lp797
I00
as(g10
g63
g12
tp798
(lp799
I00
as(g21
g60
g12
tp800
(lp801
I00
as(g53
g18
g10
tp802
(lp803
I00
as(g63
g18
g10
tp804
(lp805
I00
as(g50
g11
g12
tp806
(lp807
I00
as(g21
g63
g12
tp808
(lp809
I00
as(g18
g60
g10
tp810
(lp811
I00
as(g30
g63
g12
tp812
(lp813
I00
as(g27
g42
g12
tp814
(lp815
I00
as(g53
g42
g10
tp816
(lp817
I00
as(g27
g21
g12
tp818
(lp819
I00
as(g50
g63
g10
tp820
(lp821
I00
as(g27
g12
g10
tp822
(lp823
I00
as(g35
g21
g10
tp824
(lp825
I00
as(g15
g22
g10
tp826
(lp827
I00
as(g42
g10
g12
tp828
(lp829
I00
as(g12
g35
g12
tp830
(lp831
I00
as(g18
g30
g12
tp832
(lp833
I00
as(g12
g18
g10
tp834
(lp835
I00
as(g35
g11
g10
tp836
(lp837
I00
as(g22
g60
g12
tp838
(lp839
I00
as(g27
g10
g10
tp840
(lp841
I00
as(g30
g50
g10
tp842
(lp843
I00
as(g27
g53
g10
tp844
(lp845
I00
as(g30
g12
g12
tp846
(lp847
I00
as(g50
g63
g12
tp848
(lp849
I00
as(g50
g27
g12
tp850
(lp851
I00
as(g50
g60
g10
tp852
(lp853
I00
as(g12
g22
g12
tp854
(lp855
I00
as(g11
g35
g12
tp856
(lp857
I00
as(g10
g27
g10
tp858
(lp859
I00
as(g18
g22
g10
tp860
(lp861
I00
as(g11
g30
g10
tp862
(lp863
I00
as(g53
g60
g10
tp864
(lp865
I00
as(g15
g10
g12
tp866
(lp867
I00
as(g30
g60
g12
tp868
(lp869
I00
as(g22
g22
g12
tp870
(lp871
I00
as(g22
g11
g10
tp872
(lp873
I00
as(g53
g10
g12
tp874
(lp875
I00
as(g42
g27
g12
tp876
(lp877
I00
as(g63
g53
g12
tp878
(lp879
I00
as(g49
g53
g10
tp880
(lp881
I00
as(g12
g12
g12
tp882
(lp883
I00
as(g15
g63
g10
tp884
(lp885
I00
as(g50
g10
g12
tp886
(lp887
I00
as(g12
g11
g10
tp888
(lp889
I00
as(g12
g53
g12
tp890
(lp891
I00
as(g11
g49
g10
tp892
(lp893
I00
as(g21
g30
g10
tp894
(lp895
I00
as(g15
g27
g12
tp896
(lp897
I00
as(g30
g15
g10
tp898
(lp899
I00
as(g42
g15
g10
tp900
(lp901
I00
as(g12
g27
g10
tp902
(lp903
I00
as(g18
g10
g10
tp904
(lp905
I00
as(g27
g50
g12
tp906
(lp907
I00
as(g42
g63
g10
tp908
(lp909
I00
as(g21
g50
g12
tp910
(lp911
I00
as(g10
g30
g10
tp912
(lp913
I00
as(g35
g22
g12
tp914
(lp915
I00
as(g60
g42
g12
tp916
(lp917
I00
as(g11
g27
g10
tp918
(lp919
I00
as(g21
g60
g10
tp920
(lp921
I00
as(g27
g63
g12
tp922
(lp923
I00
as(g15
g12
g10
tp924
(lp925
I00
as(g10
g50
g12
tp926
(lp927
I00
as(g60
g53
g10
tp928
(lp929
I00
as(g10
g49
g12
tp930
(lp931
I00
as(g53
g49
g12
tp932
(lp933
I00
as(g15
g15
g10
tp934
(lp935
I00
as(g22
g50
g10
tp936
(lp937
I00
as(g12
g21
g10
tp938
(lp939
I00
as(g49
g30
g12
tp940
(lp941
I00
as(g53
g21
g10
tp942
(lp943
I00
as(g49
g22
g10
tp944
(lp945
I00
as(g63
g27
g12
tp946
(lp947
I00
as(g42
g53
g10
tp948
(lp949
I00
as(g35
g53
g12
tp950
(lp951
I00
as(g22
g10
g12
tp952
(lp953
I00
as(g11
g42
g12
tp954
(lp955
I00
as(g53
g27
g12
tp956
(lp957
I00
as(g21
g18
g10
tp958
(lp959
I00
as(g50
g21
g10
tp960
(lp961
I00
as(g50
g30
g10
tp962
(lp963
I00
as(g53
g63
g12
tp964
(lp965
I00
as(g21
g42
g10
tp966
(lp967
I00
as(g53
g60
g12
tp968
(lp969
I00
as(g30
g49
g12
tp970
(lp971
I00
as(g30
g30
g12
tp972
(lp973
I00
as(g53
g42
g12
tp974
(lp975
I00
as(g60
g15
g10
tp976
(lp977
I00
as(g21
g49
g10
tp978
(lp979
I00
as(g15
g35
g10
tp980
(lp981
I00
as(g12
g22
g10
tp982
(lp983
I00
as(g49
g12
g12
tp984
(lp985
I00
as(g50
g15
g10
tp986
(lp987
I00
as(g11
g63
g10
tp988
(lp989
I00
as(g18
g42
g12
tp990
(lp991
I00
as(g60
g27
g12
tp992
(lp993
I00
as(g18
g30
g10
tp994
(lp995
I00
as(g15
g49
g12
tp996
(lp997
I00
as(g50
g18
g10
tp998
(lp999
I00
as(g12
g15
g12
tp1000
(lp1001
I00
as(g22
g35
g10
tp1002
(lp1003
I00
as(g18
g18
g12
tp1004
(lp1005
I00
as(g22
g27
g10
tp1006
(lp1007
I00
as(g12
g63
g10
tp1008
(lp1009
I00
as(g49
g15
g10
tp1010
(lp1011
I00
as(g11
g11
g10
tp1012
(lp1013
I00
as(g30
g63
g10
tp1014
(lp1015
I00
as(g21
g27
g12
tp1016
(lp1017
I00
as(g27
g27
g12
tp1018
(lp1019
I00
as(g18
g27
g12
tp1020
(lp1021
I00
as(g30
g27
g10
tp1022
(lp1023
I00
as(g50
g42
g12
tp1024
(lp1025
I00
as(g21
g35
g10
tp1026
(lp1027
I00
as(g50
g53
g10
tp1028
(lp1029
I00
as(g30
g53
g10
tp1030
(lp1031
I00
as(g63
g22
g12
tp1032
(lp1033
I00
as(g12
g60
g10
tp1034
(lp1035
I00
as(g15
g53
g12
tp1036
(lp1037
I00
as(g42
g21
g10
tp1038
(lp1039
I00
as(g10
g35
g10
tp1040
(lp1041
I00
as(g60
g22
g10
tp1042
(lp1043
I00
as(g42
g49
g12
tp1044
(lp1045
I00
as(g53
g53
g10
tp1046
(lp1047
I00
as(g21
g15
g12
tp1048
(lp1049
I00
assS'pick_used'
p1050
(dp1051
sS'pick_params'
p1052
NsS'use_prm'
p1053
I00
sg7
NsS'object_poses'
p1054
(dp1055
Vc_obst6
p1056
cnumpy.core.multiarray
_reconstruct
p1057
(cnumpy
ndarray
p1058
(I0
tp1059
S'b'
p1060
tp1061
Rp1062
(I1
(I1
I3
tp1063
cnumpy
dtype
p1064
(S'f8'
p1065
I0
I1
tp1066
Rp1067
(I3
S'<'
p1068
NNNI-1
I-1
I0
tp1069
bI00
S'\xfa\x9a\x11\x01\x95\x83\x12@\xe8\xa7>?}-\xd2?\xed\xedJ\xfa\x0b\x0c\x04@'
p1070
tp1071
bsVc_obst5
p1072
g1057
(g1058
(I0
tp1073
g1060
tp1074
Rp1075
(I1
(I1
I3
tp1076
g1067
I00
S'\x97\xf1q\xbb~\xea\x11@&8\xbb\xd6O\xb6\xd4?\xd2\x93\xb1\x82\xa4\x94\x0b@'
p1077
tp1078
bsVc_obst4
p1079
g1057
(g1058
(I0
tp1080
g1060
tp1081
Rp1082
(I1
(I1
I3
tp1083
g1067
I00
S'n\x08(p\x9bi\x12@\xc0\x8f\x90\x84\x98\xd9\xc1?\xae\x8f\xee\xf0\x1b\x97\x16@'
p1084
tp1085
bsVc_obst3
p1086
g1057
(g1058
(I0
tp1087
g1060
tp1088
Rp1089
(I1
(I1
I3
tp1090
g1067
I00
S'^\xdd\\<%\xa1\x12@\xac\x8b8\x90\xc6\xe6\xd8?\x1c\x9e\xaarJ\xdd\x16@'
p1091
tp1092
bsVc_obst2
p1093
g1057
(g1058
(I0
tp1094
g1060
tp1095
Rp1096
(I1
(I1
I3
tp1097
g1067
I00
S"\x04\xf9\xf8\xe06C\x12@\x92c\x9dS@k\xcc?\x8e\xd1'\xc0\x08~\xfe?"
p1098
tp1099
bsVc_obst1
p1100
g1057
(g1058
(I0
tp1101
g1060
tp1102
Rp1103
(I1
(I1
I3
tp1104
g1067
I00
S'\xf3$\x95\xf6\x8a4\x12@\x0c\xc3S\xe6\xc1\xef\xd7?\xe0\xbaL\x80\x10\xb3\t@'
p1105
tp1106
bsVc_obst0
p1107
g1057
(g1058
(I0
tp1108
g1060
tp1109
Rp1110
(I1
(I1
I3
tp1111
g1067
I00
S'\xb8\x088t\x9c7\x12@~G\xf1\x14\xed\x8f\x96\xbf\xadtI0\xaa\x0c\x13@'
p1112
tp1113
bsVctop_obst1
p1114
g1057
(g1058
(I0
tp1115
g1060
tp1116
Rp1117
(I1
(I1
I3
tp1118
g1067
I00
S'&\xe0\xe2V}T\x12@\x80w\xff\x94\xb9|\xa1\xbf\r\x86\xb7\xe9I5\xf3?'
p1119
tp1120
bsVctop_obst0
p1121
g1057
(g1058
(I0
tp1122
g1060
tp1123
Rp1124
(I1
(I1
I3
tp1125
g1067
I00
S'\xfb\x81=\xfa]F\x12@Rf\x922\x8f\r\xdc?\xa1F+\x03Yi}?'
p1126
tp1127
bsVctop_obst3
p1128
g1057
(g1058
(I0
tp1129
g1060
tp1130
Rp1131
(I1
(I1
I3
tp1132
g1067
I00
S'\xcd\x1d\xfa\xdd"&\x12@ \xb7u\xddN;\xc5?\xbf\xa1\xb9\x07\xb2,\xe0?'
p1133
tp1134
bsVctop_obst2
p1135
g1057
(g1058
(I0
tp1136
g1060
tp1137
Rp1138
(I1
(I1
I3
tp1139
g1067
I00
S'\xc72\x14\xeb\xf2\x82\x12@h5g\xce\xc8\xfd\xbe?\xebu\xae\xe5"Q\x18@'
p1140
tp1141
bsVctop_obst5
p1142
g1057
(g1058
(I0
tp1143
g1060
tp1144
Rp1145
(I1
(I1
I3
tp1146
g1067
I00
S'|\x17\xe0\x95x=\x12@\xc8\xe1\x92\xab\xab\x95\xcd?\xcd\xd5+Xo\x89\r@'
p1147
tp1148
bsVctop_obst4
p1149
g1057
(g1058
(I0
tp1150
g1060
tp1151
Rp1152
(I1
(I1
I3
tp1153
g1067
I00
S'?==\xda{\xa1\x12@\x00U\xd7(.W\xce?\x94\xc5\x7f\x88Y(\x0b@'
p1154
tp1155
bsVctop_obst6
p1156
g1057
(g1058
(I0
tp1157
g1060
tp1158
Rp1159
(I1
(I1
I3
tp1160
g1067
I00
S'\x88v\x82wVC\x12@\x90n\xad8\xc7F\xc2\xbf\xd9R5=\xef\x80\x10@'
p1161
tp1162
bssS'pap_params'
p1163
NsS'place_in_way'
p1164
(itrajectory_representation.predicates.place_in_way
PlaceInWay
p1165
(dp1166
S'mc_path_to_entity'
p1167
(dp1168
sS'mc_to_entity'
p1169
(dp1170
sS'reachable_entities'
p1171
(lp1172
sS'collides'
p1173
Nsg2
(dp1174
sg1050
(dp1175
sS'mc_paths'
p1176
(dp1177
sS'robot'
p1178
NsS'reachable_obj_region_pairs'
p1179
(lp1180
sS'sampled_pick_configs_for_objects'
p1181
(dp1182
sS'mc_calls'
p1183
I0
sS'pick_poses'
p1184
Nsg7
NsS'evaluations'
p1185
(dp1186
sS'paths_to_reachable_entities'
p1187
NsS'use_shortest_path'
p1188
I01
sbsS'place_params'
p1189
NsS'nocollision_place_op'
p1190
NsS'state_saver'
p1191
(imover_library.utils
CustomStateSaver
p1192
(dp1193
S'robot_base_pose'
p1194
g1057
(g1058
(I0
tp1195
g1060
tp1196
Rp1197
(I1
(I1
I3
tp1198
g1067
I00
S'\xa9\xa6o\xc2R\xcb\x10@\x98|+m\xcc\x96\x02@:Ba\xab_,\x15@'
p1199
tp1200
bsS'held_object'
p1201
NsS'robot_name'
p1202
S'pr2'
p1203
sS'env_id'
p1204
I1
sg1054
(dp1205
Vright_wall_1
p1206
g1057
(g1058
(I0
tp1207
g1060
tp1208
Rp1209
(I1
(I4
tp1210
g1067
I00
S'H\xe1z\x14\xaeG\x12@&\\\x8f\xc2\xf5(\xd4\xbf\xcc\x7fH\xbf}\x1d\xed?\x00\x00\x00\x00\x00\x00\x00\x00'
p1211
tp1212
bsVc_obst5
p1213
g1057
(g1058
(I0
tp1214
g1060
tp1215
Rp1216
(I1
(I4
tp1217
g1067
I00
S"\x99\xf1q\xbb~\xea\x11@\x168\xbb\xd6O\xb6\xd4?c\xaa`TR'\xed?\xd2\x93\xb1\x82\xa4\x94\x0b@"
p1218
tp1219
bsVctop_obst2
p1220
g1057
(g1058
(I0
tp1221
g1060
tp1222
Rp1223
(I1
(I4
tp1224
g1067
I00
S'\xc72\x14\xeb\xf2\x82\x12@h5g\xce\xc8\xfd\xbe?\xc5m4\x80\xb7\xc0\xf2?\xebu\xae\xe5"Q\x18@'
p1225
tp1226
bsVentrance_right
p1227
g1057
(g1058
(I0
tp1228
g1060
tp1229
Rp1230
(I1
(I4
tp1231
g1067
I00
S'ffffff\n@H\xe1z\x14\xaeG\t\xc0\x9c\xc4 \xb0rh\xc1?\x00\x00\x00\x00\x00\x00\x00\x00'
p1232
tp1233
bsVcomputer_table
p1234
g1057
(g1058
(I0
tp1235
g1060
tp1236
Rp1237
(I1
(I4
tp1238
g1067
I00
S'\x00\x00\x00\x00\x00\x00\x13@\x00\x00\x00\x00\x00\x00\xf8\xbf\x96C\x8bl\xe7\xfb\xe7?\xd2!3\x7f|\xd9\x12@'
p1239
tp1240
bsVchair_6b56
p1241
g1057
(g1058
(I0
tp1242
g1060
tp1243
Rp1244
(I1
(I4
tp1245
g1067
I00
S'y=\n\xd7\xa3p\xf5?M\xe1z\x14\xaeG\xd1?\x00\x00\x00\x00\x00\x00\x00\x00\xd6$\xfaNBm\n@'
p1246
tp1247
bsVsquare_packing_box3
p1248
g1057
(g1058
(I0
tp1249
g1060
tp1250
Rp1251
(I1
(I4
tp1252
g1067
I00
S'8\xc7\x84Ad\xa3\n@\xb4\xaf\xb2\x18;\x05\x1e\xc0L7\x89A`\xe5\xd8?j8\xf9\x85\xb6\xac\x0f@'
p1253
tp1254
bsVsquare_packing_box2
p1255
g1057
(g1058
(I0
tp1256
g1060
tp1257
Rp1258
(I1
(I4
tp1259
g1067
I00
S'\xb3\x99\x7f<\xad\xb4\r@\xd8\xe5\x95\xe8\xfc\xf0\x16\xc0L7\x89A`\xe5\xd8?Y\x96n\x9e\xe7\t\x19@'
p1260
tp1261
bsVtable
p1262
g1057
(g1058
(I0
tp1263
g1060
tp1264
Rp1265
(I1
(I4
tp1266
g1067
I00
S'\x7f\xf6#EdX\xed?\xac\xffs\x98//\xc0\xbf\x00\x00\x00\x00\x00\x00\x00\x00\x00\x00\x00\x00\x00\x00\x00\x00'
p1267
tp1268
bsVsquare_packing_box1
p1269
g1057
(g1058
(I0
tp1270
g1060
tp1271
Rp1272
(I1
(I4
tp1273
g1067
I00
S'\x12\xcf\x19\xc3\xf23\x0c@\x89\xb5r\xad\x0f?\x15\xc0L7\x89A`\xe5\xd8?\xbf~a\xe9h\n\x13@'
p1274
tp1275
bsVback_wall_2
p1276
g1057
(g1058
(I0
tp1277
g1060
tp1278
Rp1279
(I1
(I4
tp1280
g1067
I00
S'\xaeG\xe1z\x14.\x13@\x80\x14\xaeG\xe1z\xc4?xX\xa85\xcd\xbb\xf2?\x00\x00\x00\x00\x00\x00\x00\x00'
p1281
tp1282
bsVchair_083c
p1283
g1057
(g1058
(I0
tp1284
g1060
tp1285
Rp1286
(I1
(I4
tp1287
g1067
I00
S'\xa4p=\n\xd7\xa3\xe0?333333\xe3\xbf\x00\x00\x00\x00\x00\x00\x00\x00\x00\x00\x00\x00\x00\x00\x00\x00'
p1288
tp1289
bsVback_wall_1
p1290
g1057
(g1058
(I0
tp1291
g1060
tp1292
Rp1293
(I1
(I4
tp1294
g1067
I00
S'\xaeG\xe1z\x14.\x13@\x80\x14\xaeG\xe1z\xc4?\xcc\x7fH\xbf}\x1d\xed?\x00\x00\x00\x00\x00\x00\x00\x00'
p1295
tp1296
bsVbottom_wall
p1297
g1057
(g1058
(I0
tp1298
g1060
tp1299
Rp1300
(I1
(I4
tp1301
g1067
I00
S'\x00\x00\x00\x00\x00\x00\xfc?\x00\x00\x00\x00\x00\x00\x00\x00\x00\x00\x00\x00\x00\x00\x00\x00\x00\x00\x00\x00\x00\x00\x00\x00'
p1302
tp1303
bsVctop_obst5
p1304
g1057
(g1058
(I0
tp1305
g1060
tp1306
Rp1307
(I1
(I4
tp1308
g1067
I00
S'\x82\x17\xe0\x95x=\x12@\xd0\xe1\x92\xab\xab\x95\xcd?\xc5m4\x80\xb7\xc0\xf2?\xcd\xd5+Xo\x89\r@'
p1309
tp1310
bsVcup_905a
p1311
g1057
(g1058
(I0
tp1312
g1060
tp1313
Rp1314
(I1
(I4
tp1315
g1067
I00
S'\x00\x00\x00\x00\x00\x00\xf0?\x83\xc0\xca\xa1E\xb6\xdb?\x1b/\xdd$\x06\x81\xed?\x00\x00\x00\x00\x00\x00\x00\x00'
p1316
tp1317
bsVplate_496f
p1318
g1057
(g1058
(I0
tp1319
g1060
tp1320
Rp1321
(I1
(I4
tp1322
g1067
I00
S"q=\n\xd7\xa3p\xe5?\x9dhW!\xe5'\xdd\xbf\x1b/\xdd$\x06\x81\xed?\x00\x00\x00\x00\x00\x00\x00\x00"
p1323
tp1324
bsVtoaster
p1325
g1057
(g1058
(I0
tp1326
g1060
tp1327
Rp1328
(I1
(I4
tp1329
g1067
I00
S')\\\x8f\xc2\xf5(\xf4\xbf\xe0z\x14\xaeG\xe1\xf2\xbf\xb8\x1e\x85\xebQ\xb8\xee?\x89/`\x9b\xf8\x8a\xe4?'
p1330
tp1331
bsVc_obst1
p1332
g1057
(g1058
(I0
tp1333
g1060
tp1334
Rp1335
(I1
(I4
tp1336
g1067
I00
S"\xfb$\x95\xf6\x8a4\x12@\x16\xc3S\xe6\xc1\xef\xd7?d\xaa`TR'\xed?\xe0\xbaL\x80\x10\xb3\t@"
p1337
tp1338
bsVrectangular_packing_box4
p1339
g1057
(g1058
(I0
tp1340
g1060
tp1341
Rp1342
(I1
(I4
tp1343
g1067
I00
S'\x98\x1e]pS`\xd2?\x16\x1b\xb6\xe9Ei\x18\xc0L7\x89A`\xe5\xd8?\x82\x97\xe8\xa1t:\xe4?'
p1344
tp1345
bsVmicrowave
p1346
g1057
(g1058
(I0
tp1347
g1060
tp1348
Rp1349
(I1
(I4
tp1350
g1067
I00
S'\x9a\x99\x99\x99\x99\x99\xf1\xbf\x00\x00\x00\x00\x00\x00\x00@7\x89A`\xe5\xd0\xee?\x00\x00\x00\x00\x00\x00\x00\x00'
p1351
tp1352
bsVctop_obst6
p1353
g1057
(g1058
(I0
tp1354
g1060
tp1355
Rp1356
(I1
(I4
tp1357
g1067
I00
S'\x8ev\x82wVC\x12@`n\xad8\xc7F\xc2\xbf\xc5m4\x80\xb7\xc0\xf2?\xd9R5=\xef\x80\x10@'
p1358
tp1359
bsVc_obst6
p1360
g1057
(g1058
(I0
tp1361
g1060
tp1362
Rp1363
(I1
(I4
tp1364
g1067
I00
S"\xfe\x9a\x11\x01\x95\x83\x12@\xe8\xa7>?}-\xd2?e\xaa`TR'\xed?\xed\xedJ\xfa\x0b\x0c\x04@"
p1365
tp1366
bsVcup_b6af
p1367
g1057
(g1058
(I0
tp1368
g1060
tp1369
Rp1370
(I1
(I4
tp1371
g1067
I00
S'R\xb8\x1e\x85\xebQ\xe8?\x9a\x99\x99\x99\x99\x99\xe1?\x1b/\xdd$\x06\x81\xed?\x00\x00\x00\x00\x00\x00\x00\x00'
p1372
tp1373
bsVc_obst4
p1374
g1057
(g1058
(I0
tp1375
g1060
tp1376
Rp1377
(I1
(I4
tp1378
g1067
I00
S"n\x08(p\x9bi\x12@\xc0\x8f\x90\x84\x98\xd9\xc1?f\xaa`TR'\xed?\xae\x8f\xee\xf0\x1b\x97\x16@"
p1379
tp1380
bsVrectangular_packing_box2
p1381
g1057
(g1058
(I0
tp1382
g1060
tp1383
Rp1384
(I1
(I4
tp1385
g1067
I00
S'x#\x8a\xa8\xbfB\x02@]@\xdd\xaa0\xf7\x1a\xc0L7\x89A`\xe5\xd8?\xa2\x93\xe4\xf2\xe3\x8f\xe0?'
p1386
tp1387
bsVplate_fa76
p1388
g1057
(g1058
(I0
tp1389
g1060
tp1390
Rp1391
(I1
(I4
tp1392
g1067
I00
S'=\n\xd7\xa3p=\xf2?\x00\x00\x00\x00\x00\x00\x00\x00\x1b/\xdd$\x06\x81\xed?\x00\x00\x00\x00\x00\x00\x00\x00'
p1393
tp1394
bsVfloorwalls
p1395
g1057
(g1058
(I0
tp1396
g1060
tp1397
Rp1398
(I1
(I4
tp1399
g1067
I00
S'\xc7\xcc\xcc\xcc\xcc\xcc\xfc?\x00\x00\x00\x00\x00\x00\x18\xc0H\xe1z\x14\xaeG\xc1?\x16-DT\xfb!\xf9?'
p1400
tp1401
bsVpin_c671
p1402
g1057
(g1058
(I0
tp1403
g1060
tp1404
Rp1405
(I1
(I4
tp1406
g1067
I00
S'\xc3\xf5(\\\x8f\xc2\xf1\xbf}?5^\xbaI\x02@\xb8\x1e\x85\xebQ\xb8\xfa?\x00\x00\x00\x00\x00\x00\x00\x00'
p1407
tp1408
bsVc_obst3
p1409
g1057
(g1058
(I0
tp1410
g1060
tp1411
Rp1412
(I1
(I4
tp1413
g1067
I00
S"^\xdd\\<%\xa1\x12@\xac\x8b8\x90\xc6\xe6\xd8?d\xaa`TR'\xed?\x1c\x9e\xaarJ\xdd\x16@"
p1414
tp1415
bsVchair_2e39
p1416
g1057
(g1058
(I0
tp1417
g1060
tp1418
Rp1419
(I1
(I4
tp1420
g1067
I00
S'hfffff\xee?`fffff\xf2\xbf\x00\x00\x00\x00\x00\x00\x00\x00\x07M\xe8QQF\xf3?'
p1421
tp1422
bsVentrance_left
p1423
g1057
(g1058
(I0
tp1424
g1060
tp1425
Rp1426
(I1
(I4
tp1427
g1067
I00
S'\x98\x99\x99\x99\x99\x99\xe9\xbfH\xe1z\x14\xaeG\t\xc0\x9c\xc4 \xb0rh\xc1?\x00\x00\x00\x00\x00\x00\x00\x00'
p1428
tp1429
bsVtop_wall_1
p1430
g1057
(g1058
(I0
tp1431
g1060
tp1432
Rp1433
(I1
(I4
tp1434
g1067
I00
S'H\xe1z\x14\xaeG\x12@\x80\x14\xaeG\xe1z\xc4?xX\xa85\xcd\xbb\xf2?\x00\x00\x00\x00\x00\x00\x00\x00'
p1435
tp1436
bsVrectangular_packing_box3
p1437
g1057
(g1058
(I0
tp1438
g1060
tp1439
Rp1440
(I1
(I4
tp1441
g1067
I00
S',\xa3$/\t\xb1\xb0?p\xd9\xd7\x88y7\x1e\xc0L7\x89A`\xe5\xd8?\xa1\xa8\xa4gcb\x12@'
p1442
tp1443
bsVshaker
p1444
g1057
(g1058
(I0
tp1445
g1060
tp1446
Rp1447
(I1
(I4
tp1448
g1067
I00
S'\n\xd7\xa3p=\n\x01@\x14\xaeG\xe1z\x14\x02@\\\x8f\xc2\xf5(\\\xef?\x00\x00\x00\x00\x00\x00\x00\x00'
p1449
tp1450
bsVplate_835a
p1451
g1057
(g1058
(I0
tp1452
g1060
tp1453
Rp1454
(I1
(I4
tp1455
g1067
I00
S'\xf6(\\\x8f\xc2\xf5\xf0?\\\x8f\xc2\xf5(\\\xe7\xbf\x1b/\xdd$\x06\x81\xed?\x00\x00\x00\x00\x00\x00\x00\x00'
p1456
tp1457
bsVcup_58a2
p1458
g1057
(g1058
(I0
tp1459
g1060
tp1460
Rp1461
(I1
(I4
tp1462
g1067
I00
S'\x85\xebQ\xb8\x1e\x85\xe3?\xcd\xcc\xcc\xcc\xcc\xcc\xdc?\x1b/\xdd$\x06\x81\xed?\x00\x00\x00\x00\x00\x00\x00\x00'
p1463
tp1464
bsVleft_wall_1
p1465
g1057
(g1058
(I0
tp1466
g1060
tp1467
Rp1468
(I1
(I4
tp1469
g1067
I00
S'H\xe1z\x14\xaeG\x12@S\xb8\x1e\x85\xebQ\xe4?\xcc\x7fH\xbf}\x1d\xed?\x00\x00\x00\x00\x00\x00\x00\x00'
p1470
tp1471
bsVc_obst2
p1472
g1057
(g1058
(I0
tp1473
g1060
tp1474
Rp1475
(I1
(I4
tp1476
g1067
I00
S"\x02\xf9\xf8\xe06C\x12@\xe2c\x9dS@k\xcc?d\xaa`TR'\xed?\x8e\xd1'\xc0\x08~\xfe?"
p1477
tp1478
bsVsquare_packing_box4
p1479
g1057
(g1058
(I0
tp1480
g1060
tp1481
Rp1482
(I1
(I4
tp1483
g1067
I00
S'X\xce\xcef\xfe\xbb\xf0?L@\xfc\xa1\x9e\xc0\x16\xc0L7\x89A`\xe5\xd8?\xaeKe\x14U\xf8\x13@'
p1484
tp1485
bsVrectangular_packing_box1
p1486
g1057
(g1058
(I0
tp1487
g1060
tp1488
Rp1489
(I1
(I4
tp1490
g1067
I00
S"d#\x91Sb\\\x03@\\\xb7\xc3\xbb\x93=\xdb?Lb\x10X9\xb4\xd8?\xb1\xda\xec\xd9'\xeb\x0f@"
p1491
tp1492
bsVpin_371e
p1493
g1057
(g1058
(I0
tp1494
g1060
tp1495
Rp1496
(I1
(I4
tp1497
g1067
I00
S'333333\xf3\xbfffffff\xf6?\xb8\x1e\x85\xebQ\xb8\xee?\x00\x00\x00\x00\x00\x00\x00\x00'
p1498
tp1499
bsVfridge
p1500
g1057
(g1058
(I0
tp1501
g1060
tp1502
Rp1503
(I1
(I4
tp1504
g1067
I00
S'\xd7\xa3p=\n\xd7\xeb\xbf\x00\x00\x00\x00\x00\x00\x00\xc0\xcd\xcc\xcc\xcc\xcc\xcc\xf8?\x00\x00\x00\x00\x00\x00\x00\x00'
p1505
tp1506
bsVcup_d441
p1507
g1057
(g1058
(I0
tp1508
g1060
tp1509
Rp1510
(I1
(I4
tp1511
g1067
I00
S'\n\xd7\xa3p=\n\xef?\x8f\xc2\xf5(\\\x8f\xe2?\x1b/\xdd$\x06\x81\xed?\x00\x00\x00\x00\x00\x00\x00\x00'
p1512
tp1513
bsVshelf2
p1514
g1057
(g1058
(I0
tp1515
g1060
tp1516
Rp1517
(I1
(I4
tp1518
g1067
I00
S'\x00\x00\x00\x00\x00\x00\x0e@\xaeG\xe1z\x14\xae\x07@\x9c\xc4 \xb0rh\xc1?\xd2!3\x7f|\xd9\x12@'
p1519
tp1520
bsVtop_wall_2
p1521
g1057
(g1058
(I0
tp1522
g1060
tp1523
Rp1524
(I1
(I4
tp1525
g1067
I00
S'H\xe1z\x14\xaeG\x12@\x80\x14\xaeG\xe1z\xc4?\x16HP\xfc\x18\xf3\xfd?\x00\x00\x00\x00\x00\x00\x00\x00'
p1526
tp1527
bsVc_obst0
p1528
g1057
(g1058
(I0
tp1529
g1060
tp1530
Rp1531
(I1
(I4
tp1532
g1067
I00
S"\xb8\x088t\x9c7\x12@NF\xf1\x14\xed\x8f\x96\xbfe\xaa`TR'\xed?\xadtI0\xaa\x0c\x13@"
p1533
tp1534
bsVshelf1
p1535
g1057
(g1058
(I0
tp1536
g1060
tp1537
Rp1538
(I1
(I4
tp1539
g1067
I00
S'\x00\x00\x00\x00\x00\x00\x13@\xaeG\xe1z\x14\xae\x07@\x9c\xc4 \xb0rh\xc1?\xd2!3\x7f|\xd9\x12@'
p1540
tp1541
bsVsink
p1542
g1057
(g1058
(I0
tp1543
g1060
tp1544
Rp1545
(I1
(I4
tp1546
g1067
I00
S'ffffff\xd6?333333\x01@\x9a\x99\x99\x99\x99\x99\xb9\xbf\x00\x00\x00\x00\x00\x00\x00\x00'
p1547
tp1548
bsVpr2
p1549
g1057
(g1058
(I0
tp1550
g1060
tp1551
Rp1552
(I1
(I4
tp1553
g1067
I00
S'\xaa\xa6o\xc2R\xcb\x10@\x92|+m\xcc\x96\x02@\x9a_\x94\xa0\xbf\xd0\xc1?:Ba\xab_,\x15@'
p1554
tp1555
bsVchair_12d0
p1556
g1057
(g1058
(I0
tp1557
g1060
tp1558
Rp1559
(I1
(I4
tp1560
g1067
I00
S'^\xd2\x18\xad\xa3\xaa\xdb?Pf\x83L2r\xc6?\x00\x00\x00\x00\x00\x00\x00\x00\xf8\x81\r\x14M\xa6\x17@'
p1561
tp1562
bsVright_wall_2
p1563
g1057
(g1058
(I0
tp1564
g1060
tp1565
Rp1566
(I1
(I4
tp1567
g1067
I00
S'H\xe1z\x14\xaeG\x12@&\\\x8f\xc2\xf5(\xd4\xbfxX\xa85\xcd\xbb\xf2?\x00\x00\x00\x00\x00\x00\x00\x00'
p1568
tp1569
bsVknife_block
p1570
g1057
(g1058
(I0
tp1571
g1060
tp1572
Rp1573
(I1
(I4
tp1574
g1067
I00
S'R\xb8\x1e\x85\xebQ\xe0\xbfffffff\x02@`\xe5\xd0"\xdb\xf9\xee?\x00\x00\x00\x00\x00\x00\x00\x00'
p1575
tp1576
bsVleft_wall_2
p1577
g1057
(g1058
(I0
tp1578
g1060
tp1579
Rp1580
(I1
(I4
tp1581
g1067
I00
S'H\xe1z\x14\xaeG\x12@S\xb8\x1e\x85\xebQ\xe4?xX\xa85\xcd\xbb\xf2?\x00\x00\x00\x00\x00\x00\x00\x00'
p1582
tp1583
bsVleft_wall
p1584
g1057
(g1058
(I0
tp1585
g1060
tp1586
Rp1587
(I1
(I4
tp1588
g1067
I00
S'\x9a\x99\x99\x99\x99\x99\x07@H\xe1z\x14\xaeG\xff?\x9c\xc4 \xb0rh\xc1?\x00\x00\x00\x00\x00\x00\x00\x00'
p1589
tp1590
bsVkitchen
p1591
g1057
(g1058
(I0
tp1592
g1060
tp1593
Rp1594
(I1
(I4
tp1595
g1067
I00
S'\x00\x00\x00\x00\x00\x00\x00\x00\x00\x00\x00\x00\x00\x00\x00\x00\x00\x00\x00\x00\x00\x00\x00\x00\x00\x00\x00\x00\x00\x00\x00\x00'
p1596
tp1597
bsVtable2
p1598
g1057
(g1058
(I0
tp1599
g1060
tp1600
Rp1601
(I1
(I4
tp1602
g1067
I00
S'\x00\x00\x00\x00\x00\x00\x13@\x80\x14\xaeG\xe1z\xc4?S\x96!\x8euq\xec?\xd2!3\x7f|\xd9\x12@'
p1603
tp1604
bsVplate_b4e7
p1605
g1057
(g1058
(I0
tp1606
g1060
tp1607
Rp1608
(I1
(I4
tp1609
g1067
I00
S'\x14\xaeG\xe1z\x14\xf2\xbf\x14\xaeG\xe1z\x14\x00@=\n\xd7\xa3p=\xf2?\x00\x00\x00\x00\x00\x00\x00\x00'
p1610
tp1611
bsVcooker
p1612
g1057
(g1058
(I0
tp1613
g1060
tp1614
Rp1615
(I1
(I4
tp1616
g1067
I00
S'\xaeG\xe1z\x14\xae\xff?\x85\xebQ\xb8\x1e\x85\xfb?\x00\x00\x00\x00\x00\x00\xe8?\x00\x00\x00\x00\x00\x00\x00\x00'
p1617
tp1618
bsVpin_a091
p1619
g1057
(g1058
(I0
tp1620
g1060
tp1621
Rp1622
(I1
(I4
tp1623
g1067
I00
S'\xdb\xf9~j\xbct\xf7\xbf)\\\x8f\xc2\xf5(\x02@\xb8\x1e\x85\xebQ\xb8\xfa?\x00\x00\x00\x00\x00\x00\x00\x00'
p1624
tp1625
bsVside_wall_2
p1626
g1057
(g1058
(I0
tp1627
g1060
tp1628
Rp1629
(I1
(I4
tp1630
g1067
I00
S'\xf6\xff\xff\xff\xff\xff\x14@\x00\x00\x00\x00\x00\x00\x00\x00\x9c\xc4 \xb0rh\xc1?\x18-DT\xfb!\xf9?'
p1631
tp1632
bsVside_wall_3
p1633
g1057
(g1058
(I0
tp1634
g1060
tp1635
Rp1636
(I1
(I4
tp1637
g1067
I00
S'\x00\x00\x00\x00\x00\x00\xfc?H\xe1z\x14\xaeG\t@\x9c\xc4 \xb0rh\xc1?\x00\x00\x00\x00\x00\x00\x00\x00'
p1638
tp1639
bsVmixer
p1640
g1057
(g1058
(I0
tp1641
g1060
tp1642
Rp1643
(I1
(I4
tp1644
g1067
I00
S'\n\xd7\xa3p=\n\xfb?ffffff\x02@d;\xdfO\x8d\x97\xee?\x00\x00\x00\x00\x00\x00\x00\x00'
p1645
tp1646
bsVside_wall_1
p1647
g1057
(g1058
(I0
tp1648
g1060
tp1649
Rp1650
(I1
(I4
tp1651
g1067
I00
S'\xec\xff\xff\xff\xff\xff\xfb\xbf\x00\x00\x00\x00\x00\x00\x00\x00\x9c\xc4 \xb0rh\xc1?\x18-DT\xfb!\xf9?'
p1652
tp1653
bsVbottom_wall_1
p1654
g1057
(g1058
(I0
tp1655
g1060
tp1656
Rp1657
(I1
(I4
tp1658
g1067
I00
S'H\xe1z\x14\xaeG\x12@\x80\x14\xaeG\xe1z\xc4?\xcc\x7fH\xbf}\x1d\xed?\x00\x00\x00\x00\x00\x00\x00\x00'
p1659
tp1660
bsVbottom_wall_2
p1661
g1057
(g1058
(I0
tp1662
g1060
tp1663
Rp1664
(I1
(I4
tp1665
g1067
I00
S'H\xe1z\x14\xaeG\x12@\x80\x14\xaeG\xe1z\xc4?xX\xa85\xcd\xbb\xf2?\x00\x00\x00\x00\x00\x00\x00\x00'
p1666
tp1667
bsVcan
p1668
g1057
(g1058
(I0
tp1669
g1060
tp1670
Rp1671
(I1
(I4
tp1672
g1067
I00
S'\x00\x00\x00\x00\x00\x00\xf4\xbfH\xe1z\x14\xaeG\xe1\xbf\n\xd7\xa3p=\n\xef?\x00\x00\x00\x00\x00\x00\x00\x00'
p1673
tp1674
bsVctop_obst1
p1675
g1057
(g1058
(I0
tp1676
g1060
tp1677
Rp1678
(I1
(I4
tp1679
g1067
I00
S'&\xe0\xe2V}T\x12@\x80w\xff\x94\xb9|\xa1\xbf\xc5m4\x80\xb7\xc0\xf2?\r\x86\xb7\xe9I5\xf3?'
p1680
tp1681
bsVctop_obst0
p1682
g1057
(g1058
(I0
tp1683
g1060
tp1684
Rp1685
(I1
(I4
tp1686
g1067
I00
S'\xfd\x81=\xfa]F\x12@Rf\x922\x8f\r\xdc?\xc5m4\x80\xb7\xc0\xf2?\xa1F+\x03Yi}?'
p1687
tp1688
bsVctop_obst3
p1689
g1057
(g1058
(I0
tp1690
g1060
tp1691
Rp1692
(I1
(I4
tp1693
g1067
I00
S'\xcd\x1d\xfa\xdd"&\x12@ \xb7u\xddN;\xc5?\xc5m4\x80\xb7\xc0\xf2?\xbf\xa1\xb9\x07\xb2,\xe0?'
p1694
tp1695
bsVright_wall
p1696
g1057
(g1058
(I0
tp1697
g1060
tp1698
Rp1699
(I1
(I4
tp1700
g1067
I00
S'\x9a\x99\x99\x99\x99\x99\x07@H\xe1z\x14\xaeG\xff\xbf\x9c\xc4 \xb0rh\xc1?\x00\x00\x00\x00\x00\x00\x00\x00'
p1701
tp1702
bsVcoffe_machine
p1703
g1057
(g1058
(I0
tp1704
g1060
tp1705
Rp1706
(I1
(I4
tp1707
g1067
I00
S'\\\x8f\xc2\xf5(\\\xf5\xbf\xb8\x1e\x85\xebQ\xb8\xee?\n\xd7\xa3p=\n\xef?\x00\x00\x00\x00\x00\x00\x00\x00'
p1708
tp1709
bsVctop_obst4
p1710
g1057
(g1058
(I0
tp1711
g1060
tp1712
Rp1713
(I1
(I4
tp1714
g1067
I00
S'@==\xda{\xa1\x12@\x00U\xd7(.W\xce?\xc5m4\x80\xb7\xc0\xf2?\x94\xc5\x7f\x88Y(\x0b@'
p1715
tp1716
bsVcomputer_chair
p1717
g1057
(g1058
(I0
tp1718
g1060
tp1719
Rp1720
(I1
(I4
tp1721
g1067
I00
S'\xcd\xcc\xcc\xcc\xcc\xcc\x10@\x00\x00\x00\x00\x00\x00\xf8\xbf\xa00\xb6\x10\xe4\xa9\x95\xbf\x00\x00\x00\x00\x00\x00\x00\x00'
p1722
tp1723
bssS'robot_dof_values'
p1724
g1057
(g1058
(I0
tp1725
g1060
tp1726
Rp1727
(I1
(I39
tp1728
g1067
I00
S'\x00\x00\x00\x00\x00\x00\x00\x00\x00\x00\x00\x00\x00\x00\x00\x00\x00\x00\x00\x00\x00\x00\x00\x00\x00\x00\x00\x00\x00\x00\x00\x00\x00\x00\x00\x00\x00\x00\x00\x00\x00\x00\x00\x00\x00\x00\x00\x00\x00\x00\x00\x00\x00\x00\x00\x00\x00\x00\x00\x00\x00\x00\x00\x00\x00\x00\x00\x00\x00\x00\x00\x00\x00\x00\x00\x00\x00\x00\x00\x00\x00\x00\x00\x00\x00\x00\x00\x00\x00\x00\x00\x00\x00\x00\x00\x00@d;\xdfO\x8d\x87?\x00\x00\x00\x00\x00\x00\x00\x00\x00\x00\x00\x00\x00\x00\x00\x00\x00\x00\x00\x00\x00\x00\x00\x00\xec\xed\t\xf1\xcc\xa4\xf4?\x00\x00\x00\x00\x00\x00\x00\x00N"\xd0^p\xf8\x00\xc0\x00\x00\x00\x00\x00\x00\x00\x00\x9b\x03\r.\x04V\xe6\xbf\x00\x00\x00\x00\x00\x00\x00\x00\x00\x00\x00\x00\x00\x00\x00\x00\x00\x00\x00\x00\x00\x00\x98\xbc\x00\x00\x00\x00\x00\x00\x00\x00\x00\x00\x00\x00\x00\x00\x00\x00\x00\x00\x00\x00\x00\x00\x00\x00\x00\x00\x00\x00\x00\x00\x00\x00\xec\xed\t\xf1\xcc\xa4\xf4?\x00\x00\x00\x00\x00\x00\xc0\xbcO"\xd0^p\xf8\x00\xc0\x00\x00\x00\x00\x00\x00\x00\x00\xa2\x03\r.\x04V\xe6\xbf\x00\x00\x00\x00\x00\x00\x00\x00\xce9\xe3\xc17\x89\xe1?\x00\x00\x00\x00\x00\x00\xb2<\x00\x00\x00\x00\x00\x00\x00\x00\x00\x00\x00\x00\x00\x00\xe0<\x00\x00\x00\x00\x00\x00\x00\x00'
p1729
tp1730
bsS'is_holding'
p1731
I00
sbsS'regions'
p1732
(dp1733
g12
ccopy_reg
_reconstructor
p1734
(cmanipulation.regions
AARegion
p1735
c__builtin__
object
p1736
Ntp1737
Rp1738
(dp1739
S'box'
p1740
((cnumpy.core.multiarray
scalar
p1741
(g1067
S' \r\xd8\xd0J\x91\x00@'
p1742
tp1743
Rp1744
g1741
(g1067
S"\xbe9J\xd6y'\x06@"
p1745
tp1746
Rp1747
tp1748
(g1741
(g1067
S'\xb8\xab7\x97kM\xb1?'
p1749
tp1750
Rp1751
g1741
(g1067
S'\xf1\xc1\xdcH\xe6\x13\xe9?'
p1752
tp1753
Rp1754
tp1755
tp1756
sS'color'
p1757
(F1.0
F1.0
F0.0
F0.25
tp1758
sS'z'
p1759
g1741
(g1067
S'\x05\xdd^\xd2\x18-\xf2?'
p1760
tp1761
Rp1762
sS'name'
p1763
Vrectangular_packing_box1_region
p1764
sS'draw_handle'
p1765
Nsbsg10
g1734
(g1735
g1736
Ntp1766
Rp1767
(dp1768
g1740
((g1741
(g1067
S'H\xe1z\x14\xae\xc7\x11@'
p1769
tp1770
Rp1771
g1741
(g1067
S'H\xe1z\x14\xae\xc7\x12@'
p1772
tp1773
Rp1774
tp1775
(g1741
(g1067
S'.33333\xcf\xbf'
p1776
tp1777
Rp1778
g1741
(g1067
S'\x0c\xd7\xa3p=\n\xe2?'
p1779
tp1780
Rp1781
tp1782
tp1783
sg1757
g1057
(g1058
(I0
tp1784
g1060
tp1785
Rp1786
(I1
(I4
tp1787
g1067
I00
S'\x00\x00\x00\x00\x00\x00\x00\x00\x00\x00\x00\x00\x00\x00\x00\x00\x00\x00\x00\x00\x00\x00\x00\x00\x00\x00\x00\x00\x00\x00\xe0?'
p1788
tp1789
bsg1759
g1741
(g1067
S'[\xb1\xbf\xec\x9e\xbc\xf2?'
p1790
tp1791
Rp1792
sg1763
S'center_top_shelf_region'
p1793
sg1765
NsbssS'parent_ternary_predicates'
p1794
(dp1795
sS'parent_binary_predicates'
p1796
(dp1797
sS'nodes'
p1798
(dp1799
g12
(lp1800
I0
aI0
aI0
aI0
aI0
aI0
aI00
aI01
aI01
aI00
aI00
asg10
(lp1801
I0
aI0
aI0
aI0
aI0
aI0
aI00
aI01
aI00
aI00
aI00
asg60
(lp1802
I0
aI0
aI0
ag1741
(g1067
S'\xce\x99\x11\x01\x95\x83\x12@'
p1803
tp1804
Rp1805
ag1741
(g1067
S'\x98\xa7>?}-\xd2?'
p1806
tp1807
Rp1808
ag1741
(g1067
S'\xed\xedJ\xfa\x0b\x0c\x04@'
p1809
tp1810
Rp1811
aI01
aI00
aI00
aI00
aI00
asg49
(lp1812
I0
aI0
aI0
ag1741
(g1067
S'\x18\xf1q\xbb~\xea\x11@'
p1813
tp1814
Rp1815
ag1741
(g1067
S'\x918\xbb\xd6O\xb6\xd4?'
p1816
tp1817
Rp1818
ag1741
(g1067
S'\xd5\x93\xb1\x82\xa4\x94\x0b@'
p1819
tp1820
Rp1821
aI01
aI00
aI00
aI01
aI00
asg15
(lp1822
I0
aI0
aI0
ag1741
(g1067
S'n\x08(p\x9bi\x12@'
p1823
tp1824
Rp1825
ag1741
(g1067
S'\xc0\x8f\x90\x84\x98\xd9\xc1?'
p1826
tp1827
Rp1828
ag1741
(g1067
S'\xae\x8f\xee\xf0\x1b\x97\x16@'
p1829
tp1830
Rp1831
aI01
aI00
aI00
aI00
aI00
asg50
(lp1832
I0
aI0
aI0
ag1741
(g1067
S'^\xdd\\<%\xa1\x12@'
p1833
tp1834
Rp1835
ag1741
(g1067
S'\xac\x8b8\x90\xc6\xe6\xd8?'
p1836
tp1837
Rp1838
ag1741
(g1067
S'\x1c\x9e\xaarJ\xdd\x16@'
p1839
tp1840
Rp1841
aI01
aI00
aI00
aI00
aI00
asg53
(lp1842
I0
aI0
aI0
ag1741
(g1067
S'\xf2\xf8\xf8\xe06C\x12@'
p1843
tp1844
Rp1845
ag1741
(g1067
S'pd\x9dS@k\xcc?'
p1846
tp1847
Rp1848
ag1741
(g1067
S"\xa0\xd1'\xc0\x08~\xfe?"
p1849
tp1850
Rp1851
aI01
aI00
aI00
aI01
aI00
asg22
(lp1852
I0
aI0
aI0
ag1741
(g1067
S'\x95"\x95\xf6\x8a4\x12@'
p1853
tp1854
Rp1855
ag1741
(g1067
S'\xb9\xbfS\xe6\xc1\xef\xd7?'
p1856
tp1857
Rp1858
ag1741
(g1067
S'\xdd\xbaL\x80\x10\xb3\t@'
p1859
tp1860
Rp1861
aI01
aI00
aI01
aI01
aI00
asg42
(lp1862
I0
aI0
aI0
ag1741
(g1067
S'\xb2\x088t\x9c7\x12@'
p1863
tp1864
Rp1865
ag1741
(g1067
S'(\x19\xf1\x14\xed\x8f\x96\xbf'
p1866
tp1867
Rp1868
ag1741
(g1067
S'\xb2tI0\xaa\x0c\x13@'
p1869
tp1870
Rp1871
aI01
aI00
aI00
aI01
aI00
asg63
(lp1872
I0
aI0
aI0
ag1741
(g1067
S'\t\xe0\xe2V}T\x12@'
p1873
tp1874
Rp1875
ag1741
(g1067
S'E\x85\xff\x94\xb9|\xa1\xbf'
p1876
tp1877
Rp1878
ag1741
(g1067
S'\x11\x86\xb7\xe9I5\xf3?'
p1879
tp1880
Rp1881
aI01
aI00
aI00
aI01
aI00
asg35
(lp1882
I0
aI0
aI0
ag1741
(g1067
S'\xd4\x81=\xfa]F\x12@'
p1883
tp1884
Rp1885
ag1741
(g1067
S'\x8cf\x922\x8f\r\xdc?'
p1886
tp1887
Rp1888
ag1741
(g1067
S'\xa1F+\x03Yi}?'
p1889
tp1890
Rp1891
aI01
aI00
aI00
aI01
aI00
asg21
(lp1892
I0
aI0
aI0
ag1741
(g1067
S'\xcc\x1d\xfa\xdd"&\x12@'
p1893
tp1894
Rp1895
ag1741
(g1067
S'/\xb8u\xddN;\xc5?'
p1896
tp1897
Rp1898
ag1741
(g1067
S'\xbf\xa1\xb9\x07\xb2,\xe0?'
p1899
tp1900
Rp1901
aI01
aI00
aI00
aI01
aI00
asg30
(lp1902
I0
aI0
aI0
ag1741
(g1067
S'\xc72\x14\xeb\xf2\x82\x12@'
p1903
tp1904
Rp1905
ag1741
(g1067
S'h5g\xce\xc8\xfd\xbe?'
p1906
tp1907
Rp1908
ag1741
(g1067
S'\xebu\xae\xe5"Q\x18@'
p1909
tp1910
Rp1911
aI01
aI00
aI00
aI00
aI00
asg18
(lp1912
I0
aI0
aI0
ag1741
(g1067
S'3\x17\xe0\x95x=\x12@'
p1913
tp1914
Rp1915
ag1741
(g1067
S'\xa8\xe0\x92\xab\xab\x95\xcd?'
p1916
tp1917
Rp1918
ag1741
(g1067
S'\xce\xd5+Xo\x89\r@'
p1919
tp1920
Rp1921
aI01
aI00
aI00
aI01
aI00
asg27
(lp1922
I0
aI0
aI0
ag1741
(g1067
S'(==\xda{\xa1\x12@'
p1923
tp1924
Rp1925
ag1741
(g1067
S'YT\xd7(.W\xce?'
p1926
tp1927
Rp1928
ag1741
(g1067
S'\x94\xc5\x7f\x88Y(\x0b@'
p1929
tp1930
Rp1931
aI01
aI00
aI00
aI00
aI00
asg11
(lp1932
I0
aI0
aI0
ag1741
(g1067
S'\x19v\x82wVC\x12@'
p1933
tp1934
Rp1935
ag1741
(g1067
S'@u\xad8\xc7F\xc2\xbf'
p1936
tp1937
Rp1938
ag1741
(g1067
S'\xc5R5=\xef\x80\x10@'
p1939
tp1940
Rp1941
aI01
aI00
aI00
aI00
aI00
assS'mc_place_path'
p1942
(dp1943
sS'parent_state'
p1944
NsS'goal_entities'
p1945
(lp1946
g12
aVc_obst1
p1947
asS'objects'
p1948
NsS'binary_edges'
p1949
(dp1950
(g35
g27
tp1951
(lp1952
I00
aI00
aI00
as(g18
g18
tp1953
(lp1954
I00
aI00
aI00
as(g22
g42
tp1955
(lp1956
I00
aI00
aI00
as(g53
g53
tp1957
(lp1958
I00
aI00
aI00
as(g63
g18
tp1959
(lp1960
I00
aI00
aI00
as(g21
g42
tp1961
(lp1962
I00
aI00
aI00
as(g60
g27
tp1963
(lp1964
I00
aI00
aI00
as(g42
g22
tp1965
(lp1966
I00
aI00
aI00
as(g35
g12
tp1967
(lp1968
I00
aI00
aI01
as(g49
g60
tp1969
(lp1970
I00
aI00
aI00
as(g27
g42
tp1971
(lp1972
I00
aI00
aI00
as(g11
g63
tp1973
(lp1974
I00
aI00
aI00
as(g15
g18
tp1975
(lp1976
I00
aI00
aI00
as(g42
g63
tp1977
(lp1978
I00
aI00
aI00
as(g12
g18
tp1979
(lp1980
I00
aI00
aI00
as(g18
g63
tp1981
(lp1982
I00
aI00
aI00
as(g53
g35
tp1983
(lp1984
I00
aI00
aI00
as(g15
g49
tp1985
(lp1986
I00
aI00
aI00
as(g21
g30
tp1987
(lp1988
I00
aI00
aI00
as(g63
g49
tp1989
(lp1990
I00
aI00
aI00
as(g30
g10
tp1991
(lp1992
g1741
(g1064
(S'b1'
p1993
I0
I1
tp1994
Rp1995
(I3
S'|'
p1996
NNNI-1
I-1
I0
tp1997
bS'\x01'
p1998
tp1999
Rp2000
aI00
aI00
as(g50
g63
tp2001
(lp2002
I00
aI00
aI00
as(g50
g53
tp2003
(lp2004
I00
aI00
aI00
as(g22
g11
tp2005
(lp2006
I00
aI00
aI00
as(g35
g63
tp2007
(lp2008
I00
aI00
aI00
as(g35
g15
tp2009
(lp2010
I00
aI00
aI00
as(g49
g30
tp2011
(lp2012
I00
aI00
aI00
as(g15
g30
tp2013
(lp2014
I00
aI00
aI00
as(g63
g35
tp2015
(lp2016
I00
aI00
aI00
as(g60
g53
tp2017
(lp2018
I00
aI00
aI00
as(g22
g21
tp2019
(lp2020
I00
aI00
aI00
as(g42
g53
tp2021
(lp2022
I00
aI00
aI00
as(g10
g53
tp2023
(lp2024
I00
aI00
aI00
as(g49
g49
tp2025
(lp2026
I00
aI00
aI00
as(g30
g27
tp2027
(lp2028
I00
aI00
aI00
as(g11
g11
tp2029
(lp2030
I00
aI00
aI00
as(g10
g18
tp2031
(lp2032
I00
aI00
aI00
as(g27
g18
tp2033
(lp2034
I00
aI00
aI00
as(g42
g11
tp2035
(lp2036
I00
aI00
aI00
as(g50
g21
tp2037
(lp2038
I00
aI00
aI00
as(g18
g27
tp2039
(lp2040
I00
aI00
aI00
as(g53
g18
tp2041
(lp2042
I00
aI00
aI00
as(g15
g60
tp2043
(lp2044
I00
aI00
aI00
as(g27
g11
tp2045
(lp2046
I00
aI00
aI00
as(g21
g18
tp2047
(lp2048
I00
aI00
aI00
as(g18
g22
tp2049
(lp2050
I00
aI00
aI00
as(g50
g27
tp2051
(lp2052
I00
aI00
aI00
as(g42
g10
tp2053
(lp2054
g1741
(g1995
S'\x00'
p2055
tp2056
Rp2057
aI00
aI00
as(g35
g30
tp2058
(lp2059
I00
aI00
aI00
as(g49
g18
tp2060
(lp2061
I00
aI00
aI00
as(g12
g53
tp2062
(lp2063
I00
aI00
aI00
as(g60
g30
tp2064
(lp2065
I00
aI00
aI00
as(g10
g22
tp2066
(lp2067
I00
aI00
aI00
as(g49
g42
tp2068
(lp2069
I00
aI00
aI00
as(g18
g35
tp2070
(lp2071
I00
aI00
aI00
as(g10
g35
tp2072
(lp2073
I00
aI00
aI00
as(g22
g22
tp2074
(lp2075
I00
aI00
aI00
as(g12
g21
tp2076
(lp2077
I00
aI00
aI00
as(g53
g11
tp2078
(lp2079
I00
aI00
aI00
as(g35
g50
tp2080
(lp2081
I00
aI00
aI00
as(g10
g10
tp2082
(lp2083
I00
aI00
aI00
as(g11
g50
tp2084
(lp2085
I00
aI00
aI00
as(g53
g60
tp2086
(lp2087
I00
aI00
aI00
as(g21
g15
tp2088
(lp2089
I00
aI00
aI00
as(g30
g49
tp2090
(lp2091
I00
aI00
aI00
as(g42
g49
tp2092
(lp2093
I00
aI00
aI00
as(g11
g42
tp2094
(lp2095
I00
aI00
aI00
as(g10
g60
tp2096
(lp2097
I00
aI00
aI00
as(g18
g49
tp2098
(lp2099
I00
aI00
aI00
as(g60
g15
tp2100
(lp2101
I00
aI00
aI00
as(g27
g15
tp2102
(lp2103
I00
aI00
aI00
as(g10
g15
tp2104
(lp2105
I00
aI00
aI00
as(g30
g21
tp2106
(lp2107
I00
aI00
aI00
as(g10
g21
tp2108
(lp2109
I00
aI00
aI00
as(g22
g27
tp2110
(lp2111
I00
aI00
aI00
as(g27
g35
tp2112
(lp2113
I00
aI00
aI00
as(g63
g22
tp2114
(lp2115
I00
aI00
aI00
as(g12
g11
tp2116
(lp2117
I00
aI00
aI00
as(g50
g60
tp2118
(lp2119
I00
aI00
aI00
as(g35
g18
tp2120
(lp2121
I00
aI00
aI00
as(g35
g42
tp2122
(lp2123
I00
aI00
aI00
as(g22
g50
tp2124
(lp2125
I00
aI00
aI00
as(g53
g50
tp2126
(lp2127
I00
aI00
aI00
as(g63
g27
tp2128
(lp2129
I00
aI00
aI00
as(g21
g50
tp2130
(lp2131
I00
aI00
aI00
as(g60
g18
tp2132
(lp2133
I00
aI00
aI00
as(g42
g60
tp2134
(lp2135
I00
aI00
aI00
as(g27
g12
tp2136
(lp2137
I00
aI00
aI00
as(g18
g42
tp2138
(lp2139
I00
aI00
aI00
as(g12
g15
tp2140
(lp2141
I00
aI00
aI00
as(g15
g10
tp2142
(lp2143
g2057
aI00
aI00
as(g63
g12
tp2144
(lp2145
I00
aI00
aI01
as(g63
g10
tp2146
(lp2147
g2000
aI00
aI00
as(g27
g63
tp2148
(lp2149
I00
aI00
aI00
as(g42
g30
tp2150
(lp2151
I00
aI00
aI00
as(g12
g42
tp2152
(lp2153
I00
aI00
aI00
as(g30
g60
tp2154
(lp2155
I00
aI00
aI00
as(g15
g21
tp2156
(lp2157
I00
aI00
aI00
as(g53
g63
tp2158
(lp2159
I00
aI00
aI00
as(g15
g53
tp2160
(lp2161
I00
aI00
aI00
as(g21
g63
tp2162
(lp2163
I00
aI00
aI00
as(g63
g15
tp2164
(lp2165
I00
aI00
aI00
as(g50
g35
tp2166
(lp2167
I00
aI00
aI00
as(g50
g22
tp2168
(lp2169
I00
aI00
aI00
as(g35
g11
tp2170
(lp2171
I00
aI00
aI00
as(g35
g49
tp2172
(lp2173
I00
aI00
aI00
as(g49
g63
tp2174
(lp2175
I00
aI00
aI00
as(g22
g60
tp2176
(lp2177
I00
aI00
aI00
as(g53
g42
tp2178
(lp2179
I00
aI00
aI00
as(g22
g35
tp2180
(lp2181
I00
aI00
aI00
as(g60
g50
tp2182
(lp2183
I00
aI00
aI00
as(g60
g11
tp2184
(lp2185
I00
aI00
aI00
as(g42
g50
tp2186
(lp2187
I00
aI00
aI00
as(g18
g50
tp2188
(lp2189
I00
aI00
aI00
as(g49
g15
tp2190
(lp2191
I00
aI00
aI00
as(g50
g10
tp2192
(lp2193
g2057
aI00
aI00
as(g21
g12
tp2194
(lp2195
I00
aI00
aI01
as(g30
g30
tp2196
(lp2197
I00
aI00
aI00
as(g11
g49
tp2198
(lp2199
I00
aI00
aI00
as(g49
g12
tp2200
(lp2201
I00
aI00
aI01
as(g53
g30
tp2202
(lp2203
I00
aI00
aI00
as(g22
g30
tp2204
(lp2205
I00
aI00
aI00
as(g27
g21
tp2206
(lp2207
I00
aI00
aI00
as(g21
g27
tp2208
(lp2209
I00
aI00
aI00
as(g30
g35
tp2210
(lp2211
I00
aI00
aI00
as(g35
g21
tp2212
(lp2213
I00
aI00
aI00
as(g49
g27
tp2214
(lp2215
I00
aI00
aI00
as(g22
g49
tp2216
(lp2217
I00
aI00
aI00
as(g12
g50
tp2218
(lp2219
I00
aI00
aI00
as(g60
g42
tp2220
(lp2221
I00
aI00
aI00
as(g60
g21
tp2222
(lp2223
I00
aI00
aI00
as(g30
g53
tp2224
(lp2225
I00
aI00
aI00
as(g10
g42
tp2226
(lp2227
I00
aI00
aI00
as(g49
g50
tp2228
(lp2229
I00
aI00
aI00
as(g11
g27
tp2230
(lp2231
I00
aI00
aI00
as(g42
g27
tp2232
(lp2233
I00
aI00
aI00
as(g12
g35
tp2234
(lp2235
I00
aI00
aI00
as(g11
g12
tp2236
(lp2237
I00
aI00
aI00
as(g10
g27
tp2238
(lp2239
I00
aI00
aI00
as(g60
g12
tp2240
(lp2241
I00
aI00
aI00
as(g27
g22
tp2242
(lp2243
I00
aI00
aI00
as(g18
g15
tp2244
(lp2245
I00
aI00
aI00
as(g15
g15
tp2246
(lp2247
I00
aI00
aI00
as(g60
g49
tp2248
(lp2249
I00
aI00
aI00
as(g27
g49
tp2250
(lp2251
I00
aI00
aI00
as(g60
g63
tp2252
(lp2253
I00
aI00
aI00
as(g10
g30
tp2254
(lp2255
I00
aI00
aI00
as(g30
g63
tp2256
(lp2257
I00
aI00
aI00
as(g30
g22
tp2258
(lp2259
I00
aI00
aI00
as(g63
g42
tp2260
(lp2261
I00
aI00
aI00
as(g50
g49
tp2262
(lp2263
I00
aI00
aI00
as(g27
g30
tp2264
(lp2265
I00
aI00
aI00
as(g35
g22
tp2266
(lp2267
I00
aI00
aI00
as(g22
g53
tp2268
(lp2269
I00
aI00
aI00
as(g53
g15
tp2270
(lp2271
I00
aI00
aI00
as(g30
g42
tp2272
(lp2273
I00
aI00
aI00
as(g21
g53
tp2274
(lp2275
I00
aI00
aI00
as(g50
g12
tp2276
(lp2277
I00
aI00
aI00
as(g12
g49
tp2278
(lp2279
I00
aI00
aI00
as(g27
g53
tp2280
(lp2281
I00
aI00
aI00
as(g18
g10
tp2282
(lp2283
g2000
aI00
aI00
as(g12
g12
tp2284
(lp2285
I00
aI00
aI00
as(g35
g10
tp2286
(lp2287
g2000
aI00
aI00
as(g42
g21
tp2288
(lp2289
I00
aI00
aI00
as(g18
g21
tp2290
(lp2291
I00
aI00
aI00
as(g15
g50
tp2292
(lp2293
I00
aI00
aI00
as(g21
g35
tp2294
(lp2295
I00
aI00
aI00
as(g63
g50
tp2296
(lp2297
I00
aI00
aI00
as(g22
g15
tp2298
(lp2299
I00
aI00
aI00
as(g50
g42
tp2300
(lp2301
I00
aI00
aI00
as(g11
g35
tp2302
(lp2303
I00
aI00
aI00
as(g35
g60
tp2304
(lp2305
I00
aI00
aI00
as(g49
g35
tp2306
(lp2307
I00
aI00
aI00
as(g15
g27
tp2308
(lp2309
I00
aI00
aI00
as(g53
g22
tp2310
(lp2311
I00
aI00
aI00
as(g18
g12
tp2312
(lp2313
I00
aI00
aI01
as(g63
g30
tp2314
(lp2315
I00
aI00
aI00
as(g21
g22
tp2316
(lp2317
I00
aI00
aI00
as(g42
g42
tp2318
(lp2319
I00
aI00
aI00
as(g18
g53
tp2320
(lp2321
I00
aI00
aI00
as(g15
g12
tp2322
(lp2323
I00
aI00
aI00
as(g27
g10
tp2324
(lp2325
g2000
aI00
aI00
as(g60
g10
tp2326
(lp2327
g2057
aI00
aI00
as(g10
g12
tp2328
(lp2329
I00
aI00
aI00
as(g42
g35
tp2330
(lp2331
I00
aI00
aI00
as(g53
g10
tp2332
(lp2333
g2057
aI00
aI00
as(g12
g27
tp2334
(lp2335
I00
aI00
aI00
as(g18
g11
tp2336
(lp2337
I00
aI00
aI00
as(g21
g10
tp2338
(lp2339
g2000
aI00
aI00
as(g53
g21
tp2340
(lp2341
I00
aI00
aI00
as(g22
g63
tp2342
(lp2343
I00
aI00
aI00
as(g21
g21
tp2344
(lp2345
I00
aI00
aI00
as(g63
g60
tp2346
(lp2347
I00
aI00
aI00
as(g11
g15
tp2348
(lp2349
I00
aI00
aI00
as(g50
g11
tp2350
(lp2351
I00
aI00
aI00
as(g50
g50
tp2352
(lp2353
I00
aI00
aI00
as(g35
g35
tp2354
(lp2355
I00
aI00
aI00
as(g49
g21
tp2356
(lp2357
I00
aI00
aI00
as(g15
g63
tp2358
(lp2359
I00
aI00
aI00
as(g63
g63
tp2360
(lp2361
I00
aI00
aI00
as(g60
g22
tp2362
(lp2363
I00
aI00
aI00
as(g60
g35
tp2364
(lp2365
I00
aI00
aI00
as(g30
g11
tp2366
(lp2367
I00
aI00
aI00
as(g10
g50
tp2368
(lp2369
I00
aI00
aI00
as(g49
g53
tp2370
(lp2371
I00
aI00
aI00
as(g11
g10
tp2372
(lp2373
g2000
aI00
aI00
as(g11
g18
tp2374
(lp2375
I00
aI00
aI00
as(g53
g12
tp2376
(lp2377
I00
aI00
aI01
as(g22
g12
tp2378
(lp2379
I00
aI00
aI01
as(g10
g11
tp2380
(lp2381
I00
aI00
aI00
as(g27
g27
tp2382
(lp2383
I00
aI00
aI00
as(g42
g18
tp2384
(lp2385
I00
aI00
aI00
as(g12
g63
tp2386
(lp2387
I00
aI00
aI00
as(g49
g10
tp2388
(lp2389
g2057
aI00
aI00
as(g53
g27
tp2390
(lp2391
I00
aI00
aI00
as(g22
g10
tp2392
(lp2393
g2057
aI00
aI00
as(g21
g11
tp2394
(lp2395
I00
aI00
aI00
as(g11
g22
tp2396
(lp2397
I00
aI00
aI00
as(g50
g18
tp2398
(lp2399
I00
aI00
aI00
as(g21
g60
tp2400
(lp2401
I00
aI00
aI00
as(g49
g11
tp2402
(lp2403
I00
aI00
aI00
as(g11
g60
tp2404
(lp2405
I00
aI00
aI00
as(g12
g22
tp2406
(lp2407
I00
aI00
aI00
as(g60
g60
tp2408
(lp2409
I00
aI00
aI00
as(g15
g22
tp2410
(lp2411
I00
aI00
aI00
as(g27
g60
tp2412
(lp2413
I00
aI00
aI00
as(g63
g21
tp2414
(lp2415
I00
aI00
aI00
as(g49
g22
tp2416
(lp2417
I00
aI00
aI00
as(g15
g11
tp2418
(lp2419
I00
aI00
aI00
as(g11
g30
tp2420
(lp2421
I00
aI00
aI00
as(g10
g63
tp2422
(lp2423
I00
aI00
aI00
as(g30
g50
tp2424
(lp2425
I00
aI00
aI00
as(g30
g15
tp2426
(lp2427
I00
aI00
aI00
as(g12
g30
tp2428
(lp2429
I00
aI00
aI00
as(g12
g10
tp2430
(lp2431
I00
aI00
aI00
as(g11
g21
tp2432
(lp2433
I00
aI00
aI00
as(g50
g15
tp2434
(lp2435
I00
aI00
aI00
as(g22
g18
tp2436
(lp2437
I00
aI00
aI00
as(g35
g53
tp2438
(lp2439
I00
aI00
aI00
as(g11
g53
tp2440
(lp2441
I00
aI00
aI00
as(g53
g49
tp2442
(lp2443
I00
aI00
aI00
as(g63
g11
tp2444
(lp2445
I00
aI00
aI00
as(g21
g49
tp2446
(lp2447
I00
aI00
aI00
as(g42
g15
tp2448
(lp2449
I00
aI00
aI00
as(g18
g60
tp2450
(lp2451
I00
aI00
aI00
as(g12
g60
tp2452
(lp2453
I00
aI00
aI00
as(g30
g12
tp2454
(lp2455
I00
aI00
aI00
as(g30
g18
tp2456
(lp2457
I00
aI00
aI00
as(g27
g50
tp2458
(lp2459
I00
aI00
aI00
as(g10
g49
tp2460
(lp2461
I00
aI00
aI00
as(g18
g30
tp2462
(lp2463
I00
aI00
aI00
as(g15
g35
tp2464
(lp2465
I00
aI00
aI00
as(g15
g42
tp2466
(lp2467
I00
aI00
aI00
as(g63
g53
tp2468
(lp2469
I00
aI00
aI00
as(g50
g30
tp2470
(lp2471
I00
aI00
aI00
as(g42
g12
tp2472
(lp2473
I00
aI00
aI01
assS'nocollision_pick_op'
p2474
NsS'collision_place_op'
p2475
Nsg1171
(lp2476
sS'pick_in_way'
p2477
(itrajectory_representation.predicates.pick_in_way
PickInWay
p2478
(dp2479
g1167
(dp2480
sg1169
(dp2481
sg1171
(lp2482
sg1173
Nsg2
(dp2483
sg1050
(dp2484
sg1178
Nsg1184
Nsg1181
(dp2485
sg1183
I0
sg1188
I01
sg7
Nsg1185
(dp2486
sg1187
NsbsS'robot_pose'
p2487
g1057
(g1058
(I0
tp2488
g1060
tp2489
Rp2490
(I1
(I1
I3
tp2491
g1067
I00
S'\xa8\xa6o\xc2R\xcb\x10@\x9b|+m\xcc\x96\x02@:Ba\xab_,\x15@'
p2492
tp2493
bsS'collision_pick_op'
p2494
NsS'is_holding_goal_entity'
p2495
(itrajectory_representation.predicates.is_holding_goal_entity
IsHoldingGoalEntity
p2496
(dp2497
g1945
g1946
sg7
NsbsS'mc_pick_path'
p2498
(dp2499
sb.