ccopy_reg
_reconstructor
p0
(cmanipulation.problems.problem
ManipulationProblem
p1
c__builtin__
object
p2
Ntp3
Rp4
(dp5
S'goal_cleaned'
p6
(lp7
sS'start_holding'
p8
I00
sS'table_names'
p9
(lp10
S'table1'
p11
aS'table2'
p12
aS'table3'
p13
aS'table4'
p14
asS'goal_constrained'
p15
(dp16
sS'name'
p17
S'4tables32'
p18
sS'sink_names'
p19
(lp20
sS'goal_regions'
p21
(dp22
S'green5'
p23
S'table1'
p24
sS'green4'
p25
g24
sS'green7'
p26
g24
sS'green6'
p27
g24
sS'green1'
p28
g24
sS'green3'
p29
g24
sS'green2'
p30
g24
sS'green8'
p31
g24
sS'blue8'
p32
S'table3'
p33
sS'blue1'
p34
g33
sS'blue3'
p35
g33
sS'blue2'
p36
g33
sS'blue5'
p37
g33
sS'blue4'
p38
g33
sS'blue7'
p39
g33
sS'blue6'
p40
g33
ssS'goal_cooked'
p41
(lp42
sS'goal_config'
p43
NsS'stove_names'
p44
(lp45
sS'regions'
p46
(lp47
sS'goal_stackings'
p48
(dp49
sS'camera_trans'
p50
cnumpy.core.multiarray
_reconstruct
p51
(cnumpy
ndarray
p52
(I0
tp53
S'b'
p54
tp55
Rp56
(I1
(I4
I4
tp57
cnumpy
dtype
p58
(S'f8'
p59
I0
I1
tp60
Rp61
(I3
S'<'
p62
NNNI-1
I-1
I0
tp63
bI00
S'\x00\x00\x00\x00\x00\x00\xf0?\x00\x00\x00\x00\x00\x00\x00\x80\x00\x00\x00\x00\x00\x00\x00\x00\x00\x00\x00\x00\x00\x00\x00\x00\x00\x00\x00\x00\x00\x00\x00\x00\xacLX\xe8z\xb6\xeb\xbf\xff\xff\xff\xff\xff\xff\xdf?\x00\x00\x00\x00\x00\x00\x10\xc0\x00\x00\x00\x00\x00\x00\x00\x80\xff\xff\xff\xff\xff\xff\xdf\xbf\xacLX\xe8z\xb6\xeb\xbf\x00\x00\x00\x00\x00\x00\x18@\x00\x00\x00\x00\x00\x00\x00\x00\x00\x00\x00\x00\x00\x00\x00\x00\x00\x00\x00\x00\x00\x00\x00\x00\x00\x00\x00\x00\x00\x00\xf0?'
p64
tp65
bsS'object_names'
p66
(lp67
S'red1'
p68
aS'red2'
p69
aS'red3'
p70
aS'red4'
p71
aS'red5'
p72
aS'red6'
p73
aS'red7'
p74
aS'red8'
p75
aS'red9'
p76
aS'red10'
p77
aS'red11'
p78
aS'red12'
p79
aS'red13'
p80
aS'red14'
p81
aS'red15'
p82
aS'red16'
p83
aS'green1'
p84
aS'green2'
p85
aS'green3'
p86
aS'green4'
p87
aS'green5'
p88
aS'green6'
p89
aS'green7'
p90
aS'green8'
p91
aS'blue1'
p92
aS'blue2'
p93
aS'blue3'
p94
aS'blue4'
p95
aS'blue5'
p96
aS'blue6'
p97
aS'blue7'
p98
aS'blue8'
p99
asS'goal_poses'
p100
(dp101
sS'start_stackings'
p102
(dp103
sS'goal_holding'
p104
NsS'floor_object_names'
p105
(lp106
sS'start_constrained'
p107
(dp108
sS'env_file'
p109
S'4tables32.dae'
p110
sb.