ccopy_reg
_reconstructor
p0
(cmanipulation.problems.problem
ManipulationProblem
p1
c__builtin__
object
p2
Ntp3
Rp4
(dp5
S'start_holding'
p6
I00
sS'table_names'
p7
(lp8
S'table1'
p9
aS'table2'
p10
aS'table3'
p11
aS'table4'
p12
asS'name'
p13
S'4tables2'
p14
sS'goal_regions'
p15
(dp16
S'green_box4'
p17
g9
sS'green_box1'
p18
g9
sS'green_box3'
p19
g9
sS'green_box2'
p20
g9
sS'blue_box1'
p21
g11
sS'blue_box3'
p22
g11
sS'blue_box2'
p23
g11
sS'blue_box4'
p24
g11
ssS'goal_config'
p25
NsS'regions'
p26
(lp27
sS'goal_stackings'
p28
(dp29
sS'object_names'
p30
(lp31
S'red_box1'
p32
aS'red_box2'
p33
aS'red_box3'
p34
aS'red_box4'
p35
aS'red_box5'
p36
aS'red_box6'
p37
aS'red_box7'
p38
aS'red_box8'
p39
aS'green_box1'
p40
aS'green_box2'
p41
aS'green_box3'
p42
aS'green_box4'
p43
aS'blue_box1'
p44
aS'blue_box2'
p45
aS'blue_box3'
p46
aS'blue_box4'
p47
asS'goal_poses'
p48
(dp49
sS'start_stackings'
p50
(dp51
sS'env_file'
p52
S'4tables2.dae'
p53
sb.
