ccopy_reg
_reconstructor
p0
(cmanipulation.problems.problem
ManipulationProblem
p1
c__builtin__
object
p2
Ntp3
Rp4
(dp5
S'start_holding'
p6
I00
sS'table_names'
p7
(lp8
S'table1'
p9
aS'table2'
p10
aS'table3'
p11
aS'table4'
p12
asS'name'
p13
S'test'
p14
sS'goal_regions'
p15
(dp16
S'green4'
p17
g9
sS'green1'
p18
g9
sS'green3'
p19
g9
sS'green2'
p20
g9
sS'blue1'
p21
g11
sS'blue3'
p22
g11
sS'blue2'
p23
g11
sS'blue4'
p24
g11
ssS'goal_config'
p25
NsS'regions'
p26
(lp27
sS'goal_stackings'
p28
(dp29
sS'object_names'
p30
(lp31
S'red1'
p32
aS'red2'
p33
aS'red3'
p34
aS'red4'
p35
aS'red5'
p36
aS'red6'
p37
aS'red7'
p38
aS'red8'
p39
aS'green1'
p40
aS'green2'
p41
aS'green3'
p42
aS'green4'
p43
aS'blue1'
p44
aS'blue2'
p45
aS'blue3'
p46
aS'blue4'
p47
asS'goal_poses'
p48
(dp49
sS'start_stackings'
p50
(dp51
sS'env_file'
p52
S'4tables3.dae'
p53
sb.
