ccopy_reg
_reconstructor
p0
(c__main__
ManipulationProblem
p1
c__builtin__
object
p2
Ntp3
Rp4
(dp5
S'goal_cleaned'
p6
(lp7
sS'start_holding'
p8
I00
sS'table_names'
p9
(lp10
S'table2'
p11
aS'table3'
p12
aS'table1'
p13
asS'name'
p14
S'blocks_row'
p15
sS'sink_names'
p16
(lp17
sS'goal_regions'
p18
(dp19
S'objTarget'
p20
S'goal'
p21
ssS'goal_cooked'
p22
(lp23
sS'goal_config'
p24
NsS'stove_names'
p25
(lp26
sS'regions'
p27
(lp28
g0
(cmanipulation.regions
AARegion
p29
g2
Ntp30
Rp31
(dp32
S'box'
p33
cnumpy.core.multiarray
_reconstruct
p34
(cnumpy
ndarray
p35
(I0
tp36
S'b'
p37
tp38
Rp39
(I1
(I2
I2
tp40
cnumpy
dtype
p41
(S'f8'
p42
I0
I1
tp43
Rp44
(I3
S'<'
p45
NNNI-1
I-1
I0
tp46
bI00
S'\x00\x00\x80\xf0\xff\xff\xfb\xbf\x00\x00\x80\xef\xff\xff\xf7\xbf\x00\x00\x00\x04\x00\x00\xd0\xbf\x00\x00\x00\x04\x00\x00\xd0?'
p47
tp48
bsS'color'
p49
(F0.0
F0.5019607843137255
F0.0
F0.5
tp50
sS'z'
p51
cnumpy.core.multiarray
scalar
p52
(g44
S'\xe2X\x17\xb7\xd1\x00\xe8?'
p53
tp54
Rp55
sg14
g21
sS'draw_handle'
p56
NsbasS'goal_stackings'
p57
(dp58
sS'object_names'
p59
(lp60
g20
aS'obj20'
p61
aS'obj21'
p62
aS'obj22'
p63
aS'obj23'
p64
aS'obj24'
p65
aS'obj25'
p66
aS'obj26'
p67
aS'obj27'
p68
aS'obj28'
p69
aS'objBlock2'
p70
aS'objBlock1'
p71
aS'obj1'
p72
aS'obj3'
p73
aS'obj2'
p74
aS'obj5'
p75
aS'obj4'
p76
aS'obj7'
p77
aS'obj6'
p78
aS'obj9'
p79
aS'obj8'
p80
aS'obj19'
p81
aS'obj18'
p82
aS'obj11'
p83
aS'obj10'
p84
aS'obj13'
p85
aS'obj12'
p86
aS'obj15'
p87
aS'obj14'
p88
aS'obj17'
p89
aS'obj16'
p90
asS'goal_poses'
p91
(dp92
sS'start_stackings'
p93
(dp94
sS'goal_holding'
p95
NsS'floor_object_names'
p96
(lp97
sS'env_file'
p98
S'blocks_row.dae'
p99
sb.