ccopy_reg
_reconstructor
p0
(c__main__
ManipulationProblem
p1
c__builtin__
object
p2
Ntp3
Rp4
(dp5
S'goal_cleaned'
p6
(lp7
S'objA1'
p8
aS'objB1'
p9
aS'objC1'
p10
asS'start_holding'
p11
I00
sS'table_names'
p12
(lp13
S'table1'
p14
aS'table4'
p15
asS'name'
p16
S'clean'
p17
sS'sink_names'
p18
(lp19
S'dishwasher'
p20
asS'goal_regions'
p21
(dp22
g8
S'bin1'
p23
sS'objA2'
p24
S'bin2'
p25
sg9
g23
sS'objB2'
p26
g25
sS'objC2'
p27
g25
sg10
g23
ssS'goal_cooked'
p28
(lp29
sS'goal_config'
p30
NsS'stove_names'
p31
(lp32
sS'regions'
p33
(lp34
g0
(cmanipulation.regions
AARegion
p35
g2
Ntp36
Rp37
(dp38
S'box'
p39
cnumpy.core.multiarray
_reconstruct
p40
(cnumpy
ndarray
p41
(I0
tp42
S'b'
p43
tp44
Rp45
(I1
(I2
I2
tp46
cnumpy
dtype
p47
(S'f8'
p48
I0
I1
tp49
Rp50
(I3
S'<'
p51
NNNI-1
I-1
I0
tp52
bI00
S'\x00\x00\x00\xfa\xff\xff\xf9\xbf\x00\x00\x00\xf6\xff\xff\xf3\xbf\x00\x00\x00\x06\x00\x00\xe8\xbf\x00\x00\x00\x04\x00\x00\xd0\xbf'
p53
tp54
bsS'color'
p55
(F1.0
F1.0
F0.0
F0.5
tp56
sS'z'
p57
cnumpy.core.multiarray
scalar
p58
(g50
S'\xe2X\x17\xb7\xd1\x00\xe8?'
p59
tp60
Rp61
sg16
g23
sS'draw_handle'
p62
Nsbag0
(g35
g2
Ntp63
Rp64
(dp65
g39
g40
(g41
(I0
tp66
g43
tp67
Rp68
(I1
(I2
I2
tp69
g50
I00
S'\x00\x00\x00\xfa\xff\xff\xf9\xbf\x00\x00\x00\xf6\xff\xff\xf3\xbf\x00\x00\x00\x04\x00\x00\xd0\xbf\x00\x00\x00\x04\x00\x00\xd0?'
p70
tp71
bsg55
(F0.6901960784313725
F0.18823529411764706
F0.3764705882352941
F0.5
tp72
sg57
g58
(g50
S'\xe2X\x17\xb7\xd1\x00\xe8?'
p73
tp74
Rp75
sg16
g25
sg62
NsbasS'goal_stackings'
p76
(dp77
sS'object_names'
p78
(lp79
S'objG'
p80
ag8
ag24
ag9
ag26
aS'objE'
p81
ag27
ag10
aS'objF'
p82
aS'objI'
p83
aS'objH'
p84
aS'objD'
p85
asS'goal_poses'
p86
(dp87
sS'start_stackings'
p88
(dp89
sS'goal_holding'
p90
NsS'floor_object_names'
p91
(lp92
sS'env_file'
p93
S'clean.dae'
p94
sb.