ccopy_reg
_reconstructor
p0
(c__main__
ManipulationProblem
p1
c__builtin__
object
p2
Ntp3
Rp4
(dp5
S'goal_cleaned'
p6
(lp7
S'objA1'
p8
aS'objB1'
p9
asS'start_holding'
p10
I00
sS'table_names'
p11
(lp12
S'table1'
p13
aS'table4'
p14
asS'name'
p15
S'cook'
p16
sS'sink_names'
p17
(lp18
S'dishwasher'
p19
asS'goal_regions'
p20
(dp21
g8
S'plate'
p22
sg9
g22
sS'objB2'
p23
g22
sS'objA2'
p24
g22
ssS'goal_cooked'
p25
(lp26
g24
ag23
asS'goal_config'
p27
NsS'stove_names'
p28
(lp29
S'stove'
p30
asS'regions'
p31
(lp32
g0
(cmanipulation.regions
AARegion
p33
g2
Ntp34
Rp35
(dp36
S'box'
p37
cnumpy.core.multiarray
_reconstruct
p38
(cnumpy
ndarray
p39
(I0
tp40
S'b'
p41
tp42
Rp43
(I1
(I2
I2
tp44
cnumpy
dtype
p45
(S'f8'
p46
I0
I1
tp47
Rp48
(I3
S'<'
p49
NNNI-1
I-1
I0
tp50
bI00
S'\x00\x00\x00\xf6\xff\xff\xf3?\x00\x00\x00\xfa\xff\xff\xf9?\x00\x00\x00\x00\x00\x00\xd4\xbf\x00\x00\x00\x00\x00\x00\xd4?'
p51
tp52
bsS'color'
p53
(F0.0
F0.0
F1.0
F0.5
tp54
sS'z'
p55
cnumpy.core.multiarray
scalar
p56
(g48
S'\xe2X\x17\xb7\xd1\x00\xe8?'
p57
tp58
Rp59
sg15
g22
sS'draw_handle'
p60
NsbasS'goal_stackings'
p61
(dp62
sS'object_names'
p63
(lp64
g8
ag24
ag9
ag23
aS'objE'
p65
aS'objD'
p66
aS'objG'
p67
aS'objF'
p68
aS'objI'
p69
aS'objH'
p70
asS'goal_poses'
p71
(dp72
sS'start_stackings'
p73
(dp74
sS'goal_holding'
p75
NsS'floor_object_names'
p76
(lp77
sS'env_file'
p78
S'cook.dae'
p79
sb.