ccopy_reg
_reconstructor
p0
(c__main__
ManipulationProblem
p1
c__builtin__
object
p2
Ntp3
Rp4
(dp5
S'goal_cleaned'
p6
(lp7
sS'start_holding'
p8
I00
sS'table_names'
p9
(lp10
S'table2'
p11
aS'table1'
p12
asS'name'
p13
S'dig'
p14
sS'sink_names'
p15
(lp16
sS'goal_regions'
p17
(dp18
S'objA'
p19
S'middle'
p20
ssS'goal_cooked'
p21
(lp22
sS'goal_config'
p23
NsS'stove_names'
p24
(lp25
sS'regions'
p26
(lp27
g0
(cmanipulation.regions
AARegion
p28
g2
Ntp29
Rp30
(dp31
S'box'
p32
cnumpy.core.multiarray
_reconstruct
p33
(cnumpy
ndarray
p34
(I0
tp35
S'b'
p36
tp37
Rp38
(I1
(I2
I2
tp39
cnumpy
dtype
p40
(S'f8'
p41
I0
I1
tp42
Rp43
(I3
S'<'
p44
NNNI-1
I-1
I0
tp45
bI00
S'\x00\x00\x00\x0c\x00\x00\xec?\x00\x00\x00\n\x00\x00\xf4?\x00\x00\x00\x10\x00\x00\xc8\xbf\x00\x00\x00\x10\x00\x00\xc8?'
p46
tp47
bsS'color'
p48
(F0.0
F0.0
F1.0
F0.5
tp49
sS'z'
p50
cnumpy.core.multiarray
scalar
p51
(g43
S'\xe2X\x17\xb7\xd1\x00\xe8?'
p52
tp53
Rp54
sg13
g20
sS'draw_handle'
p55
NsbasS'goal_stackings'
p56
(dp57
sS'object_names'
p58
(lp59
S'sideD'
p60
aS'sideB'
p61
aS'sideC'
p62
aS'sideA'
p63
ag19
aS'objC'
p64
aS'objB'
p65
aS'objE'
p66
aS'objD'
p67
aS'objG'
p68
aS'objF'
p69
aS'objI'
p70
aS'objH'
p71
asS'goal_poses'
p72
(dp73
sS'start_stackings'
p74
(dp75
sS'goal_holding'
p76
NsS'floor_object_names'
p77
(lp78
sS'env_file'
p79
S'dig.dae'
p80
sb.