ccopy_reg
_reconstructor
p0
(c__main__
ManipulationProblem
p1
c__builtin__
object
p2
Ntp3
Rp4
(dp5
S'goal_cleaned'
p6
(lp7
sS'start_holding'
p8
I00
sS'table_names'
p9
(lp10
S'table2'
p11
aS'table1'
p12
asS'name'
p13
S'invert'
p14
sS'sink_names'
p15
(lp16
sS'goal_regions'
p17
(dp18
S'objA'
p19
S'front'
p20
sS'objB'
p21
S'back'
p22
ssS'goal_cooked'
p23
(lp24
sS'goal_config'
p25
NsS'stove_names'
p26
(lp27
sS'regions'
p28
(lp29
g0
(cmanipulation.regions
AARegion
p30
g2
Ntp31
Rp32
(dp33
S'box'
p34
cnumpy.core.multiarray
_reconstruct
p35
(cnumpy
ndarray
p36
(I0
tp37
S'b'
p38
tp39
Rp40
(I1
(I2
I2
tp41
cnumpy
dtype
p42
(S'f8'
p43
I0
I1
tp44
Rp45
(I3
S'<'
p46
NNNI-1
I-1
I0
tp47
bI00
S'\x00\x00\xc0\x07\x00\x00\xf0?\x00\x00@\x08\x00\x00\xf2?\x00\x00\x00\x10\x00\x00\xc8\xbf\x00\x00\x00\x10\x00\x00\xc8?'
p48
tp49
bsS'color'
p50
(F0.0
F0.5019607843137255
F0.0
F0.5
tp51
sS'z'
p52
cnumpy.core.multiarray
scalar
p53
(g45
S'\xe2X\x17\xb7\xd1\x00\xe8?'
p54
tp55
Rp56
sg13
g22
sS'draw_handle'
p57
Nsbag0
(g30
g2
Ntp58
Rp59
(dp60
g34
g35
(g36
(I0
tp61
g38
tp62
Rp63
(I1
(I2
I2
tp64
g45
I00
S'\x00\x00\x80\xff\xff\xff\xeb?\x00\x00@\x00\x00\x00\xf0?\x00\x00\x00\x10\x00\x00\xc8\xbf\x00\x00\x00\x10\x00\x00\xc8?'
p65
tp66
bsg50
(F1.0
F1.0
F0.0
F0.5
tp67
sg52
g53
(g45
S'\xe2X\x17\xb7\xd1\x00\xe8?'
p68
tp69
Rp70
sg13
g20
sg57
NsbasS'goal_stackings'
p71
(dp72
sS'object_names'
p73
(lp74
S'sideD'
p75
aS'sideB'
p76
aS'sideC'
p77
aS'sideA'
p78
ag19
aS'objC'
p79
ag21
aS'objE'
p80
aS'objD'
p81
aS'objG'
p82
aS'objF'
p83
aS'objI'
p84
aS'objH'
p85
aS'objJ'
p86
asS'goal_poses'
p87
(dp88
sS'start_stackings'
p89
(dp90
sS'goal_holding'
p91
NsS'floor_object_names'
p92
(lp93
sS'env_file'
p94
S'invert.dae'
p95
sb.