ccopy_reg
_reconstructor
p0
(c__main__
ManipulationProblem
p1
c__builtin__
object
p2
Ntp3
Rp4
(dp5
S'goal_cleaned'
p6
(lp7
sS'start_holding'
p8
I00
sS'table_names'
p9
(lp10
S'table2'
p11
aS'table1'
p12
asS'name'
p13
S'move_distractions'
p14
sS'sink_names'
p15
(lp16
sS'goal_regions'
p17
(dp18
S'objB'
p19
S'left'
p20
ssS'goal_cooked'
p21
(lp22
sS'goal_config'
p23
NsS'stove_names'
p24
(lp25
sS'regions'
p26
(lp27
g0
(cmanipulation.regions
AARegion
p28
g2
Ntp29
Rp30
(dp31
S'box'
p32
cnumpy.core.multiarray
_reconstruct
p33
(cnumpy
ndarray
p34
(I0
tp35
S'b'
p36
tp37
Rp38
(I1
(I2
I2
tp39
cnumpy
dtype
p40
(S'f8'
p41
I0
I1
tp42
Rp43
(I3
S'<'
p44
NNNI-1
I-1
I0
tp45
bI00
S'\x00\x00\x00\x0c\x00\x00\xec?\x00\x00\x00\n\x00\x00\xf4?\x00\x00\x00\xe8\xff\xff\xc7?\x00\x00\x00\xfe\xff\xff\xe5?'
p46
tp47
bsS'color'
p48
(F0.5019607843137255
F0.0
F0.5019607843137255
F0.5
tp49
sS'z'
p50
cnumpy.core.multiarray
scalar
p51
(g43
S'\xe2X\x17\xb7\xd1\x00\xe8?'
p52
tp53
Rp54
sg13
g20
sS'draw_handle'
p55
NsbasS'goal_stackings'
p56
(dp57
sS'object_names'
p58
(lp59
S'sideD'
p60
aS'sideB'
p61
aS'sideC'
p62
aS'sideA'
p63
aS'objA'
p64
aS'objC'
p65
ag19
aS'objE'
p66
aS'objD'
p67
aS'objG'
p68
aS'objF'
p69
aS'objH'
p70
asS'goal_poses'
p71
(dp72
sS'start_stackings'
p73
(dp74
sS'goal_holding'
p75
NsS'floor_object_names'
p76
(lp77
sS'env_file'
p78
S'move_distractions.dae'
p79
sb.