ccopy_reg
_reconstructor
p0
(c__main__
ManipulationProblem
p1
c__builtin__
object
p2
Ntp3
Rp4
(dp5
S'goal_cleaned'
p6
(lp7
sS'start_holding'
p8
I00
sS'table_names'
p9
(lp10
S'table1'
p11
asS'name'
p12
S'move'
p13
sS'sink_names'
p14
(lp15
sS'goal_regions'
p16
(dp17
S'objB'
p18
S'left'
p19
ssS'goal_cooked'
p20
(lp21
sS'goal_config'
p22
NsS'stove_names'
p23
(lp24
sS'regions'
p25
(lp26
g0
(cmanipulation.regions
AARegion
p27
g2
Ntp28
Rp29
(dp30
S'box'
p31
cnumpy.core.multiarray
_reconstruct
p32
(cnumpy
ndarray
p33
(I0
tp34
S'b'
p35
tp36
Rp37
(I1
(I2
I2
tp38
cnumpy
dtype
p39
(S'f8'
p40
I0
I1
tp41
Rp42
(I3
S'<'
p43
NNNI-1
I-1
I0
tp44
bI00
S'\x00\x00\x00\x0c\x00\x00\xec?\x00\x00\x00\n\x00\x00\xf4?\x00\x00\x00\xe8\xff\xff\xc7?\x00\x00\x00\xfe\xff\xff\xe5?'
p45
tp46
bsS'color'
p47
(F1.0
F1.0
F0.0
F0.5
tp48
sS'z'
p49
cnumpy.core.multiarray
scalar
p50
(g42
S'\xe2X\x17\xb7\xd1\x00\xe8?'
p51
tp52
Rp53
sg12
g19
sS'draw_handle'
p54
NsbasS'goal_stackings'
p55
(dp56
sS'object_names'
p57
(lp58
S'objA'
p59
ag18
asS'goal_poses'
p60
(dp61
sS'start_stackings'
p62
(dp63
sS'goal_holding'
p64
NsS'floor_object_names'
p65
(lp66
sS'env_file'
p67
S'move.dae'
p68
sb.