ccopy_reg
_reconstructor
p0
(c__main__
ManipulationProblem
p1
c__builtin__
object
p2
Ntp3
Rp4
(dp5
S'goal_cleaned'
p6
(lp7
sS'start_holding'
p8
I00
sS'table_names'
p9
(lp10
S'table2'
p11
aS'table3'
p12
aS'table1'
p13
aS'table4'
p14
asS'name'
p15
S'organize'
p16
sS'sink_names'
p17
(lp18
sS'goal_regions'
p19
(dp20
S'objA1'
p21
S'bin1'
p22
sS'objA3'
p23
S'bin3'
p24
sS'objA2'
p25
S'bin2'
p26
sS'objB1'
p27
g22
sS'objB2'
p28
g26
sS'objB3'
p29
g24
sS'objC3'
p30
g24
sS'objC2'
p31
g26
sS'objC1'
p32
g22
ssS'goal_cooked'
p33
(lp34
sS'goal_config'
p35
NsS'stove_names'
p36
(lp37
sS'regions'
p38
(lp39
g0
(cmanipulation.regions
AARegion
p40
g2
Ntp41
Rp42
(dp43
S'box'
p44
cnumpy.core.multiarray
_reconstruct
p45
(cnumpy
ndarray
p46
(I0
tp47
S'b'
p48
tp49
Rp50
(I1
(I2
I2
tp51
cnumpy
dtype
p52
(S'f8'
p53
I0
I1
tp54
Rp55
(I3
S'<'
p56
NNNI-1
I-1
I0
tp57
bI00
S'\x00\x00\x00\xfa\xff\xff\xf9\xbf\x00\x00\x00\xf6\xff\xff\xf3\xbf\x00\x00\x00\x06\x00\x00\xe8\xbf\x00\x00\x00\x04\x00\x00\xd0\xbf'
p58
tp59
bsS'color'
p60
(F0.5019607843137255
F0.0
F0.5019607843137255
F0.5
tp61
sS'z'
p62
cnumpy.core.multiarray
scalar
p63
(g55
S'\xe2X\x17\xb7\xd1\x00\xe8?'
p64
tp65
Rp66
sg15
g22
sS'draw_handle'
p67
Nsbag0
(g40
g2
Ntp68
Rp69
(dp70
g44
g45
(g46
(I0
tp71
g48
tp72
Rp73
(I1
(I2
I2
tp74
g55
I00
S'\x00\x00\x00\xfa\xff\xff\xf9\xbf\x00\x00\x00\xf6\xff\xff\xf3\xbf\x00\x00\x00\x04\x00\x00\xd0?\x00\x00\x00\x06\x00\x00\xe8?'
p75
tp76
bsg60
(F0.6901960784313725
F0.18823529411764706
F0.3764705882352941
F0.5
tp77
sg62
g63
(g55
S'\xe2X\x17\xb7\xd1\x00\xe8?'
p78
tp79
Rp80
sg15
g24
sg67
Nsbag0
(g40
g2
Ntp81
Rp82
(dp83
g44
g45
(g46
(I0
tp84
g48
tp85
Rp86
(I1
(I2
I2
tp87
g55
I00
S'\x00\x00\x00\xfa\xff\xff\xf9\xbf\x00\x00\x00\xf6\xff\xff\xf3\xbf\x00\x00\x00\x04\x00\x00\xd0\xbf\x00\x00\x00\x04\x00\x00\xd0?'
p88
tp89
bsg60
(F0.0
F1.0
F1.0
F0.5
tp90
sg62
g63
(g55
S'\xe2X\x17\xb7\xd1\x00\xe8?'
p91
tp92
Rp93
sg15
g26
sg67
NsbasS'goal_stackings'
p94
(dp95
sS'object_names'
p96
(lp97
g30
ag31
ag32
aS'objQ'
p98
aS'objP'
p99
aS'objS'
p100
aS'objR'
p101
ag21
ag23
ag25
aS'objE'
p102
aS'objD'
p103
aS'objG'
p104
aS'objF'
p105
aS'objI'
p106
aS'objH'
p107
aS'objK'
p108
aS'objJ'
p109
aS'objM'
p110
aS'objL'
p111
aS'objO'
p112
aS'objN'
p113
ag27
ag28
ag29
asS'goal_poses'
p114
(dp115
sS'start_stackings'
p116
(dp117
sS'goal_holding'
p118
NsS'floor_object_names'
p119
(lp120
sS'env_file'
p121
S'organize.dae'
p122
sb.