ccopy_reg
_reconstructor
p0
(c__main__
ManipulationProblem
p1
c__builtin__
object
p2
Ntp3
Rp4
(dp5
S'goal_cleaned'
p6
(lp7
sS'start_holding'
p8
I00
sS'table_names'
p9
(lp10
S'table2'
p11
aS'table1'
p12
asS'name'
p13
S'panel'
p14
sS'sink_names'
p15
(lp16
sS'goal_regions'
p17
(dp18
S'objA'
p19
S'middle'
p20
sS'objE'
p21
g20
ssS'goal_cooked'
p22
(lp23
sS'goal_config'
p24
NsS'stove_names'
p25
(lp26
sS'regions'
p27
(lp28
g0
(cmanipulation.regions
AARegion
p29
g2
Ntp30
Rp31
(dp32
S'box'
p33
cnumpy.core.multiarray
_reconstruct
p34
(cnumpy
ndarray
p35
(I0
tp36
S'b'
p37
tp38
Rp39
(I1
(I2
I2
tp40
cnumpy
dtype
p41
(S'f8'
p42
I0
I1
tp43
Rp44
(I3
S'<'
p45
NNNI-1
I-1
I0
tp46
bI00
S'\x00\x00\x00\x0c\x00\x00\xec?\x00\x00\x00\n\x00\x00\xf4?\x00\x00\x00\x10\x00\x00\xc8\xbf\x00\x00\x00\x10\x00\x00\xc8?'
p47
tp48
bsS'color'
p49
(F0.0
F0.0
F1.0
F0.5
tp50
sS'z'
p51
cnumpy.core.multiarray
scalar
p52
(g44
S'\xe2X\x17\xb7\xd1\x00\xe8?'
p53
tp54
Rp55
sg13
g20
sS'draw_handle'
p56
NsbasS'goal_stackings'
p57
(dp58
sS'object_names'
p59
(lp60
S'sideD'
p61
aS'sideB'
p62
aS'sideC'
p63
aS'sideA'
p64
ag19
aS'objC'
p65
aS'objB'
p66
ag21
aS'objD'
p67
aS'objG'
p68
aS'objF'
p69
aS'objI'
p70
aS'objH'
p71
asS'goal_poses'
p72
(dp73
sS'start_stackings'
p74
(dp75
sS'goal_holding'
p76
NsS'floor_object_names'
p77
(lp78
sS'env_file'
p79
S'panel.dae'
p80
sb.