ccopy_reg
_reconstructor
p0
(c__main__
ManipulationProblem
p1
c__builtin__
object
p2
Ntp3
Rp4
(dp5
S'goal_cleaned'
p6
(lp7
sS'start_holding'
p8
I00
sS'table_names'
p9
(lp10
S'bottom_table'
p11
aS'left_table'
p12
aS'right_table'
p13
asS'name'
p14
S'real_regrasp'
p15
sS'sink_names'
p16
(lp17
sS'goal_regions'
p18
(dp19
S'objTarget'
p20
S'goal'
p21
ssS'goal_cooked'
p22
(lp23
sS'goal_config'
p24
NsS'stove_names'
p25
(lp26
sS'regions'
p27
(lp28
g0
(cmanipulation.regions
AARegion
p29
g2
Ntp30
Rp31
(dp32
S'box'
p33
cnumpy.core.multiarray
_reconstruct
p34
(cnumpy
ndarray
p35
(I0
tp36
S'b'
p37
tp38
Rp39
(I1
(I2
I2
tp40
cnumpy
dtype
p41
(S'f8'
p42
I0
I1
tp43
Rp44
(I3
S'<'
p45
NNNI-1
I-1
I0
tp46
bI00
S'\x00\x00\x00\xf8\xff\xff\xfb\xbf\x00\x00\x00\xf0\xff\xff\xf9\xbf\x00\x00\x00\x04\x00\x00\xd0\xbf\x00\x00\x00\x04\x00\x00\xd0?'
p47
tp48
bsS'color'
p49
(F0.0
F0.5019607843137255
F0.0
F0.5
tp50
sS'z'
p51
cnumpy.core.multiarray
scalar
p52
(g44
S'\xe2X\x17\xb7\xd1\x00\xe8?'
p53
tp54
Rp55
sg14
g21
sS'draw_handle'
p56
NsbasS'goal_stackings'
p57
(dp58
sS'object_names'
p59
(lp60
g20
asS'goal_poses'
p61
(dp62
sS'start_stackings'
p63
(dp64
sS'goal_holding'
p65
NsS'floor_object_names'
p66
(lp67
sS'env_file'
p68
S'real_regrasp.dae'
p69
sb.