ccopy_reg
_reconstructor
p0
(c__main__
ManipulationProblem
p1
c__builtin__
object
p2
Ntp3
Rp4
(dp5
S'goal_cleaned'
p6
(lp7
sS'start_holding'
p8
I00
sS'table_names'
p9
(lp10
S'table1'
p11
asS'name'
p12
S'regrasp'
p13
sS'sink_names'
p14
(lp15
sS'goal_regions'
p16
(dp17
S'objA'
p18
S'middle'
p19
sS'objB'
p20
S'left'
p21
ssS'goal_cooked'
p22
(lp23
sS'goal_config'
p24
NsS'stove_names'
p25
(lp26
sS'regions'
p27
(lp28
g0
(cmanipulation.regions
AARegion
p29
g2
Ntp30
Rp31
(dp32
S'box'
p33
cnumpy.core.multiarray
_reconstruct
p34
(cnumpy
ndarray
p35
(I0
tp36
S'b'
p37
tp38
Rp39
(I1
(I2
I2
tp40
cnumpy
dtype
p41
(S'f8'
p42
I0
I1
tp43
Rp44
(I3
S'<'
p45
NNNI-1
I-1
I0
tp46
bI00
S'\x00\x00\x00\x0c\x00\x00\xec?\x00\x00\x00\n\x00\x00\xf4?\x00\x00\x00\x10\x00\x00\xc8\xbf\x00\x00\x00\x10\x00\x00\xc8?'
p47
tp48
bsS'color'
p49
(F0.0
F0.0
F1.0
F0.5
tp50
sS'z'
p51
cnumpy.core.multiarray
scalar
p52
(g44
S'\xe2X\x17\xb7\xd1\x00\xe8?'
p53
tp54
Rp55
sg12
g19
sS'draw_handle'
p56
Nsbag0
(g29
g2
Ntp57
Rp58
(dp59
g33
g34
(g35
(I0
tp60
g37
tp61
Rp62
(I1
(I2
I2
tp63
g44
I00
S'\x00\x00\x00\x0c\x00\x00\xec?\x00\x00\x00\n\x00\x00\xf4?\x00\x00\x00\xe8\xff\xff\xc7?\x00\x00\x00\xfe\xff\xff\xe5?'
p64
tp65
bsg49
(F1.0
F1.0
F0.0
F0.5
tp66
sg51
g52
(g44
S'\xe2X\x17\xb7\xd1\x00\xe8?'
p67
tp68
Rp69
sg12
g21
sg56
NsbasS'goal_stackings'
p70
(dp71
sS'object_names'
p72
(lp73
g18
ag20
asS'goal_poses'
p74
(dp75
sS'start_stackings'
p76
(dp77
sS'goal_holding'
p78
NsS'floor_object_names'
p79
(lp80
sS'env_file'
p81
S'regrasp.dae'
p82
sb.