ccopy_reg
_reconstructor
p0
(cmanipulation.problems.problem
ManipulationProblem
p1
c__builtin__
object
p2
Ntp3
Rp4
(dp5
S'goal_cleaned'
p6
(lp7
sS'start_holding'
p8
I00
sS'table_names'
p9
(lp10
S'table1'
p11
aS'table2'
p12
aS'table3'
p13
aS'table4'
p14
asS'goal_constrained'
p15
(dp16
sS'name'
p17
S'separate28'
p18
sS'sink_names'
p19
(lp20
sS'goal_regions'
p21
(dp22
S'green5'
p23
S'table1'
p24
sS'green4'
p25
g24
sS'green7'
p26
g24
sS'green6'
p27
g24
sS'green1'
p28
g24
sS'green3'
p29
g24
sS'green2'
p30
g24
sS'blue1'
p31
S'table3'
p32
sS'blue3'
p33
g32
sS'blue2'
p34
g32
sS'blue5'
p35
g32
sS'blue4'
p36
g32
sS'blue7'
p37
g32
sS'blue6'
p38
g32
ssS'goal_cooked'
p39
(lp40
sS'goal_config'
p41
NsS'stove_names'
p42
(lp43
sS'regions'
p44
(lp45
sS'goal_stackings'
p46
(dp47
sS'camera_trans'
p48
cnumpy.core.multiarray
_reconstruct
p49
(cnumpy
ndarray
p50
(I0
tp51
S'b'
p52
tp53
Rp54
(I1
(I4
I4
tp55
cnumpy
dtype
p56
(S'f8'
p57
I0
I1
tp58
Rp59
(I3
S'<'
p60
NNNI-1
I-1
I0
tp61
bI00
S'\x00\x00\x00\x00\x00\x00\xf0?\x00\x00\x00\x00\x00\x00\x00\x80\x00\x00\x00\x00\x00\x00\x00\x00\x00\x00\x00\x00\x00\x00\x00\x00\x00\x00\x00\x00\x00\x00\x00\x00\xacLX\xe8z\xb6\xeb\xbf\xff\xff\xff\xff\xff\xff\xdf?\x00\x00\x00\x00\x00\x00\x10\xc0\x00\x00\x00\x00\x00\x00\x00\x80\xff\xff\xff\xff\xff\xff\xdf\xbf\xacLX\xe8z\xb6\xeb\xbf\x00\x00\x00\x00\x00\x00\x18@\x00\x00\x00\x00\x00\x00\x00\x00\x00\x00\x00\x00\x00\x00\x00\x00\x00\x00\x00\x00\x00\x00\x00\x00\x00\x00\x00\x00\x00\x00\xf0?'
p62
tp63
bsS'object_names'
p64
(lp65
S'red1'
p66
aS'red2'
p67
aS'red3'
p68
aS'red4'
p69
aS'red5'
p70
aS'red6'
p71
aS'red7'
p72
aS'red8'
p73
aS'red9'
p74
aS'red10'
p75
aS'red11'
p76
aS'red12'
p77
aS'red13'
p78
aS'red14'
p79
aS'green1'
p80
aS'green2'
p81
aS'green3'
p82
aS'green4'
p83
aS'green5'
p84
aS'green6'
p85
aS'green7'
p86
aS'blue1'
p87
aS'blue2'
p88
aS'blue3'
p89
aS'blue4'
p90
aS'blue5'
p91
aS'blue6'
p92
aS'blue7'
p93
asS'goal_poses'
p94
(dp95
sS'start_stackings'
p96
(dp97
sS'goal_holding'
p98
NsS'floor_object_names'
p99
(lp100
sS'start_constrained'
p101
(dp102
sS'env_file'
p103
S'separate28.dae'
p104
sb.