ccopy_reg
_reconstructor
p0
(c__main__
ManipulationProblem
p1
c__builtin__
object
p2
Ntp3
Rp4
(dp5
S'goal_cleaned'
p6
(lp7
sS'start_holding'
p8
I00
sS'table_names'
p9
(lp10
S'table2'
p11
aS'table1'
p12
asS'name'
p13
S'table'
p14
sS'sink_names'
p15
(lp16
sS'goal_regions'
p17
(dp18
S'objTarget'
p19
S'small'
p20
ssS'goal_cooked'
p21
(lp22
sS'goal_config'
p23
NsS'stove_names'
p24
(lp25
sS'regions'
p26
(lp27
g0
(cmanipulation.regions
AARegion
p28
g2
Ntp29
Rp30
(dp31
S'box'
p32
cnumpy.core.multiarray
_reconstruct
p33
(cnumpy
ndarray
p34
(I0
tp35
S'b'
p36
tp37
Rp38
(I1
(I2
I2
tp39
cnumpy
dtype
p40
(S'f8'
p41
I0
I1
tp42
Rp43
(I3
S'<'
p44
NNNI-1
I-1
I0
tp45
bI00
S'\x00\x00\x00\x04\x00\x00\xea?\x00\x00\x00\x00\x00\x00\xf9?\x00\x00\x00\xf4\xff\xff\xfa\xbf\x00\x00\x00\xd8\xff\xff\xed\xbf'
p46
tp47
bsS'color'
p48
(F0.0
F0.0
F1.0
F0.5
tp49
sS'z'
p50
cnumpy.core.multiarray
scalar
p51
(g43
S'\xe2X\x17\xf7\x044\xe3?'
p52
tp53
Rp54
sg13
g20
sS'draw_handle'
p55
NsbasS'goal_stackings'
p56
(dp57
sS'object_names'
p58
(lp59
g19
aS'obj20'
p60
aS'obj21'
p61
aS'obj22'
p62
aS'obj23'
p63
aS'obj24'
p64
aS'obj25'
p65
aS'obj26'
p66
aS'obj27'
p67
aS'obj28'
p68
aS'obj29'
p69
aS'obj40'
p70
aS'obj41'
p71
aS'obj1'
p72
aS'obj3'
p73
aS'obj2'
p74
aS'obj5'
p75
aS'obj4'
p76
aS'obj7'
p77
aS'obj6'
p78
aS'obj9'
p79
aS'obj8'
p80
aS'obj37'
p81
aS'obj36'
p82
aS'obj35'
p83
aS'obj34'
p84
aS'obj33'
p85
aS'obj32'
p86
aS'obj31'
p87
aS'obj30'
p88
aS'obj39'
p89
aS'obj38'
p90
aS'obj19'
p91
aS'obj18'
p92
aS'obj11'
p93
aS'obj10'
p94
aS'obj13'
p95
aS'obj12'
p96
aS'obj15'
p97
aS'obj14'
p98
aS'obj17'
p99
aS'obj16'
p100
asS'goal_poses'
p101
(dp102
sS'start_stackings'
p103
(dp104
sS'goal_holding'
p105
NsS'floor_object_names'
p106
(lp107
sS'env_file'
p108
S'table.dae'
p109
sb.