ccopy_reg
_reconstructor
p0
(c__main__
ManipulationProblem
p1
c__builtin__
object
p2
Ntp3
Rp4
(dp5
S'goal_cleaned'
p6
(lp7
sS'start_holding'
p8
I00
sS'table_names'
p9
(lp10
S'table2'
p11
aS'table3'
p12
aS'table1'
p13
aS'table6'
p14
aS'table7'
p15
aS'table4'
p16
aS'table8'
p17
aS'table5'
p18
asS'name'
p19
S'transporter'
p20
sS'sink_names'
p21
(lp22
sS'goal_regions'
p23
(dp24
S'objA'
p25
S'bottom'
p26
sS'objC'
p27
S'left'
p28
sS'objE'
p29
S'top'
p30
sS'objG'
p31
S'bottom right'
p32
ssS'goal_cooked'
p33
(lp34
sS'goal_config'
p35
NsS'stove_names'
p36
(lp37
sS'regions'
p38
(lp39
g0
(cmanipulation.regions
AARegion
p40
g2
Ntp41
Rp42
(dp43
S'box'
p44
cnumpy.core.multiarray
_reconstruct
p45
(cnumpy
ndarray
p46
(I0
tp47
S'b'
p48
tp49
Rp50
(I1
(I2
I2
tp51
cnumpy
dtype
p52
(S'f8'
p53
I0
I1
tp54
Rp55
(I3
S'<'
p56
NNNI-1
I-1
I0
tp57
bI00
S'\x00\x00\x00\x04\x00\x00\xb0\xbf\x00\x00\x00\x04\x00\x00\xb0?\x00\x00@\x08\x00\x00\xfc\xbf\x00\x00\xc0\x07\x00\x00\xfa\xbf'
p58
tp59
bsS'color'
p60
(F0.0
F0.5019607843137255
F0.0
F0.5
tp61
sS'z'
p62
cnumpy.core.multiarray
scalar
p63
(g55
S'\xe2X\x17\xb7\xd1\x00\xe8?'
p64
tp65
Rp66
sg19
g26
sS'draw_handle'
p67
Nsbag0
(g40
g2
Ntp68
Rp69
(dp70
g44
g45
(g46
(I0
tp71
g48
tp72
Rp73
(I1
(I2
I2
tp74
g55
I00
S'\x00\x00\x00\x04\x00\x00\xb0\xbf\x00\x00\x00\x04\x00\x00\xb0?\x00\x00\xc0\x07\x00\x00\xfa?\x00\x00@\x08\x00\x00\xfc?'
p75
tp76
bsg60
(F1.0
F1.0
F0.0
F0.5
tp77
sg62
g63
(g55
S'\xe2X\x17\xb7\xd1\x00\xe8?'
p78
tp79
Rp80
sg19
g30
sg67
Nsbag0
(g40
g2
Ntp81
Rp82
(dp83
g44
g45
(g46
(I0
tp84
g48
tp85
Rp86
(I1
(I2
I2
tp87
g55
I00
S'\x00\x00\xc0\x07\x00\x00\xfa?\x00\x00@\x08\x00\x00\xfc?\x00\x00@\x08\x00\x00\xfc\xbf\x00\x00\xc0\x07\x00\x00\xfa\xbf'
p88
tp89
bsg60
(F0.5019607843137255
F0.0
F0.5019607843137255
F0.5
tp90
sg62
g63
(g55
S'\xe2X\x17\xb7\xd1\x00\xe8?'
p91
tp92
Rp93
sg19
g32
sg67
Nsbag0
(g40
g2
Ntp94
Rp95
(dp96
g44
g45
(g46
(I0
tp97
g48
tp98
Rp99
(I1
(I2
I2
tp100
g55
I00
S'\x00\x00@\x08\x00\x00\xfc\xbf\x00\x00\xc0\x07\x00\x00\xfa\xbf\x00\x00\x00\x04\x00\x00\xb0\xbf\x00\x00\x00\x04\x00\x00\xb0?'
p101
tp102
bsg60
(F1.0
F0.0
F1.0
F0.5
tp103
sg62
g63
(g55
S'\xe2X\x17\xb7\xd1\x00\xe8?'
p104
tp105
Rp106
sg19
g28
sg67
NsbasS'goal_stackings'
p107
(dp108
sS'object_names'
p109
(lp110
g25
ag27
aS'objB'
p111
ag29
aS'objD'
p112
ag31
aS'objF'
p113
asS'goal_poses'
p114
(dp115
sS'start_stackings'
p116
(dp117
sS'goal_holding'
p118
NsS'floor_object_names'
p119
(lp120
sS'env_file'
p121
S'transporter.dae'
p122
sb.