ccopy_reg
_reconstructor
p0
(c__main__
ManipulationProblem
p1
c__builtin__
object
p2
Ntp3
Rp4
(dp5
S'goal_cleaned'
p6
(lp7
sS'start_holding'
p8
I00
sS'table_names'
p9
(lp10
S'table2'
p11
aS'table3'
p12
aS'table1'
p13
aS'table4'
p14
asS'name'
p15
S'walls'
p16
sS'sink_names'
p17
(lp18
sS'goal_regions'
p19
(dp20
S'objTarget2'
p21
S'top right'
p22
sS'objTarget'
p23
S'bottom left'
p24
ssS'goal_cooked'
p25
(lp26
sS'goal_config'
p27
NsS'stove_names'
p28
(lp29
sS'regions'
p30
(lp31
g0
(cmanipulation.regions
AARegion
p32
g2
Ntp33
Rp34
(dp35
S'box'
p36
cnumpy.core.multiarray
_reconstruct
p37
(cnumpy
ndarray
p38
(I0
tp39
S'b'
p40
tp41
Rp42
(I1
(I2
I2
tp43
cnumpy
dtype
p44
(S'f8'
p45
I0
I1
tp46
Rp47
(I3
S'<'
p48
NNNI-1
I-1
I0
tp49
bI00
S'\x00\x00\x00\x07\x00\x00\xf2?\x00\x00\x00\t\x00\x00\xfa?\x00\x00\x00\x07\x00\x00\xf2?\x00\x00\x00\t\x00\x00\xfa?'
p50
tp51
bsS'color'
p52
(F0.0
F0.0
F1.0
F0.5
tp53
sS'z'
p54
cnumpy.core.multiarray
scalar
p55
(g47
S'\xe2X\x17\xb7\xd1\x00\xe8?'
p56
tp57
Rp58
sg15
g22
sS'draw_handle'
p59
Nsbag0
(g32
g2
Ntp60
Rp61
(dp62
g36
g37
(g38
(I0
tp63
g40
tp64
Rp65
(I1
(I2
I2
tp66
g47
I00
S'\x00\x00\x00\t\x00\x00\xfa\xbf\x00\x00\x00\x07\x00\x00\xf2\xbf\x00\x00\x00\t\x00\x00\xfa\xbf\x00\x00\x00\x07\x00\x00\xf2\xbf'
p67
tp68
bsg52
(F0.0
F0.5019607843137255
F0.0
F0.5
tp69
sg54
g55
(g47
S'\xe2X\x17\xb7\xd1\x00\xe8?'
p70
tp71
Rp72
sg15
g24
sg59
NsbasS'goal_stackings'
p73
(dp74
sS'object_names'
p75
(lp76
g21
ag23
aS'objD2'
p77
aS'objE2'
p78
aS'objA2'
p79
aS'objB2'
p80
aS'objF2'
p81
aS'objA'
p82
aS'objC'
p83
aS'objB'
p84
aS'objE'
p85
aS'objD'
p86
aS'objG'
p87
aS'objF'
p88
aS'objG2'
p89
aS'objC2'
p90
asS'goal_poses'
p91
(dp92
sS'start_stackings'
p93
(dp94
sS'goal_holding'
p95
NsS'floor_object_names'
p96
(lp97
sS'env_file'
p98
S'walls.dae'
p99
sb.